---
triple:          'arm64-apple-darwin'
binary-path:     'main/bin/CardDeckSample'
relocations:
  - { offsetInCU: 0x3405, offset: 0x3405, size: 0x8, addend: 0x0, symName: __ZNSt3__124__put_character_sequenceB7v160006IcNS_11char_traitsIcEEEERNS_13basic_ostreamIT_T0_EES7_PKS4_m, symObjAddr: 0xCA8, symBinAddr: 0x100005190, symSize: 0x1EC }
  - { offsetInCU: 0x4D86, offset: 0x4D86, size: 0x8, addend: 0x0, symName: __ZNSt3__1lsB7v160006IcNS_11char_traitsIcEENS_9allocatorIcEEEERNS_13basic_ostreamIT_T0_EES9_RKNS_12basic_stringIS6_S7_T1_EE, symObjAddr: 0x328, symBinAddr: 0x100004810, symSize: 0x4C }
  - { offsetInCU: 0x4DDE, offset: 0x4DDE, size: 0x8, addend: 0x0, symName: __ZNSt3__1lsB7v160006INS_11char_traitsIcEEEERNS_13basic_ostreamIcT_EES6_PKc, symObjAddr: 0x374, symBinAddr: 0x10000485C, symSize: 0x48 }
  - { offsetInCU: 0x4E24, offset: 0x4E24, size: 0x8, addend: 0x0, symName: __ZNSt3__14endlB7v160006IcNS_11char_traitsIcEEEERNS_13basic_ostreamIT_T0_EES7_, symObjAddr: 0x3E8, symBinAddr: 0x1000048D0, symSize: 0x58 }
  - { offsetInCU: 0x5FA2, offset: 0x5FA2, size: 0x8, addend: 0x0, symName: __ZNSt3__119__debug_db_insert_cB7v160006INS_12basic_stringIcNS_11char_traitsIcEENS_9allocatorIcEEEEEEvPT_, symObjAddr: 0x618, symBinAddr: 0x100004B00, symSize: 0x10 }
  - { offsetInCU: 0x5FD3, offset: 0x5FD3, size: 0x8, addend: 0x0, symName: __ZNSt3__118__constexpr_strlenB7v160006EPKc, symObjAddr: 0x6E4, symBinAddr: 0x100004BCC, symSize: 0x24 }
  - { offsetInCU: 0x5FFF, offset: 0x5FFF, size: 0x8, addend: 0x0, symName: __ZNSt3__118__debug_db_erase_cB7v160006INS_10__list_impI4CardNS_9allocatorIS2_EEEEEEvPT_, symObjAddr: 0x894, symBinAddr: 0x100004D7C, symSize: 0x10 }
  - { offsetInCU: 0x60BD, offset: 0x60BD, size: 0x8, addend: 0x0, symName: __ZNSt3__125__debug_db_invalidate_allB7v160006INS_10__list_impI4CardNS_9allocatorIS2_EEEEEEvPT_, symObjAddr: 0xA14, symBinAddr: 0x100004EFC, symSize: 0x10 }
  - { offsetInCU: 0x6121, offset: 0x6121, size: 0x8, addend: 0x0, symName: __ZNSt3__119__libcpp_deallocateB7v160006EPvmm, symObjAddr: 0xB80, symBinAddr: 0x100005068, symSize: 0x60 }
  - { offsetInCU: 0x6186, offset: 0x6186, size: 0x8, addend: 0x0, symName: __ZNSt3__124__is_overaligned_for_newB7v160006Em, symObjAddr: 0xBE0, symBinAddr: 0x1000050C8, symSize: 0x20 }
  - { offsetInCU: 0x61B4, offset: 0x61B4, size: 0x8, addend: 0x0, symName: __ZNSt3__127__do_deallocate_handle_sizeB7v160006IJSt11align_val_tEEEvPvmDpT_, symObjAddr: 0xC00, symBinAddr: 0x1000050E8, symSize: 0x30 }
  - { offsetInCU: 0x6207, offset: 0x6207, size: 0x8, addend: 0x0, symName: __ZNSt3__127__do_deallocate_handle_sizeB7v160006IJEEEvPvmDpT_, symObjAddr: 0xC30, symBinAddr: 0x100005118, symSize: 0x28 }
  - { offsetInCU: 0x6245, offset: 0x6245, size: 0x8, addend: 0x0, symName: __ZNSt3__124__libcpp_operator_deleteB7v160006IJPvSt11align_val_tEEEvDpT_, symObjAddr: 0xC58, symBinAddr: 0x100005140, symSize: 0x2C }
  - { offsetInCU: 0x628E, offset: 0x628E, size: 0x8, addend: 0x0, symName: __ZNSt3__124__libcpp_operator_deleteB7v160006IJPvEEEvDpT_, symObjAddr: 0xC84, symBinAddr: 0x10000516C, symSize: 0x24 }
  - { offsetInCU: 0x62C3, offset: 0x62C3, size: 0x8, addend: 0x0, symName: __ZNSt3__116__pad_and_outputB7v160006IcNS_11char_traitsIcEEEENS_19ostreambuf_iteratorIT_T0_EES6_PKS4_S8_S8_RNS_8ios_baseES4_, symObjAddr: 0xEB0, symBinAddr: 0x100005398, symSize: 0x240 }
  - { offsetInCU: 0x6392, offset: 0x6392, size: 0x8, addend: 0x0, symName: __ZNSt3__112__to_addressB7v160006IcEEPT_S2_, symObjAddr: 0x1328, symBinAddr: 0x100005810, symSize: 0x14 }
  - { offsetInCU: 0x63FA, offset: 0x63FA, size: 0x8, addend: 0x0, symName: __ZNSt3__19use_facetB7v160006INS_5ctypeIcEEEERKT_RKNS_6localeE, symObjAddr: 0x15E0, symBinAddr: 0x100005AC8, symSize: 0x2C }
  - { offsetInCU: 0x68C9, offset: 0x68C9, size: 0x8, addend: 0x0, symName: __ZNSt3__112__to_addressB7v160006IKcEEPT_S3_, symObjAddr: 0x16F4, symBinAddr: 0x100005BDC, symSize: 0x14 }
  - { offsetInCU: 0x8FEF, offset: 0x8FEF, size: 0x8, addend: 0x0, symName: _main, symObjAddr: 0x0, symBinAddr: 0x1000044E8, symSize: 0x328 }
  - { offsetInCU: 0x9069, offset: 0x9069, size: 0x8, addend: 0x0, symName: __ZNSt3__113basic_ostreamIcNS_11char_traitsIcEEElsB7v160006EPFRS3_S4_E, symObjAddr: 0x3BC, symBinAddr: 0x1000048A4, symSize: 0x2C }
  - { offsetInCU: 0x90B6, offset: 0x90B6, size: 0x8, addend: 0x0, symName: __ZNSt3__113random_deviceC1Ev, symObjAddr: 0x440, symBinAddr: 0x100004928, symSize: 0x74 }
  - { offsetInCU: 0x90E0, offset: 0x90E0, size: 0x8, addend: 0x0, symName: __ZNSt3__123mersenne_twister_engineIjLm32ELm624ELm397ELm31ELj2567483615ELm11ELj4294967295ELm7ELj2636928640ELm15ELj4022730752ELm18ELj1812433253EEC1B7v160006Ej, symObjAddr: 0x4B4, symBinAddr: 0x10000499C, symSize: 0x34 }
  - { offsetInCU: 0x92FB, offset: 0x92FB, size: 0x8, addend: 0x0, symName: __ZN8CardDeckD1Ev, symObjAddr: 0x4E8, symBinAddr: 0x1000049D0, symSize: 0x2C }
  - { offsetInCU: 0x932C, offset: 0x932C, size: 0x8, addend: 0x0, symName: __ZNSt3__112basic_stringIcNS_11char_traitsIcEENS_9allocatorIcEEEC1B7v160006IDnEEPKc, symObjAddr: 0x514, symBinAddr: 0x1000049FC, symSize: 0x34 }
  - { offsetInCU: 0x936A, offset: 0x936A, size: 0x8, addend: 0x0, symName: __ZNSt3__112basic_stringIcNS_11char_traitsIcEENS_9allocatorIcEEEC2B7v160006IDnEEPKc, symObjAddr: 0x548, symBinAddr: 0x100004A30, symSize: 0x60 }
  - { offsetInCU: 0x93AD, offset: 0x93AD, size: 0x8, addend: 0x0, symName: __ZNSt3__117__compressed_pairINS_12basic_stringIcNS_11char_traitsIcEENS_9allocatorIcEEE5__repES5_EC1B7v160006INS_18__default_init_tagESA_EEOT_OT0_, symObjAddr: 0x5A8, symBinAddr: 0x100004A90, symSize: 0x3C }
  - { offsetInCU: 0x9405, offset: 0x9405, size: 0x8, addend: 0x0, symName: __ZNSt3__111char_traitsIcE6lengthEPKc, symObjAddr: 0x5E4, symBinAddr: 0x100004ACC, symSize: 0x34 }
  - { offsetInCU: 0x9428, offset: 0x9428, size: 0x8, addend: 0x0, symName: __ZNSt3__117__compressed_pairINS_12basic_stringIcNS_11char_traitsIcEENS_9allocatorIcEEE5__repES5_EC2B7v160006INS_18__default_init_tagESA_EEOT_OT0_, symObjAddr: 0x628, symBinAddr: 0x100004B10, symSize: 0x3C }
  - { offsetInCU: 0x9480, offset: 0x9480, size: 0x8, addend: 0x0, symName: __ZNSt3__122__compressed_pair_elemINS_12basic_stringIcNS_11char_traitsIcEENS_9allocatorIcEEE5__repELi0ELb0EEC2B7v160006ENS_18__default_init_tagE, symObjAddr: 0x664, symBinAddr: 0x100004B4C, symSize: 0x14 }
  - { offsetInCU: 0x94B5, offset: 0x94B5, size: 0x8, addend: 0x0, symName: __ZNSt3__122__compressed_pair_elemINS_9allocatorIcEELi1ELb1EEC2B7v160006ENS_18__default_init_tagE, symObjAddr: 0x678, symBinAddr: 0x100004B60, symSize: 0x2C }
  - { offsetInCU: 0x94EA, offset: 0x94EA, size: 0x8, addend: 0x0, symName: __ZNSt3__19allocatorIcEC2B7v160006Ev, symObjAddr: 0x6A4, symBinAddr: 0x100004B8C, symSize: 0x2C }
  - { offsetInCU: 0x9514, offset: 0x9514, size: 0x8, addend: 0x0, symName: __ZNSt3__116__non_trivial_ifILb1ENS_9allocatorIcEEEC2B7v160006Ev, symObjAddr: 0x6D0, symBinAddr: 0x100004BB8, symSize: 0x14 }
  - { offsetInCU: 0x953E, offset: 0x953E, size: 0x8, addend: 0x0, symName: __ZN8CardDeckD2Ev, symObjAddr: 0x714, symBinAddr: 0x100004BFC, symSize: 0x2C }
  - { offsetInCU: 0x956A, offset: 0x956A, size: 0x8, addend: 0x0, symName: __ZNSt3__14listI4CardNS_9allocatorIS1_EEED2Ev, symObjAddr: 0x740, symBinAddr: 0x100004C28, symSize: 0x2C }
  - { offsetInCU: 0x9597, offset: 0x9597, size: 0x8, addend: 0x0, symName: __ZNSt3__110__list_impI4CardNS_9allocatorIS1_EEED2Ev, symObjAddr: 0x76C, symBinAddr: 0x100004C54, symSize: 0x3C }
  - { offsetInCU: 0x95C3, offset: 0x95C3, size: 0x8, addend: 0x0, symName: __ZNSt3__110__list_impI4CardNS_9allocatorIS1_EEE5clearEv, symObjAddr: 0x7A8, symBinAddr: 0x100004C90, symSize: 0xEC }
  - { offsetInCU: 0x9633, offset: 0x9633, size: 0x8, addend: 0x0, symName: __ZNKSt3__110__list_impI4CardNS_9allocatorIS1_EEE5emptyB7v160006Ev, symObjAddr: 0x8A4, symBinAddr: 0x100004D8C, symSize: 0x34 }
  - { offsetInCU: 0x9659, offset: 0x9659, size: 0x8, addend: 0x0, symName: __ZNSt3__110__list_impI4CardNS_9allocatorIS1_EEE12__node_allocB7v160006Ev, symObjAddr: 0x8D8, symBinAddr: 0x100004DC0, symSize: 0x28 }
  - { offsetInCU: 0x967F, offset: 0x967F, size: 0x8, addend: 0x0, symName: __ZNKSt3__110__list_impI4CardNS_9allocatorIS1_EEE13__end_as_linkB7v160006Ev, symObjAddr: 0x900, symBinAddr: 0x100004DE8, symSize: 0x44 }
  - { offsetInCU: 0x96A5, offset: 0x96A5, size: 0x8, addend: 0x0, symName: __ZNSt3__110__list_impI4CardNS_9allocatorIS1_EEE14__unlink_nodesEPNS_16__list_node_baseIS1_PvEES8_, symObjAddr: 0x944, symBinAddr: 0x100004E2C, symSize: 0x3C }
  - { offsetInCU: 0x96DA, offset: 0x96DA, size: 0x8, addend: 0x0, symName: __ZNSt3__110__list_impI4CardNS_9allocatorIS1_EEE4__szB7v160006Ev, symObjAddr: 0x980, symBinAddr: 0x100004E68, symSize: 0x28 }
  - { offsetInCU: 0x9700, offset: 0x9700, size: 0x8, addend: 0x0, symName: __ZNSt3__116__list_node_baseI4CardPvE9__as_nodeB7v160006Ev, symObjAddr: 0x9A8, symBinAddr: 0x100004E90, symSize: 0x24 }
  - { offsetInCU: 0x972B, offset: 0x972B, size: 0x8, addend: 0x0, symName: __ZNSt3__116allocator_traitsINS_9allocatorINS_11__list_nodeI4CardPvEEEEE7destroyB7v160006IS3_vvEEvRS6_PT_, symObjAddr: 0x9CC, symBinAddr: 0x100004EB4, symSize: 0x14 }
  - { offsetInCU: 0x9766, offset: 0x9766, size: 0x8, addend: 0x0, symName: __ZNSt3__116allocator_traitsINS_9allocatorINS_11__list_nodeI4CardPvEEEEE10deallocateB7v160006ERS6_PS5_m, symObjAddr: 0x9E0, symBinAddr: 0x100004EC8, symSize: 0x34 }
  - { offsetInCU: 0x97A8, offset: 0x97A8, size: 0x8, addend: 0x0, symName: __ZNKSt3__110__list_impI4CardNS_9allocatorIS1_EEE4__szB7v160006Ev, symObjAddr: 0xA24, symBinAddr: 0x100004F0C, symSize: 0x28 }
  - { offsetInCU: 0x97CE, offset: 0x97CE, size: 0x8, addend: 0x0, symName: __ZNKSt3__117__compressed_pairImNS_9allocatorINS_11__list_nodeI4CardPvEEEEE5firstB7v160006Ev, symObjAddr: 0xA4C, symBinAddr: 0x100004F34, symSize: 0x24 }
  - { offsetInCU: 0x97F4, offset: 0x97F4, size: 0x8, addend: 0x0, symName: __ZNKSt3__122__compressed_pair_elemImLi0ELb0EE5__getB7v160006Ev, symObjAddr: 0xA70, symBinAddr: 0x100004F58, symSize: 0x14 }
  - { offsetInCU: 0x981A, offset: 0x981A, size: 0x8, addend: 0x0, symName: __ZNSt3__117__compressed_pairImNS_9allocatorINS_11__list_nodeI4CardPvEEEEE6secondB7v160006Ev, symObjAddr: 0xA84, symBinAddr: 0x100004F6C, symSize: 0x24 }
  - { offsetInCU: 0x9840, offset: 0x9840, size: 0x8, addend: 0x0, symName: __ZNSt3__122__compressed_pair_elemINS_9allocatorINS_11__list_nodeI4CardPvEEEELi1ELb1EE5__getB7v160006Ev, symObjAddr: 0xAA8, symBinAddr: 0x100004F90, symSize: 0x14 }
  - { offsetInCU: 0x9866, offset: 0x9866, size: 0x8, addend: 0x0, symName: __ZNSt3__126__list_node_pointer_traitsI4CardPvE26__unsafe_link_pointer_castB7v160006EPNS_16__list_node_baseIS1_S2_EE, symObjAddr: 0xABC, symBinAddr: 0x100004FA4, symSize: 0x14 }
  - { offsetInCU: 0x988A, offset: 0x988A, size: 0x8, addend: 0x0, symName: __ZNSt3__116__list_node_baseI4CardPvE6__selfB7v160006Ev, symObjAddr: 0xAD0, symBinAddr: 0x100004FB8, symSize: 0x24 }
  - { offsetInCU: 0x98B5, offset: 0x98B5, size: 0x8, addend: 0x0, symName: __ZNSt3__114pointer_traitsIPNS_16__list_node_baseI4CardPvEEE10pointer_toB7v160006ERS4_, symObjAddr: 0xAF4, symBinAddr: 0x100004FDC, symSize: 0x14 }
  - { offsetInCU: 0x98D8, offset: 0x98D8, size: 0x8, addend: 0x0, symName: __ZNSt3__117__compressed_pairImNS_9allocatorINS_11__list_nodeI4CardPvEEEEE5firstB7v160006Ev, symObjAddr: 0xB08, symBinAddr: 0x100004FF0, symSize: 0x24 }
  - { offsetInCU: 0x98FE, offset: 0x98FE, size: 0x8, addend: 0x0, symName: __ZNSt3__122__compressed_pair_elemImLi0ELb0EE5__getB7v160006Ev, symObjAddr: 0xB2C, symBinAddr: 0x100005014, symSize: 0x14 }
  - { offsetInCU: 0x9924, offset: 0x9924, size: 0x8, addend: 0x0, symName: __ZNSt3__19allocatorINS_11__list_nodeI4CardPvEEE10deallocateB7v160006EPS4_m, symObjAddr: 0xB40, symBinAddr: 0x100005028, symSize: 0x40 }
  - { offsetInCU: 0x9984, offset: 0x9984, size: 0x8, addend: 0x0, symName: __ZNKSt3__113basic_ostreamIcNS_11char_traitsIcEEE6sentrycvbB7v160006Ev, symObjAddr: 0xE94, symBinAddr: 0x10000537C, symSize: 0x1C }
  - { offsetInCU: 0x99AA, offset: 0x99AA, size: 0x8, addend: 0x0, symName: __ZNSt3__119ostreambuf_iteratorIcNS_11char_traitsIcEEEC1B7v160006ERNS_13basic_ostreamIcS2_EE, symObjAddr: 0x10F0, symBinAddr: 0x1000055D8, symSize: 0x34 }
  - { offsetInCU: 0x99E2, offset: 0x99E2, size: 0x8, addend: 0x0, symName: __ZNKSt3__18ios_base5flagsB7v160006Ev, symObjAddr: 0x1124, symBinAddr: 0x10000560C, symSize: 0x18 }
  - { offsetInCU: 0x9A0A, offset: 0x9A0A, size: 0x8, addend: 0x0, symName: __ZNKSt3__19basic_iosIcNS_11char_traitsIcEEE4fillB7v160006Ev, symObjAddr: 0x113C, symBinAddr: 0x100005624, symSize: 0x64 }
  - { offsetInCU: 0x9A32, offset: 0x9A32, size: 0x8, addend: 0x0, symName: __ZNKSt3__119ostreambuf_iteratorIcNS_11char_traitsIcEEE6failedB7v160006Ev, symObjAddr: 0x11A0, symBinAddr: 0x100005688, symSize: 0x24 }
  - { offsetInCU: 0x9A58, offset: 0x9A58, size: 0x8, addend: 0x0, symName: __ZNSt3__19basic_iosIcNS_11char_traitsIcEEE8setstateB7v160006Ej, symObjAddr: 0x11C4, symBinAddr: 0x1000056AC, symSize: 0x2C }
  - { offsetInCU: 0x9A8D, offset: 0x9A8D, size: 0x8, addend: 0x0, symName: __ZNKSt3__18ios_base5widthB7v160006Ev, symObjAddr: 0x11F0, symBinAddr: 0x1000056D8, symSize: 0x18 }
  - { offsetInCU: 0x9AB5, offset: 0x9AB5, size: 0x8, addend: 0x0, symName: __ZNSt3__115basic_streambufIcNS_11char_traitsIcEEE5sputnB7v160006EPKcl, symObjAddr: 0x1208, symBinAddr: 0x1000056F0, symSize: 0x3C }
  - { offsetInCU: 0x9AF7, offset: 0x9AF7, size: 0x8, addend: 0x0, symName: __ZNSt3__112basic_stringIcNS_11char_traitsIcEENS_9allocatorIcEEEC1B7v160006Emc, symObjAddr: 0x1244, symBinAddr: 0x10000572C, symSize: 0x3C }
  - { offsetInCU: 0x9B3F, offset: 0x9B3F, size: 0x8, addend: 0x0, symName: __ZNSt3__112basic_stringIcNS_11char_traitsIcEENS_9allocatorIcEEE4dataB7v160006Ev, symObjAddr: 0x1280, symBinAddr: 0x100005768, symSize: 0x28 }
  - { offsetInCU: 0x9B65, offset: 0x9B65, size: 0x8, addend: 0x0, symName: __ZNSt3__18ios_base5widthB7v160006El, symObjAddr: 0x12A8, symBinAddr: 0x100005790, symSize: 0x2C }
  - { offsetInCU: 0x9BAB, offset: 0x9BAB, size: 0x8, addend: 0x0, symName: __ZNSt3__112basic_stringIcNS_11char_traitsIcEENS_9allocatorIcEEEC2B7v160006Emc, symObjAddr: 0x12D4, symBinAddr: 0x1000057BC, symSize: 0x54 }
  - { offsetInCU: 0x9BF3, offset: 0x9BF3, size: 0x8, addend: 0x0, symName: __ZNSt3__112basic_stringIcNS_11char_traitsIcEENS_9allocatorIcEEE13__get_pointerB7v160006Ev, symObjAddr: 0x133C, symBinAddr: 0x100005824, symSize: 0x54 }
  - { offsetInCU: 0x9C19, offset: 0x9C19, size: 0x8, addend: 0x0, symName: __ZNKSt3__112basic_stringIcNS_11char_traitsIcEENS_9allocatorIcEEE9__is_longB7v160006Ev, symObjAddr: 0x1390, symBinAddr: 0x100005878, symSize: 0x38 }
  - { offsetInCU: 0x9C3F, offset: 0x9C3F, size: 0x8, addend: 0x0, symName: __ZNSt3__112basic_stringIcNS_11char_traitsIcEENS_9allocatorIcEEE18__get_long_pointerB7v160006Ev, symObjAddr: 0x13C8, symBinAddr: 0x1000058B0, symSize: 0x28 }
  - { offsetInCU: 0x9C65, offset: 0x9C65, size: 0x8, addend: 0x0, symName: __ZNSt3__112basic_stringIcNS_11char_traitsIcEENS_9allocatorIcEEE19__get_short_pointerB7v160006Ev, symObjAddr: 0x13F0, symBinAddr: 0x1000058D8, symSize: 0x28 }
  - { offsetInCU: 0x9C8B, offset: 0x9C8B, size: 0x8, addend: 0x0, symName: __ZNKSt3__117__compressed_pairINS_12basic_stringIcNS_11char_traitsIcEENS_9allocatorIcEEE5__repES5_E5firstB7v160006Ev, symObjAddr: 0x1418, symBinAddr: 0x100005900, symSize: 0x24 }
  - { offsetInCU: 0x9CB1, offset: 0x9CB1, size: 0x8, addend: 0x0, symName: __ZNKSt3__122__compressed_pair_elemINS_12basic_stringIcNS_11char_traitsIcEENS_9allocatorIcEEE5__repELi0ELb0EE5__getB7v160006Ev, symObjAddr: 0x143C, symBinAddr: 0x100005924, symSize: 0x14 }
  - { offsetInCU: 0x9CD7, offset: 0x9CD7, size: 0x8, addend: 0x0, symName: __ZNSt3__117__compressed_pairINS_12basic_stringIcNS_11char_traitsIcEENS_9allocatorIcEEE5__repES5_E5firstB7v160006Ev, symObjAddr: 0x1450, symBinAddr: 0x100005938, symSize: 0x24 }
  - { offsetInCU: 0x9CFD, offset: 0x9CFD, size: 0x8, addend: 0x0, symName: __ZNSt3__122__compressed_pair_elemINS_12basic_stringIcNS_11char_traitsIcEENS_9allocatorIcEEE5__repELi0ELb0EE5__getB7v160006Ev, symObjAddr: 0x1474, symBinAddr: 0x10000595C, symSize: 0x14 }
  - { offsetInCU: 0x9D23, offset: 0x9D23, size: 0x8, addend: 0x0, symName: __ZNSt3__114pointer_traitsIPcE10pointer_toB7v160006ERc, symObjAddr: 0x1488, symBinAddr: 0x100005970, symSize: 0x14 }
  - { offsetInCU: 0x9D46, offset: 0x9D46, size: 0x8, addend: 0x0, symName: __ZNSt3__119ostreambuf_iteratorIcNS_11char_traitsIcEEEC2B7v160006ERNS_13basic_ostreamIcS2_EE, symObjAddr: 0x149C, symBinAddr: 0x100005984, symSize: 0x54 }
  - { offsetInCU: 0x9D7E, offset: 0x9D7E, size: 0x8, addend: 0x0, symName: __ZNKSt3__19basic_iosIcNS_11char_traitsIcEEE5rdbufB7v160006Ev, symObjAddr: 0x14F0, symBinAddr: 0x1000059D8, symSize: 0x24 }
  - { offsetInCU: 0x9DA6, offset: 0x9DA6, size: 0x8, addend: 0x0, symName: __ZNKSt3__18ios_base5rdbufB7v160006Ev, symObjAddr: 0x1514, symBinAddr: 0x1000059FC, symSize: 0x18 }
  - { offsetInCU: 0x9DCC, offset: 0x9DCC, size: 0x8, addend: 0x0, symName: __ZNSt3__111char_traitsIcE11eq_int_typeEii, symObjAddr: 0x152C, symBinAddr: 0x100005A14, symSize: 0x28 }
  - { offsetInCU: 0x9DFD, offset: 0x9DFD, size: 0x8, addend: 0x0, symName: __ZNSt3__111char_traitsIcE3eofEv, symObjAddr: 0x1554, symBinAddr: 0x100005A3C, symSize: 0x8 }
  - { offsetInCU: 0x9E11, offset: 0x9E11, size: 0x8, addend: 0x0, symName: __ZNKSt3__19basic_iosIcNS_11char_traitsIcEEE5widenB7v160006Ec, symObjAddr: 0x155C, symBinAddr: 0x100005A44, symSize: 0x84 }
  - { offsetInCU: 0x9E7A, offset: 0x9E7A, size: 0x8, addend: 0x0, symName: __ZNKSt3__15ctypeIcE5widenB7v160006Ec, symObjAddr: 0x160C, symBinAddr: 0x100005AF4, symSize: 0x38 }
  - { offsetInCU: 0x9EAF, offset: 0x9EAF, size: 0x8, addend: 0x0, symName: __ZNSt3__18ios_base8setstateB7v160006Ej, symObjAddr: 0x1644, symBinAddr: 0x100005B2C, symSize: 0x34 }
  - { offsetInCU: 0x9EE6, offset: 0x9EE6, size: 0x8, addend: 0x0, symName: __ZNKSt3__112basic_stringIcNS_11char_traitsIcEENS_9allocatorIcEEE4dataB7v160006Ev, symObjAddr: 0x1678, symBinAddr: 0x100005B60, symSize: 0x28 }
  - { offsetInCU: 0x9F0C, offset: 0x9F0C, size: 0x8, addend: 0x0, symName: __ZNKSt3__112basic_stringIcNS_11char_traitsIcEENS_9allocatorIcEEE4sizeB7v160006Ev, symObjAddr: 0x16A0, symBinAddr: 0x100005B88, symSize: 0x54 }
  - { offsetInCU: 0x9F32, offset: 0x9F32, size: 0x8, addend: 0x0, symName: __ZNKSt3__112basic_stringIcNS_11char_traitsIcEENS_9allocatorIcEEE13__get_pointerB7v160006Ev, symObjAddr: 0x1708, symBinAddr: 0x100005BF0, symSize: 0x54 }
  - { offsetInCU: 0x9F58, offset: 0x9F58, size: 0x8, addend: 0x0, symName: __ZNKSt3__112basic_stringIcNS_11char_traitsIcEENS_9allocatorIcEEE18__get_long_pointerB7v160006Ev, symObjAddr: 0x175C, symBinAddr: 0x100005C44, symSize: 0x28 }
  - { offsetInCU: 0x9F7E, offset: 0x9F7E, size: 0x8, addend: 0x0, symName: __ZNKSt3__112basic_stringIcNS_11char_traitsIcEENS_9allocatorIcEEE19__get_short_pointerB7v160006Ev, symObjAddr: 0x1784, symBinAddr: 0x100005C6C, symSize: 0x28 }
  - { offsetInCU: 0x9FA4, offset: 0x9FA4, size: 0x8, addend: 0x0, symName: __ZNSt3__114pointer_traitsIPKcE10pointer_toB7v160006ERS1_, symObjAddr: 0x17AC, symBinAddr: 0x100005C94, symSize: 0x14 }
  - { offsetInCU: 0x9FC7, offset: 0x9FC7, size: 0x8, addend: 0x0, symName: __ZNKSt3__112basic_stringIcNS_11char_traitsIcEENS_9allocatorIcEEE15__get_long_sizeB7v160006Ev, symObjAddr: 0x17C0, symBinAddr: 0x100005CA8, symSize: 0x28 }
  - { offsetInCU: 0x9FED, offset: 0x9FED, size: 0x8, addend: 0x0, symName: __ZNKSt3__112basic_stringIcNS_11char_traitsIcEENS_9allocatorIcEEE16__get_short_sizeB7v160006Ev, symObjAddr: 0x17E8, symBinAddr: 0x100005CD0, symSize: 0x34 }
  - { offsetInCU: 0xA013, offset: 0xA013, size: 0x8, addend: 0x0, symName: __ZNSt3__123mersenne_twister_engineIjLm32ELm624ELm397ELm31ELj2567483615ELm11ELj4294967295ELm7ELj2636928640ELm15ELj4022730752ELm18ELj1812433253EEC2B7v160006Ej, symObjAddr: 0x181C, symBinAddr: 0x100005D04, symSize: 0x34 }
  - { offsetInCU: 0xA04B, offset: 0xA04B, size: 0x8, addend: 0x0, symName: __ZNSt3__123mersenne_twister_engineIjLm32ELm624ELm397ELm31ELj2567483615ELm11ELj4294967295ELm7ELj2636928640ELm15ELj4022730752ELm18ELj1812433253EE4seedEj, symObjAddr: 0x1850, symBinAddr: 0x100005D38, symSize: 0xC4 }
  - { offsetInCU: 0xA09E, offset: 0xA09E, size: 0x8, addend: 0x0, symName: __ZNSt3__123mersenne_twister_engineIjLm32ELm624ELm397ELm31ELj2567483615ELm11ELj4294967295ELm7ELj2636928640ELm15ELj4022730752ELm18ELj1812433253EE8__rshiftB7v160006ILm30EEENS_9enable_ifIXltT_L_ZNS1_3_DtEEEjE4typeEj, symObjAddr: 0x1914, symBinAddr: 0x100005DFC, symSize: 0x18 }
  - { offsetInCU: 0x5141, offset: 0xF298, size: 0x8, addend: 0x0, symName: __ZNSt3__113__countl_zeroB7v160006IjEEiT_, symObjAddr: 0xAF4, symBinAddr: 0x100006868, symSize: 0x54 }
  - { offsetInCU: 0x5176, offset: 0xF2CD, size: 0x8, addend: 0x0, symName: __ZNSt3__112__libcpp_clzB7v160006Ej, symObjAddr: 0xF8C, symBinAddr: 0x100006D00, symSize: 0x18 }
  - { offsetInCU: 0x539D, offset: 0xF4F4, size: 0x8, addend: 0x0, symName: __ZN4Card18create_random_cardERNSt3__123mersenne_twister_engineIjLm32ELm624ELm397ELm31ELj2567483615ELm11ELj4294967295ELm7ELj2636928640ELm15ELj4022730752ELm18ELj1812433253EEEb, symObjAddr: 0x0, symBinAddr: 0x100005E14, symSize: 0xF0 }
  - { offsetInCU: 0x542C, offset: 0xF583, size: 0x8, addend: 0x0, symName: __ZNSt3__124uniform_int_distributionIiEclINS_23mersenne_twister_engineIjLm32ELm624ELm397ELm31ELj2567483615ELm11ELj4294967295ELm7ELj2636928640ELm15ELj4022730752ELm18ELj1812433253EEEEEiRT_RKNS1_10param_typeE, symObjAddr: 0x8DC, symBinAddr: 0x100006650, symSize: 0x188 }
  - { offsetInCU: 0x7302, offset: 0x11459, size: 0x8, addend: 0x0, symName: __ZNSt3__124uniform_int_distributionIiEC1Eii, symObjAddr: 0xF0, symBinAddr: 0x100005F04, symSize: 0x3C }
  - { offsetInCU: 0x7348, offset: 0x1149F, size: 0x8, addend: 0x0, symName: __ZNSt3__124uniform_int_distributionIiEclINS_23mersenne_twister_engineIjLm32ELm624ELm397ELm31ELj2567483615ELm11ELj4294967295ELm7ELj2636928640ELm15ELj4022730752ELm18ELj1812433253EEEEEiRT_, symObjAddr: 0x138, symBinAddr: 0x100005F40, symSize: 0x30 }
  - { offsetInCU: 0x7385, offset: 0x114DC, size: 0x8, addend: 0x0, symName: __ZN4CardC1E4Suit4Rankb, symObjAddr: 0x168, symBinAddr: 0x100005F70, symSize: 0x50 }
  - { offsetInCU: 0x73DB, offset: 0x11532, size: 0x8, addend: 0x0, symName: __ZN4CardC2E4Suit4Rankb, symObjAddr: 0x1B8, symBinAddr: 0x100005FC0, symSize: 0x44 }
  - { offsetInCU: 0x7431, offset: 0x11588, size: 0x8, addend: 0x0, symName: __ZNK4Card8get_suitEv, symObjAddr: 0x1FC, symBinAddr: 0x100006004, symSize: 0x18 }
  - { offsetInCU: 0x7459, offset: 0x115B0, size: 0x8, addend: 0x0, symName: __ZNK4Card8get_rankEv, symObjAddr: 0x214, symBinAddr: 0x10000601C, symSize: 0x18 }
  - { offsetInCU: 0x7481, offset: 0x115D8, size: 0x8, addend: 0x0, symName: __ZNK4Card10is_visibleEv, symObjAddr: 0x22C, symBinAddr: 0x100006034, symSize: 0x1C }
  - { offsetInCU: 0x74A9, offset: 0x11600, size: 0x8, addend: 0x0, symName: __ZN4Card4flipEv, symObjAddr: 0x248, symBinAddr: 0x100006050, symSize: 0x28 }
  - { offsetInCU: 0x74D1, offset: 0x11628, size: 0x8, addend: 0x0, symName: __ZNK4CardeqERKS_, symObjAddr: 0x270, symBinAddr: 0x100006078, symSize: 0x68 }
  - { offsetInCU: 0x7507, offset: 0x1165E, size: 0x8, addend: 0x0, symName: __ZNK4CardneERKS_, symObjAddr: 0x2D8, symBinAddr: 0x1000060E0, symSize: 0x68 }
  - { offsetInCU: 0x753C, offset: 0x11693, size: 0x8, addend: 0x0, symName: __Z9to_stringRK4Card, symObjAddr: 0x340, symBinAddr: 0x100006148, symSize: 0xFC }
  - { offsetInCU: 0x7661, offset: 0x117B8, size: 0x8, addend: 0x0, symName: __ZNSt3__118basic_stringstreamIcNS_11char_traitsIcEENS_9allocatorIcEEEC1B7v160006Ev, symObjAddr: 0x43C, symBinAddr: 0x100006244, symSize: 0x104 }
  - { offsetInCU: 0x768B, offset: 0x117E2, size: 0x8, addend: 0x0, symName: __ZNKSt3__118basic_stringstreamIcNS_11char_traitsIcEENS_9allocatorIcEEE3strB7v160006Ev, symObjAddr: 0x5D4, symBinAddr: 0x100006348, symSize: 0x30 }
  - { offsetInCU: 0x76B6, offset: 0x1180D, size: 0x8, addend: 0x0, symName: __ZNSt3__118basic_stringstreamIcNS_11char_traitsIcEENS_9allocatorIcEEED1Ev, symObjAddr: 0x604, symBinAddr: 0x100006378, symSize: 0x40 }
  - { offsetInCU: 0x7711, offset: 0x11868, size: 0x8, addend: 0x0, symName: __ZNK8CardHashclERK4Card, symObjAddr: 0x644, symBinAddr: 0x1000063B8, symSize: 0xB8 }
  - { offsetInCU: 0x777E, offset: 0x118D5, size: 0x8, addend: 0x0, symName: __ZNKSt3__14hashImEclB7v160006Em, symObjAddr: 0x6FC, symBinAddr: 0x100006470, symSize: 0x18 }
  - { offsetInCU: 0x77B3, offset: 0x1190A, size: 0x8, addend: 0x0, symName: __ZNSt3__118basic_stringstreamIcNS_11char_traitsIcEENS_9allocatorIcEEED2Ev, symObjAddr: 0x714, symBinAddr: 0x100006488, symSize: 0x6C }
  - { offsetInCU: 0x77ED, offset: 0x11944, size: 0x8, addend: 0x0, symName: __ZThn16_NSt3__118basic_stringstreamIcNS_11char_traitsIcEENS_9allocatorIcEEED1Ev, symObjAddr: 0x780, symBinAddr: 0x1000064F4, symSize: 0x1C }
  - { offsetInCU: 0x7804, offset: 0x1195B, size: 0x8, addend: 0x0, symName: __ZTv0_n24_NSt3__118basic_stringstreamIcNS_11char_traitsIcEENS_9allocatorIcEEED1Ev, symObjAddr: 0x79C, symBinAddr: 0x100006510, symSize: 0x28 }
  - { offsetInCU: 0x7820, offset: 0x11977, size: 0x8, addend: 0x0, symName: __ZNSt3__115basic_stringbufIcNS_11char_traitsIcEENS_9allocatorIcEEED1Ev, symObjAddr: 0x7C4, symBinAddr: 0x100006538, symSize: 0x2C }
  - { offsetInCU: 0x784D, offset: 0x119A4, size: 0x8, addend: 0x0, symName: __ZNSt3__115basic_stringbufIcNS_11char_traitsIcEENS_9allocatorIcEEED2Ev, symObjAddr: 0x7F0, symBinAddr: 0x100006564, symSize: 0x48 }
  - { offsetInCU: 0x787A, offset: 0x119D1, size: 0x8, addend: 0x0, symName: __ZNSt3__124uniform_int_distributionIiEC2Eii, symObjAddr: 0x838, symBinAddr: 0x1000065AC, symSize: 0x3C }
  - { offsetInCU: 0x78C0, offset: 0x11A17, size: 0x8, addend: 0x0, symName: __ZNSt3__124uniform_int_distributionIiE10param_typeC1Eii, symObjAddr: 0x874, symBinAddr: 0x1000065E8, symSize: 0x3C }
  - { offsetInCU: 0x7906, offset: 0x11A5D, size: 0x8, addend: 0x0, symName: __ZNSt3__124uniform_int_distributionIiE10param_typeC2Eii, symObjAddr: 0x8B0, symBinAddr: 0x100006624, symSize: 0x2C }
  - { offsetInCU: 0x794C, offset: 0x11AA3, size: 0x8, addend: 0x0, symName: __ZNKSt3__124uniform_int_distributionIiE10param_type1bEv, symObjAddr: 0xA64, symBinAddr: 0x1000067D8, symSize: 0x18 }
  - { offsetInCU: 0x7972, offset: 0x11AC9, size: 0x8, addend: 0x0, symName: __ZNKSt3__124uniform_int_distributionIiE10param_type1aEv, symObjAddr: 0xA7C, symBinAddr: 0x1000067F0, symSize: 0x18 }
  - { offsetInCU: 0x7998, offset: 0x11AEF, size: 0x8, addend: 0x0, symName: __ZNSt3__125__independent_bits_engineINS_23mersenne_twister_engineIjLm32ELm624ELm397ELm31ELj2567483615ELm11ELj4294967295ELm7ELj2636928640ELm15ELj4022730752ELm18ELj1812433253EEEjEC1ERS2_m, symObjAddr: 0xA94, symBinAddr: 0x100006808, symSize: 0x3C }
  - { offsetInCU: 0x79DF, offset: 0x11B36, size: 0x8, addend: 0x0, symName: __ZNSt3__125__independent_bits_engineINS_23mersenne_twister_engineIjLm32ELm624ELm397ELm31ELj2567483615ELm11ELj4294967295ELm7ELj2636928640ELm15ELj4022730752ELm18ELj1812433253EEEjEclEv, symObjAddr: 0xAD0, symBinAddr: 0x100006844, symSize: 0x24 }
  - { offsetInCU: 0x7A05, offset: 0x11B5C, size: 0x8, addend: 0x0, symName: __ZNSt3__114numeric_limitsIjE3maxB7v160006Ev, symObjAddr: 0xB48, symBinAddr: 0x1000068BC, symSize: 0x14 }
  - { offsetInCU: 0x7A19, offset: 0x11B70, size: 0x8, addend: 0x0, symName: __ZNSt3__125__independent_bits_engineINS_23mersenne_twister_engineIjLm32ELm624ELm397ELm31ELj2567483615ELm11ELj4294967295ELm7ELj2636928640ELm15ELj4022730752ELm18ELj1812433253EEEjEC2ERS2_m, symObjAddr: 0xB5C, symBinAddr: 0x1000068D0, symSize: 0x22C }
  - { offsetInCU: 0x7A5F, offset: 0x11BB6, size: 0x8, addend: 0x0, symName: __ZNSt3__125__independent_bits_engineINS_23mersenne_twister_engineIjLm32ELm624ELm397ELm31ELj2567483615ELm11ELj4294967295ELm7ELj2636928640ELm15ELj4022730752ELm18ELj1812433253EEEjE6__evalENS_17integral_constantIbLb0EEE, symObjAddr: 0xD88, symBinAddr: 0x100006AFC, symSize: 0x38 }
  - { offsetInCU: 0x7A92, offset: 0x11BE9, size: 0x8, addend: 0x0, symName: __ZNSt3__123mersenne_twister_engineIjLm32ELm624ELm397ELm31ELj2567483615ELm11ELj4294967295ELm7ELj2636928640ELm15ELj4022730752ELm18ELj1812433253EEclEv, symObjAddr: 0xDC0, symBinAddr: 0x100006B34, symSize: 0x14C }
  - { offsetInCU: 0x7B05, offset: 0x11C5C, size: 0x8, addend: 0x0, symName: __ZNSt3__123mersenne_twister_engineIjLm32ELm624ELm397ELm31ELj2567483615ELm11ELj4294967295ELm7ELj2636928640ELm15ELj4022730752ELm18ELj1812433253EE8__rshiftB7v160006ILm1EEENS_9enable_ifIXltT_L_ZNS1_3_DtEEEjE4typeEj, symObjAddr: 0xF0C, symBinAddr: 0x100006C80, symSize: 0x18 }
  - { offsetInCU: 0x7B32, offset: 0x11C89, size: 0x8, addend: 0x0, symName: __ZNSt3__123mersenne_twister_engineIjLm32ELm624ELm397ELm31ELj2567483615ELm11ELj4294967295ELm7ELj2636928640ELm15ELj4022730752ELm18ELj1812433253EE8__rshiftB7v160006ILm11EEENS_9enable_ifIXltT_L_ZNS1_3_DtEEEjE4typeEj, symObjAddr: 0xF24, symBinAddr: 0x100006C98, symSize: 0x18 }
  - { offsetInCU: 0x7B5F, offset: 0x11CB6, size: 0x8, addend: 0x0, symName: __ZNSt3__123mersenne_twister_engineIjLm32ELm624ELm397ELm31ELj2567483615ELm11ELj4294967295ELm7ELj2636928640ELm15ELj4022730752ELm18ELj1812433253EE8__lshiftB7v160006ILm7EEENS_9enable_ifIXltT_Lm32EEjE4typeEj, symObjAddr: 0xF3C, symBinAddr: 0x100006CB0, symSize: 0x1C }
  - { offsetInCU: 0x7B8C, offset: 0x11CE3, size: 0x8, addend: 0x0, symName: __ZNSt3__123mersenne_twister_engineIjLm32ELm624ELm397ELm31ELj2567483615ELm11ELj4294967295ELm7ELj2636928640ELm15ELj4022730752ELm18ELj1812433253EE8__lshiftB7v160006ILm15EEENS_9enable_ifIXltT_Lm32EEjE4typeEj, symObjAddr: 0xF58, symBinAddr: 0x100006CCC, symSize: 0x1C }
  - { offsetInCU: 0x7BB9, offset: 0x11D10, size: 0x8, addend: 0x0, symName: __ZNSt3__123mersenne_twister_engineIjLm32ELm624ELm397ELm31ELj2567483615ELm11ELj4294967295ELm7ELj2636928640ELm15ELj4022730752ELm18ELj1812433253EE8__rshiftB7v160006ILm18EEENS_9enable_ifIXltT_L_ZNS1_3_DtEEEjE4typeEj, symObjAddr: 0xF74, symBinAddr: 0x100006CE8, symSize: 0x18 }
  - { offsetInCU: 0x7BE6, offset: 0x11D3D, size: 0x8, addend: 0x0, symName: __ZNSt3__123__libcpp_numeric_limitsIjLb1EE3maxB7v160006Ev, symObjAddr: 0xFA4, symBinAddr: 0x100006D18, symSize: 0x8 }
  - { offsetInCU: 0x7BFA, offset: 0x11D51, size: 0x8, addend: 0x0, symName: __ZNSt3__19basic_iosIcNS_11char_traitsIcEEEC2B7v160006Ev, symObjAddr: 0xFAC, symBinAddr: 0x100006D20, symSize: 0x44 }
  - { offsetInCU: 0x7C24, offset: 0x11D7B, size: 0x8, addend: 0x0, symName: __ZNSt3__114basic_iostreamIcNS_11char_traitsIcEEEC2B7v160006EPNS_15basic_streambufIcS2_EE, symObjAddr: 0xFF0, symBinAddr: 0x100006D64, symSize: 0xAC }
  - { offsetInCU: 0x7C6A, offset: 0x11DC1, size: 0x8, addend: 0x0, symName: __ZNSt3__115basic_stringbufIcNS_11char_traitsIcEENS_9allocatorIcEEEC1B7v160006Ej, symObjAddr: 0x109C, symBinAddr: 0x100006E10, symSize: 0x34 }
  - { offsetInCU: 0x7CA2, offset: 0x11DF9, size: 0x8, addend: 0x0, symName: __ZNSt3__18ios_baseC2B7v160006Ev, symObjAddr: 0x10D0, symBinAddr: 0x100006E44, symSize: 0x24 }
  - { offsetInCU: 0x7CCC, offset: 0x11E23, size: 0x8, addend: 0x0, symName: __ZNSt3__113basic_istreamIcNS_11char_traitsIcEEEC2B7v160006EPNS_15basic_streambufIcS2_EE, symObjAddr: 0x10F4, symBinAddr: 0x100006E68, symSize: 0x64 }
  - { offsetInCU: 0x7D11, offset: 0x11E68, size: 0x8, addend: 0x0, symName: __ZNSt3__113basic_ostreamIcNS_11char_traitsIcEEEC2B7v160006Ev, symObjAddr: 0x1158, symBinAddr: 0x100006ECC, symSize: 0x34 }
  - { offsetInCU: 0x7D48, offset: 0x11E9F, size: 0x8, addend: 0x0, symName: __ZNSt3__19basic_iosIcNS_11char_traitsIcEEE4initB7v160006EPNS_15basic_streambufIcS2_EE, symObjAddr: 0x118C, symBinAddr: 0x100006F00, symSize: 0x44 }
  - { offsetInCU: 0x7D7F, offset: 0x11ED6, size: 0x8, addend: 0x0, symName: __ZNSt3__115basic_stringbufIcNS_11char_traitsIcEENS_9allocatorIcEEEC2B7v160006Ej, symObjAddr: 0x11D8, symBinAddr: 0x100006F44, symSize: 0x60 }
  - { offsetInCU: 0x7DB7, offset: 0x11F0E, size: 0x8, addend: 0x0, symName: __ZNSt3__112basic_stringIcNS_11char_traitsIcEENS_9allocatorIcEEEC1B7v160006Ev, symObjAddr: 0x1238, symBinAddr: 0x100006FA4, symSize: 0x2C }
  - { offsetInCU: 0x7DE1, offset: 0x11F38, size: 0x8, addend: 0x0, symName: __ZNSt3__112basic_stringIcNS_11char_traitsIcEENS_9allocatorIcEEEC2B7v160006Ev, symObjAddr: 0x1264, symBinAddr: 0x100006FD0, symSize: 0x54 }
  - { offsetInCU: 0x7E0B, offset: 0x11F62, size: 0x8, addend: 0x0, symName: __ZNSt3__112basic_stringIcNS_11char_traitsIcEENS_9allocatorIcEEE14__default_initB7v160006Ev, symObjAddr: 0x1304, symBinAddr: 0x100007024, symSize: 0x40 }
  - { offsetInCU: 0x6725, offset: 0x1871F, size: 0x8, addend: 0x0, symName: __ZNSt3__19__shuffleB7v160006INS_17_ClassicAlgPolicyENS_11__wrap_iterIP4CardEES5_RNS_23mersenne_twister_engineIjLm32ELm624ELm397ELm31ELj2567483615ELm11ELj4294967295ELm7ELj2636928640ELm15ELj4022730752ELm18ELj1812433253EEEEET0_S9_T1_OT2_, symObjAddr: 0x63DC, symBinAddr: 0x10000CB64, symSize: 0x13C }
  - { offsetInCU: 0x96E1, offset: 0x1B6DB, size: 0x8, addend: 0x0, symName: __ZNSt3__13minB7v160006ImEERKT_S3_S3_, symObjAddr: 0x50C, symBinAddr: 0x100007538, symSize: 0x2C }
  - { offsetInCU: 0xA5B6, offset: 0x1C5B0, size: 0x8, addend: 0x0, symName: __ZNSt3__17shuffleB7v160006INS_11__wrap_iterIP4CardEERNS_23mersenne_twister_engineIjLm32ELm624ELm397ELm31ELj2567483615ELm11ELj4294967295ELm7ELj2636928640ELm15ELj4022730752ELm18ELj1812433253EEEEEvT_S8_OT0_, symObjAddr: 0x91C, symBinAddr: 0x100007948, symSize: 0x48 }
  - { offsetInCU: 0xA60D, offset: 0x1C607, size: 0x8, addend: 0x0, symName: __ZNSt3__1neB7v160006IP4CardEEbRKNS_11__wrap_iterIT_EES7_, symObjAddr: 0x9C4, symBinAddr: 0x1000079F0, symSize: 0x34 }
  - { offsetInCU: 0xAEA8, offset: 0x1CEA2, size: 0x8, addend: 0x0, symName: __ZNSt3__1neB7v160006ERKNS_21__list_const_iteratorI4CardPvEES5_, symObjAddr: 0xE74, symBinAddr: 0x100007D54, symSize: 0x34 }
  - { offsetInCU: 0xAEF0, offset: 0x1CEEA, size: 0x8, addend: 0x0, symName: __ZNSt3__119__debug_db_insert_cB7v160006INS_4listI4CardNS_9allocatorIS2_EEEEEEvPT_, symObjAddr: 0x1094, symBinAddr: 0x100007EB8, symSize: 0x10 }
  - { offsetInCU: 0xAF21, offset: 0x1CF1B, size: 0x8, addend: 0x0, symName: __ZNSt3__13minB7v160006ImNS_6__lessImmEEEERKT_S5_S5_T0_, symObjAddr: 0x17A0, symBinAddr: 0x10000804C, symSize: 0x54 }
  - { offsetInCU: 0xAFB6, offset: 0x1CFB0, size: 0x8, addend: 0x0, symName: __ZNSt3__1neB7v160006ERKNS_21__hash_const_iteratorIPNS_11__hash_nodeI4CardPvEEEES8_, symObjAddr: 0x192C, symBinAddr: 0x1000081D8, symSize: 0x34 }
  - { offsetInCU: 0xAFF3, offset: 0x1CFED, size: 0x8, addend: 0x0, symName: __ZNSt3__1eqB7v160006ERKNS_21__hash_const_iteratorIPNS_11__hash_nodeI4CardPvEEEES8_, symObjAddr: 0x19D8, symBinAddr: 0x100008284, symSize: 0x30 }
  - { offsetInCU: 0xB04E, offset: 0x1D048, size: 0x8, addend: 0x0, symName: __ZNSt3__117__libcpp_allocateB7v160006Emm, symObjAddr: 0x1E14, symBinAddr: 0x1000086C0, symSize: 0x60 }
  - { offsetInCU: 0xB0A8, offset: 0x1D0A2, size: 0x8, addend: 0x0, symName: __ZNSt3__121__libcpp_operator_newB7v160006IJmSt11align_val_tEEEPvDpT_, symObjAddr: 0x1E88, symBinAddr: 0x100008734, symSize: 0x2C }
  - { offsetInCU: 0xB0F5, offset: 0x1D0EF, size: 0x8, addend: 0x0, symName: __ZNSt3__121__libcpp_operator_newB7v160006IJmEEEPvDpT_, symObjAddr: 0x1EB4, symBinAddr: 0x100008760, symSize: 0x24 }
  - { offsetInCU: 0xB161, offset: 0x1D15B, size: 0x8, addend: 0x0, symName: __ZNSt3__1eqB7v160006IP4CardEEbRKNS_11__wrap_iterIT_EES7_, symObjAddr: 0x2208, symBinAddr: 0x100008AB4, symSize: 0x48 }
  - { offsetInCU: 0xB1A4, offset: 0x1D19E, size: 0x8, addend: 0x0, symName: __ZNSt3__119__debug_db_insert_cB7v160006INS_13unordered_setI4Card8CardHashNS_8equal_toIS2_EENS_9allocatorIS2_EEEEEEvPT_, symObjAddr: 0x2480, symBinAddr: 0x100008C08, symSize: 0x10 }
  - { offsetInCU: 0xB1D5, offset: 0x1D1CF, size: 0x8, addend: 0x0, symName: __ZNSt3__118__debug_db_erase_cB7v160006INS_12__hash_tableI4Card8CardHashNS_8equal_toIS2_EENS_9allocatorIS2_EEEEEEvPT_, symObjAddr: 0x2B84, symBinAddr: 0x10000930C, symSize: 0x10 }
  - { offsetInCU: 0xB206, offset: 0x1D200, size: 0x8, addend: 0x0, symName: __ZNSt3__116__constrain_hashB7v160006Emm, symObjAddr: 0x34F8, symBinAddr: 0x100009C80, symSize: 0x98 }
  - { offsetInCU: 0xB240, offset: 0x1D23A, size: 0x8, addend: 0x0, symName: __ZNSt3__13maxB7v160006ImEERKT_S3_S3_, symObjAddr: 0x37EC, symBinAddr: 0x100009F74, symSize: 0x2C }
  - { offsetInCU: 0xB283, offset: 0x1D27D, size: 0x8, addend: 0x0, symName: __ZNSt3__116__is_hash_power2B7v160006Em, symObjAddr: 0x3818, symBinAddr: 0x100009FA0, symSize: 0x50 }
  - { offsetInCU: 0xB2CD, offset: 0x1D2C7, size: 0x8, addend: 0x0, symName: __ZNSt3__116__next_hash_pow2B7v160006Em, symObjAddr: 0x4314, symBinAddr: 0x10000AA9C, symSize: 0x6C }
  - { offsetInCU: 0xB2F9, offset: 0x1D2F3, size: 0x8, addend: 0x0, symName: __ZNSt3__125__debug_db_invalidate_allB7v160006INS_12__hash_tableI4Card8CardHashNS_8equal_toIS2_EENS_9allocatorIS2_EEEEEEvPT_, symObjAddr: 0x4380, symBinAddr: 0x10000AB08, symSize: 0x10 }
  - { offsetInCU: 0xB32A, offset: 0x1D324, size: 0x8, addend: 0x0, symName: __ZNSt3__112__libcpp_clzB7v160006Em, symObjAddr: 0x44E8, symBinAddr: 0x10000AC70, symSize: 0x1C }
  - { offsetInCU: 0xB356, offset: 0x1D350, size: 0x8, addend: 0x0, symName: __ZNSt3__13maxB7v160006ImNS_6__lessImmEEEERKT_S5_S5_T0_, symObjAddr: 0x4504, symBinAddr: 0x10000AC8C, symSize: 0x54 }
  - { offsetInCU: 0xB3B0, offset: 0x1D3AA, size: 0x8, addend: 0x0, symName: __ZNSt3__119__debug_db_insert_cB7v160006INS_6vectorI4CardNS_9allocatorIS2_EEEEEEvPT_, symObjAddr: 0x48F4, symBinAddr: 0x10000B07C, symSize: 0x10 }
  - { offsetInCU: 0xB3E1, offset: 0x1D3DB, size: 0x8, addend: 0x0, symName: __ZNSt3__118__debug_db_erase_cB7v160006INS_6vectorI4CardNS_9allocatorIS2_EEEEEEvPT_, symObjAddr: 0x4BD4, symBinAddr: 0x10000B35C, symSize: 0x10 }
  - { offsetInCU: 0xB412, offset: 0x1D40C, size: 0x8, addend: 0x0, symName: __ZNSt3__112__to_addressB7v160006I4CardEEPT_S3_, symObjAddr: 0x4D18, symBinAddr: 0x10000B4A0, symSize: 0x14 }
  - { offsetInCU: 0xB631, offset: 0x1D62B, size: 0x8, addend: 0x0, symName: __ZNSt3__120__throw_length_errorB7v160006EPKc, symObjAddr: 0x5544, symBinAddr: 0x10000BCCC, symSize: 0x64 }
  - { offsetInCU: 0xB65A, offset: 0x1D654, size: 0x8, addend: 0x0, symName: __ZNSt3__119__allocate_at_leastB7v160006INS_9allocatorI4CardEEEENS_19__allocation_resultINS_16allocator_traitsIT_E7pointerEEERS6_m, symObjAddr: 0x5744, symBinAddr: 0x10000BECC, symSize: 0x40 }
  - { offsetInCU: 0xB69D, offset: 0x1D697, size: 0x8, addend: 0x0, symName: __ZNSt3__142__uninitialized_allocator_move_if_noexceptB7v160006INS_9allocatorI4CardEENS_16reverse_iteratorIPS2_EES6_S2_vEET1_RT_T0_SA_S7_, symObjAddr: 0x58FC, symBinAddr: 0x10000C084, symSize: 0x78 }
  - { offsetInCU: 0xB71B, offset: 0x1D715, size: 0x8, addend: 0x0, symName: __ZNSt3__14swapB7v160006IP4CardEENS_9enable_ifIXaasr21is_move_constructibleIT_EE5valuesr18is_move_assignableIS4_EE5valueEvE4typeERS4_S7_, symObjAddr: 0x59C0, symBinAddr: 0x10000C148, symSize: 0x3C }
  - { offsetInCU: 0xB76D, offset: 0x1D767, size: 0x8, addend: 0x0, symName: __ZNSt3__125__debug_db_invalidate_allB7v160006INS_6vectorI4CardNS_9allocatorIS2_EEEEEEvPT_, symObjAddr: 0x5AC4, symBinAddr: 0x10000C24C, symSize: 0x10 }
  - { offsetInCU: 0xB79E, offset: 0x1D798, size: 0x8, addend: 0x0, symName: __ZNSt3__14moveB7v160006INS_16reverse_iteratorIP4CardEES4_EET0_T_S6_S5_, symObjAddr: 0x5AD4, symBinAddr: 0x10000C25C, symSize: 0x78 }
  - { offsetInCU: 0xB7F8, offset: 0x1D7F2, size: 0x8, addend: 0x0, symName: __ZNSt3__16__moveB7v160006INS_17_ClassicAlgPolicyENS_16reverse_iteratorIP4CardEES5_S5_EENS_4pairIT0_T2_EES7_T1_S8_, symObjAddr: 0x5B4C, symBinAddr: 0x10000C2D4, symSize: 0x64 }
  - { offsetInCU: 0xB864, offset: 0x1D85E, size: 0x8, addend: 0x0, symName: __ZNSt3__123__dispatch_copy_or_moveB7v160006INS_17_ClassicAlgPolicyENS_11__move_loopIS1_EENS_14__move_trivialENS_16reverse_iteratorIP4CardEES8_S8_EENS_4pairIT2_T4_EESA_T3_SB_, symObjAddr: 0x5BB0, symBinAddr: 0x10000C338, symSize: 0x64 }
  - { offsetInCU: 0xB8E2, offset: 0x1D8DC, size: 0x8, addend: 0x0, symName: __ZNSt3__121__unwrap_and_dispatchB7v160006INS_10__overloadINS_11__move_loopINS_17_ClassicAlgPolicyEEENS_14__move_trivialEEENS_16reverse_iteratorIP4CardEESA_SA_Li0EEENS_4pairIT0_T2_EESC_T1_SD_, symObjAddr: 0x5C14, symBinAddr: 0x10000C39C, symSize: 0x12C }
  - { offsetInCU: 0xB975, offset: 0x1D96F, size: 0x8, addend: 0x0, symName: __ZNSt3__114__unwrap_rangeB7v160006INS_16reverse_iteratorIP4CardEES4_EENS_4pairIT0_S6_EET_S8_, symObjAddr: 0x5D40, symBinAddr: 0x10000C4C8, symSize: 0x84 }
  - { offsetInCU: 0xBAF0, offset: 0x1DAEA, size: 0x8, addend: 0x0, symName: __ZNSt3__113__unwrap_iterB7v160006INS_16reverse_iteratorIP4CardEENS_18__unwrap_iter_implIS4_Lb0EEELi0EEEDTclsrT0_8__unwrapclsr3stdE7declvalIT_EEEES8_, symObjAddr: 0x5E6C, symBinAddr: 0x10000C5F4, symSize: 0x44 }
  - { offsetInCU: 0xBB35, offset: 0x1DB2F, size: 0x8, addend: 0x0, symName: __ZNSt3__19make_pairB7v160006INS_16reverse_iteratorIP4CardEES4_EENS_4pairINS_18__unwrap_ref_decayIT_E4typeENS6_IT0_E4typeEEEOS7_OSA_, symObjAddr: 0x5EB0, symBinAddr: 0x10000C638, symSize: 0x38 }
  - { offsetInCU: 0xBB84, offset: 0x1DB7E, size: 0x8, addend: 0x0, symName: __ZNSt3__114__rewrap_rangeB7v160006INS_16reverse_iteratorIP4CardEES4_EET_S5_T0_, symObjAddr: 0x5EE8, symBinAddr: 0x10000C670, symSize: 0x5C }
  - { offsetInCU: 0xBBD0, offset: 0x1DBCA, size: 0x8, addend: 0x0, symName: __ZNSt3__113__rewrap_iterB7v160006INS_16reverse_iteratorIP4CardEES4_NS_18__unwrap_iter_implIS4_Lb0EEEEET_S7_T0_, symObjAddr: 0x5F44, symBinAddr: 0x10000C6CC, symSize: 0x74 }
  - { offsetInCU: 0xBC25, offset: 0x1DC1F, size: 0x8, addend: 0x0, symName: __ZNSt3__1neB7v160006IP4CardS2_EEbRKNS_16reverse_iteratorIT_EERKNS3_IT0_EE, symObjAddr: 0x5FB8, symBinAddr: 0x10000C740, symSize: 0x48 }
  - { offsetInCU: 0xBD6F, offset: 0x1DD69, size: 0x8, addend: 0x0, symName: __ZNSt3__1miB7v160006IP4CardS2_EEDTmicldtfp_4baseEcldtfp0_4baseEERKNS_11__wrap_iterIT_EERKNS4_IT0_EE, symObjAddr: 0x6538, symBinAddr: 0x10000CCC0, symSize: 0x48 }
  - { offsetInCU: 0xBDBB, offset: 0x1DDB5, size: 0x8, addend: 0x0, symName: __ZNSt3__1ltB7v160006IP4CardEEbRKNS_11__wrap_iterIT_EES7_, symObjAddr: 0x65DC, symBinAddr: 0x10000CD64, symSize: 0x48 }
  - { offsetInCU: 0xBDFE, offset: 0x1DDF8, size: 0x8, addend: 0x0, symName: __ZNSt3__113__countl_zeroB7v160006ImEEiT_, symObjAddr: 0x695C, symBinAddr: 0x10000D0E4, symSize: 0x54 }
  - { offsetInCU: 0xBE33, offset: 0x1DE2D, size: 0x8, addend: 0x0, symName: __ZNSt3__19iter_swapB7v160006INS_11__wrap_iterIP4CardEES4_EEvT_T0_, symObjAddr: 0x7020, symBinAddr: 0x10000D5DC, symSize: 0x50 }
  - { offsetInCU: 0xBE7C, offset: 0x1DE76, size: 0x8, addend: 0x0, symName: __ZNSt3__14swapB7v160006I4CardEENS_9enable_ifIXaasr21is_move_constructibleIT_EE5valuesr18is_move_assignableIS3_EE5valueEvE4typeERS3_S6_, symObjAddr: 0x7070, symBinAddr: 0x10000D62C, symSize: 0x54 }
  - { offsetInCU: 0xBECE, offset: 0x1DEC8, size: 0x8, addend: 0x0, symName: __ZNSt3__1eqB7v160006ERKNS_21__list_const_iteratorI4CardPvEES5_, symObjAddr: 0x8034, symBinAddr: 0x10000D77C, symSize: 0x30 }
  - { offsetInCU: 0xC1A3, offset: 0x1E19D, size: 0x8, addend: 0x0, symName: __ZSt28__throw_bad_array_new_lengthB7v160006v, symObjAddr: 0x1DE0, symBinAddr: 0x10000868C, symSize: 0x34 }
  - { offsetInCU: 0xC98E, offset: 0x1E988, size: 0x8, addend: 0x0, symName: __ZNSt3__16vectorI4CardNS_9allocatorIS1_EEE26__swap_out_circular_bufferERNS_14__split_bufferIS1_RS3_EE, symObjAddr: 0x52CC, symBinAddr: 0x10000BA54, symSize: 0x118 }
  - { offsetInCU: 0xCA0D, offset: 0x1EA07, size: 0x8, addend: 0x0, symName: __ZNSt3__124uniform_int_distributionIlEclINS_23mersenne_twister_engineIjLm32ELm624ELm397ELm31ELj2567483615ELm11ELj4294967295ELm7ELj2636928640ELm15ELj4022730752ELm18ELj1812433253EEEEElRT_RKNS1_10param_typeE, symObjAddr: 0x6624, symBinAddr: 0x10000CDAC, symSize: 0x174 }
  - { offsetInCU: 0xEAF3, offset: 0x20AED, size: 0x8, addend: 0x0, symName: __ZN8CardDeck16create_full_deckEb, symObjAddr: 0x0, symBinAddr: 0x100007064, symSize: 0x11C }
  - { offsetInCU: 0xEB52, offset: 0x20B4C, size: 0x8, addend: 0x0, symName: __ZN8CardDeckC1Ev, symObjAddr: 0x11C, symBinAddr: 0x100007180, symSize: 0x2C }
  - { offsetInCU: 0xEB7E, offset: 0x20B78, size: 0x8, addend: 0x0, symName: __ZNSt3__14listI4CardNS_9allocatorIS1_EEE9push_backEOS1_, symObjAddr: 0x148, symBinAddr: 0x1000071AC, symSize: 0xEC }
  - { offsetInCU: 0xEBD3, offset: 0x20BCD, size: 0x8, addend: 0x0, symName: __ZN8CardDeck17create_empty_deckEv, symObjAddr: 0x26C, symBinAddr: 0x100007298, symSize: 0x34 }
  - { offsetInCU: 0xEBE9, offset: 0x20BE3, size: 0x8, addend: 0x0, symName: __ZN8CardDeck18create_random_deckERNSt3__123mersenne_twister_engineIjLm32ELm624ELm397ELm31ELj2567483615ELm11ELj4294967295ELm7ELj2636928640ELm15ELj4022730752ELm18ELj1812433253EEEmb, symObjAddr: 0x2A0, symBinAddr: 0x1000072CC, symSize: 0x114 }
  - { offsetInCU: 0xEC3A, offset: 0x20C34, size: 0x8, addend: 0x0, symName: __ZN8CardDeck25create_random_unique_deckERNSt3__123mersenne_twister_engineIjLm32ELm624ELm397ELm31ELj2567483615ELm11ELj4294967295ELm7ELj2636928640ELm15ELj4022730752ELm18ELj1812433253EEEmb, symObjAddr: 0x3B4, symBinAddr: 0x1000073E0, symSize: 0x158 }
  - { offsetInCU: 0xEDA8, offset: 0x20DA2, size: 0x8, addend: 0x0, symName: __ZNSt3__113unordered_setI4Card8CardHashNS_8equal_toIS1_EENS_9allocatorIS1_EEEC1B7v160006Ev, symObjAddr: 0x538, symBinAddr: 0x100007564, symSize: 0x2C }
  - { offsetInCU: 0xEDD2, offset: 0x20DCC, size: 0x8, addend: 0x0, symName: __ZNSt3__113unordered_setI4Card8CardHashNS_8equal_toIS1_EENS_9allocatorIS1_EEE6insertB7v160006EOS1_, symObjAddr: 0x564, symBinAddr: 0x100007590, symSize: 0x4C }
  - { offsetInCU: 0xEE07, offset: 0x20E01, size: 0x8, addend: 0x0, symName: __ZNSt3__113unordered_setI4Card8CardHashNS_8equal_toIS1_EENS_9allocatorIS1_EEE5beginB7v160006Ev, symObjAddr: 0x5B0, symBinAddr: 0x1000075DC, symSize: 0x38 }
  - { offsetInCU: 0xEE2D, offset: 0x20E27, size: 0x8, addend: 0x0, symName: __ZNSt3__113unordered_setI4Card8CardHashNS_8equal_toIS1_EENS_9allocatorIS1_EEE3endB7v160006Ev, symObjAddr: 0x5E8, symBinAddr: 0x100007614, symSize: 0x38 }
  - { offsetInCU: 0xEE58, offset: 0x20E52, size: 0x8, addend: 0x0, symName: __ZN8CardDeckCI1NSt3__14listI4CardNS0_9allocatorIS2_EEEEINS0_21__hash_const_iteratorIPNS0_11__hash_nodeIS2_PvEEEEEET_SB_PNS0_9enable_ifIXsr25__is_cpp17_input_iteratorISB_EE5valueEvE4typeE, symObjAddr: 0x620, symBinAddr: 0x10000764C, symSize: 0x44 }
  - { offsetInCU: 0xEE9F, offset: 0x20E99, size: 0x8, addend: 0x0, symName: __ZNSt3__113unordered_setI4Card8CardHashNS_8equal_toIS1_EENS_9allocatorIS1_EEED1B7v160006Ev, symObjAddr: 0x664, symBinAddr: 0x100007690, symSize: 0x2C }
  - { offsetInCU: 0xEEC9, offset: 0x20EC3, size: 0x8, addend: 0x0, symName: __ZN8CardDeck7shuffleERNSt3__123mersenne_twister_engineIjLm32ELm624ELm397ELm31ELj2567483615ELm11ELj4294967295ELm7ELj2636928640ELm15ELj4022730752ELm18ELj1812433253EEE, symObjAddr: 0x690, symBinAddr: 0x1000076BC, symSize: 0x11C }
  - { offsetInCU: 0xEF60, offset: 0x20F5A, size: 0x8, addend: 0x0, symName: __ZNSt3__16vectorI4CardNS_9allocatorIS1_EEEC1B7v160006Ev, symObjAddr: 0x7AC, symBinAddr: 0x1000077D8, symSize: 0x2C }
  - { offsetInCU: 0xEF8A, offset: 0x20F84, size: 0x8, addend: 0x0, symName: __ZNKSt3__14listI4CardNS_9allocatorIS1_EEE5emptyB7v160006Ev, symObjAddr: 0x7D8, symBinAddr: 0x100007804, symSize: 0x28 }
  - { offsetInCU: 0xEFB0, offset: 0x20FAA, size: 0x8, addend: 0x0, symName: __ZNSt3__16vectorI4CardNS_9allocatorIS1_EEE9push_backB7v160006ERKS1_, symObjAddr: 0x800, symBinAddr: 0x10000782C, symSize: 0x6C }
  - { offsetInCU: 0xEFE7, offset: 0x20FE1, size: 0x8, addend: 0x0, symName: __ZNSt3__14listI4CardNS_9allocatorIS1_EEE4backB7v160006Ev, symObjAddr: 0x86C, symBinAddr: 0x100007898, symSize: 0x2C }
  - { offsetInCU: 0xF00D, offset: 0x21007, size: 0x8, addend: 0x0, symName: __ZNSt3__14listI4CardNS_9allocatorIS1_EEE8pop_backEv, symObjAddr: 0x898, symBinAddr: 0x1000078C4, symSize: 0x84 }
  - { offsetInCU: 0xF062, offset: 0x2105C, size: 0x8, addend: 0x0, symName: __ZNSt3__16vectorI4CardNS_9allocatorIS1_EEE5beginB7v160006Ev, symObjAddr: 0x964, symBinAddr: 0x100007990, symSize: 0x30 }
  - { offsetInCU: 0xF08A, offset: 0x21084, size: 0x8, addend: 0x0, symName: __ZNSt3__16vectorI4CardNS_9allocatorIS1_EEE3endB7v160006Ev, symObjAddr: 0x994, symBinAddr: 0x1000079C0, symSize: 0x30 }
  - { offsetInCU: 0xF0B2, offset: 0x210AC, size: 0x8, addend: 0x0, symName: __ZNKSt3__111__wrap_iterIP4CardEdeB7v160006Ev, symObjAddr: 0x9F8, symBinAddr: 0x100007A24, symSize: 0x18 }
  - { offsetInCU: 0xF0D8, offset: 0x210D2, size: 0x8, addend: 0x0, symName: __ZNSt3__14listI4CardNS_9allocatorIS1_EEE9push_backERKS1_, symObjAddr: 0xA10, symBinAddr: 0x100007A3C, symSize: 0xEC }
  - { offsetInCU: 0xF12D, offset: 0x21127, size: 0x8, addend: 0x0, symName: __ZNSt3__111__wrap_iterIP4CardEppB7v160006Ev, symObjAddr: 0xAFC, symBinAddr: 0x100007B28, symSize: 0x20 }
  - { offsetInCU: 0xF153, offset: 0x2114D, size: 0x8, addend: 0x0, symName: __ZNSt3__16vectorI4CardNS_9allocatorIS1_EEED1B7v160006Ev, symObjAddr: 0xB1C, symBinAddr: 0x100007B48, symSize: 0x2C }
  - { offsetInCU: 0xF17C, offset: 0x21176, size: 0x8, addend: 0x0, symName: __Z9to_stringRK8CardDeck, symObjAddr: 0xB48, symBinAddr: 0x100007B74, symSize: 0x1B4 }
  - { offsetInCU: 0xF298, offset: 0x21292, size: 0x8, addend: 0x0, symName: __ZNKSt3__14listI4CardNS_9allocatorIS1_EEE5beginB7v160006Ev, symObjAddr: 0xE48, symBinAddr: 0x100007D28, symSize: 0x2C }
  - { offsetInCU: 0xF2BE, offset: 0x212B8, size: 0x8, addend: 0x0, symName: __ZNKSt3__14listI4CardNS_9allocatorIS1_EEE3endB7v160006Ev, symObjAddr: 0xEA8, symBinAddr: 0x100007D88, symSize: 0x2C }
  - { offsetInCU: 0xF2E4, offset: 0x212DE, size: 0x8, addend: 0x0, symName: __ZNKSt3__121__list_const_iteratorI4CardPvEdeB7v160006Ev, symObjAddr: 0xF20, symBinAddr: 0x100007DB4, symSize: 0x2C }
  - { offsetInCU: 0xF30A, offset: 0x21304, size: 0x8, addend: 0x0, symName: __ZNSt3__121__list_const_iteratorI4CardPvEppB7v160006Ev, symObjAddr: 0xF4C, symBinAddr: 0x100007DE0, symSize: 0x20 }
  - { offsetInCU: 0xF335, offset: 0x2132F, size: 0x8, addend: 0x0, symName: __ZN8CardDeckC2Ev, symObjAddr: 0xFDC, symBinAddr: 0x100007E00, symSize: 0x2C }
  - { offsetInCU: 0xF361, offset: 0x2135B, size: 0x8, addend: 0x0, symName: __ZNSt3__14listI4CardNS_9allocatorIS1_EEEC2B7v160006Ev, symObjAddr: 0x1008, symBinAddr: 0x100007E2C, symSize: 0x3C }
  - { offsetInCU: 0xF38B, offset: 0x21385, size: 0x8, addend: 0x0, symName: __ZNSt3__110__list_impI4CardNS_9allocatorIS1_EEEC2Ev, symObjAddr: 0x1044, symBinAddr: 0x100007E68, symSize: 0x50 }
  - { offsetInCU: 0xF3B7, offset: 0x213B1, size: 0x8, addend: 0x0, symName: __ZNSt3__116__list_node_baseI4CardPvEC1B7v160006Ev, symObjAddr: 0x10A4, symBinAddr: 0x100007EC8, symSize: 0x2C }
  - { offsetInCU: 0xF3EB, offset: 0x213E5, size: 0x8, addend: 0x0, symName: __ZNSt3__117__compressed_pairImNS_9allocatorINS_11__list_nodeI4CardPvEEEEEC1B7v160006IiNS_18__default_init_tagEEEOT_OT0_, symObjAddr: 0x10D0, symBinAddr: 0x100007EF4, symSize: 0x3C }
  - { offsetInCU: 0xF443, offset: 0x2143D, size: 0x8, addend: 0x0, symName: __ZNSt3__116__list_node_baseI4CardPvEC2B7v160006Ev, symObjAddr: 0x110C, symBinAddr: 0x100007F30, symSize: 0x4C }
  - { offsetInCU: 0xF46D, offset: 0x21467, size: 0x8, addend: 0x0, symName: __ZNSt3__117__compressed_pairImNS_9allocatorINS_11__list_nodeI4CardPvEEEEEC2B7v160006IiNS_18__default_init_tagEEEOT_OT0_, symObjAddr: 0x11A4, symBinAddr: 0x100007F7C, symSize: 0x40 }
  - { offsetInCU: 0xF4C5, offset: 0x214BF, size: 0x8, addend: 0x0, symName: __ZNSt3__122__compressed_pair_elemImLi0ELb0EEC2B7v160006IivEEOT_, symObjAddr: 0x11E4, symBinAddr: 0x100007FBC, symSize: 0x24 }
  - { offsetInCU: 0xF507, offset: 0x21501, size: 0x8, addend: 0x0, symName: __ZNSt3__122__compressed_pair_elemINS_9allocatorINS_11__list_nodeI4CardPvEEEELi1ELb1EEC2B7v160006ENS_18__default_init_tagE, symObjAddr: 0x1208, symBinAddr: 0x100007FE0, symSize: 0x2C }
  - { offsetInCU: 0xF53C, offset: 0x21536, size: 0x8, addend: 0x0, symName: __ZNSt3__19allocatorINS_11__list_nodeI4CardPvEEEC2B7v160006Ev, symObjAddr: 0x1234, symBinAddr: 0x10000800C, symSize: 0x2C }
  - { offsetInCU: 0xF566, offset: 0x21560, size: 0x8, addend: 0x0, symName: __ZNSt3__116__non_trivial_ifILb1ENS_9allocatorINS_11__list_nodeI4CardPvEEEEEC2B7v160006Ev, symObjAddr: 0x1260, symBinAddr: 0x100008038, symSize: 0x14 }
  - { offsetInCU: 0xF59A, offset: 0x21594, size: 0x8, addend: 0x0, symName: __ZNKSt3__16__lessImmEclB7v160006ERKmS3_, symObjAddr: 0x17F4, symBinAddr: 0x1000080A0, symSize: 0x34 }
  - { offsetInCU: 0xF5DC, offset: 0x215D6, size: 0x8, addend: 0x0, symName: __ZN8CardDeckCI2NSt3__14listI4CardNS0_9allocatorIS2_EEEEINS0_21__hash_const_iteratorIPNS0_11__hash_nodeIS2_PvEEEEEET_SB_PNS0_9enable_ifIXsr25__is_cpp17_input_iteratorISB_EE5valueEvE4typeE, symObjAddr: 0x1828, symBinAddr: 0x1000080D4, symSize: 0x44 }
  - { offsetInCU: 0xF623, offset: 0x2161D, size: 0x8, addend: 0x0, symName: __ZNSt3__14listI4CardNS_9allocatorIS1_EEEC2INS_21__hash_const_iteratorIPNS_11__hash_nodeIS1_PvEEEEEET_SC_PNS_9enable_ifIXsr25__is_cpp17_input_iteratorISC_EE5valueEvE4typeE, symObjAddr: 0x186C, symBinAddr: 0x100008118, symSize: 0xC0 }
  - { offsetInCU: 0xF682, offset: 0x2167C, size: 0x8, addend: 0x0, symName: __ZNSt3__14listI4CardNS_9allocatorIS1_EEE14__emplace_backB7v160006IRKS1_EEvOT_, symObjAddr: 0x1960, symBinAddr: 0x10000820C, symSize: 0x2C }
  - { offsetInCU: 0xF6C0, offset: 0x216BA, size: 0x8, addend: 0x0, symName: __ZNKSt3__121__hash_const_iteratorIPNS_11__hash_nodeI4CardPvEEEdeB7v160006Ev, symObjAddr: 0x198C, symBinAddr: 0x100008238, symSize: 0x2C }
  - { offsetInCU: 0xF6E6, offset: 0x216E0, size: 0x8, addend: 0x0, symName: __ZNSt3__121__hash_const_iteratorIPNS_11__hash_nodeI4CardPvEEEppB7v160006Ev, symObjAddr: 0x19B8, symBinAddr: 0x100008264, symSize: 0x20 }
  - { offsetInCU: 0xF70C, offset: 0x21706, size: 0x8, addend: 0x0, symName: __ZNSt3__14listI4CardNS_9allocatorIS1_EEE12emplace_backIJRKS1_EEERS1_DpOT_, symObjAddr: 0x1A08, symBinAddr: 0x1000082B4, symSize: 0xF8 }
  - { offsetInCU: 0xF77B, offset: 0x21775, size: 0x8, addend: 0x0, symName: __ZNSt3__14listI4CardNS_9allocatorIS1_EEE15__allocate_nodeB7v160006ERNS2_INS_11__list_nodeIS1_PvEEEE, symObjAddr: 0x1B00, symBinAddr: 0x1000083AC, symSize: 0x70 }
  - { offsetInCU: 0xF7BF, offset: 0x217B9, size: 0x8, addend: 0x0, symName: __ZNSt3__116allocator_traitsINS_9allocatorINS_11__list_nodeI4CardPvEEEEE9constructB7v160006IS3_JRKS3_EvEEvRS6_PT_DpOT0_, symObjAddr: 0x1B70, symBinAddr: 0x10000841C, symSize: 0x34 }
  - { offsetInCU: 0xF816, offset: 0x21810, size: 0x8, addend: 0x0, symName: __ZNKSt3__110unique_ptrINS_11__list_nodeI4CardPvEENS_22__allocator_destructorINS_9allocatorIS4_EEEEEptB7v160006Ev, symObjAddr: 0x1BA4, symBinAddr: 0x100008450, symSize: 0x28 }
  - { offsetInCU: 0xF83C, offset: 0x21836, size: 0x8, addend: 0x0, symName: __ZNSt3__111__list_nodeI4CardPvE9__as_linkB7v160006Ev, symObjAddr: 0x1BCC, symBinAddr: 0x100008478, symSize: 0x24 }
  - { offsetInCU: 0xF862, offset: 0x2185C, size: 0x8, addend: 0x0, symName: __ZNSt3__14listI4CardNS_9allocatorIS1_EEE20__link_nodes_at_backEPNS_16__list_node_baseIS1_PvEES8_, symObjAddr: 0x1BF0, symBinAddr: 0x10000849C, symSize: 0x60 }
  - { offsetInCU: 0xF8A8, offset: 0x218A2, size: 0x8, addend: 0x0, symName: __ZNSt3__110unique_ptrINS_11__list_nodeI4CardPvEENS_22__allocator_destructorINS_9allocatorIS4_EEEEE7releaseB7v160006Ev, symObjAddr: 0x1C50, symBinAddr: 0x1000084FC, symSize: 0x44 }
  - { offsetInCU: 0xF8DD, offset: 0x218D7, size: 0x8, addend: 0x0, symName: __ZNSt3__110unique_ptrINS_11__list_nodeI4CardPvEENS_22__allocator_destructorINS_9allocatorIS4_EEEEED1B7v160006Ev, symObjAddr: 0x1C94, symBinAddr: 0x100008540, symSize: 0x2C }
  - { offsetInCU: 0xF907, offset: 0x21901, size: 0x8, addend: 0x0, symName: __ZNSt3__116allocator_traitsINS_9allocatorINS_11__list_nodeI4CardPvEEEEE8allocateB7v160006ERS6_m, symObjAddr: 0x1CC0, symBinAddr: 0x10000856C, symSize: 0x2C }
  - { offsetInCU: 0xF93A, offset: 0x21934, size: 0x8, addend: 0x0, symName: __ZNSt3__122__allocator_destructorINS_9allocatorINS_11__list_nodeI4CardPvEEEEEC1B7v160006ERS6_m, symObjAddr: 0x1CEC, symBinAddr: 0x100008598, symSize: 0x3C }
  - { offsetInCU: 0xF985, offset: 0x2197F, size: 0x8, addend: 0x0, symName: __ZNSt3__110unique_ptrINS_11__list_nodeI4CardPvEENS_22__allocator_destructorINS_9allocatorIS4_EEEEEC1B7v160006ILb1EvEEPS4_NS_16__dependent_typeINS_27__unique_ptr_deleter_sfinaeIS8_EEXT_EE20__good_rval_ref_typeE, symObjAddr: 0x1D28, symBinAddr: 0x1000085D4, symSize: 0x3C }
  - { offsetInCU: 0xF9D6, offset: 0x219D0, size: 0x8, addend: 0x0, symName: __ZNSt3__19allocatorINS_11__list_nodeI4CardPvEEE8allocateB7v160006Em, symObjAddr: 0x1D64, symBinAddr: 0x100008610, symSize: 0x58 }
  - { offsetInCU: 0xFA14, offset: 0x21A0E, size: 0x8, addend: 0x0, symName: __ZNSt3__116allocator_traitsINS_9allocatorINS_11__list_nodeI4CardPvEEEEE8max_sizeB7v160006IS6_vEEmRKS6_, symObjAddr: 0x1DBC, symBinAddr: 0x100008668, symSize: 0x24 }
  - { offsetInCU: 0xFA42, offset: 0x21A3C, size: 0x8, addend: 0x0, symName: __ZNKSt3__19allocatorINS_11__list_nodeI4CardPvEEE8max_sizeB7v160006Ev, symObjAddr: 0x1E74, symBinAddr: 0x100008720, symSize: 0x14 }
  - { offsetInCU: 0xFA68, offset: 0x21A62, size: 0x8, addend: 0x0, symName: __ZNSt3__122__allocator_destructorINS_9allocatorINS_11__list_nodeI4CardPvEEEEEC2B7v160006ERS6_m, symObjAddr: 0x1ED8, symBinAddr: 0x100008784, symSize: 0x2C }
  - { offsetInCU: 0xFAAE, offset: 0x21AA8, size: 0x8, addend: 0x0, symName: __ZNSt3__110unique_ptrINS_11__list_nodeI4CardPvEENS_22__allocator_destructorINS_9allocatorIS4_EEEEEC2B7v160006ILb1EvEEPS4_NS_16__dependent_typeINS_27__unique_ptr_deleter_sfinaeIS8_EEXT_EE20__good_rval_ref_typeE, symObjAddr: 0x1F04, symBinAddr: 0x1000087B0, symSize: 0x48 }
  - { offsetInCU: 0xFAFF, offset: 0x21AF9, size: 0x8, addend: 0x0, symName: __ZNSt3__117__compressed_pairIPNS_11__list_nodeI4CardPvEENS_22__allocator_destructorINS_9allocatorIS4_EEEEEC1B7v160006IRS5_S9_EEOT_OT0_, symObjAddr: 0x1F4C, symBinAddr: 0x1000087F8, symSize: 0x3C }
  - { offsetInCU: 0xFB57, offset: 0x21B51, size: 0x8, addend: 0x0, symName: __ZNSt3__117__compressed_pairIPNS_11__list_nodeI4CardPvEENS_22__allocator_destructorINS_9allocatorIS4_EEEEEC2B7v160006IRS5_S9_EEOT_OT0_, symObjAddr: 0x1F88, symBinAddr: 0x100008834, symSize: 0x48 }
  - { offsetInCU: 0xFBAF, offset: 0x21BA9, size: 0x8, addend: 0x0, symName: __ZNSt3__122__compressed_pair_elemIPNS_11__list_nodeI4CardPvEELi0ELb0EEC2B7v160006IRS5_vEEOT_, symObjAddr: 0x1FD0, symBinAddr: 0x10000887C, symSize: 0x24 }
  - { offsetInCU: 0xFBF1, offset: 0x21BEB, size: 0x8, addend: 0x0, symName: __ZNSt3__122__compressed_pair_elemINS_22__allocator_destructorINS_9allocatorINS_11__list_nodeI4CardPvEEEEEELi1ELb0EEC2B7v160006IS8_vEEOT_, symObjAddr: 0x1FF4, symBinAddr: 0x1000088A0, symSize: 0x24 }
  - { offsetInCU: 0xFC33, offset: 0x21C2D, size: 0x8, addend: 0x0, symName: __ZNSt3__19allocatorINS_11__list_nodeI4CardPvEEE9constructB7v160006IS2_JRKS2_EEEvPT_DpOT0_, symObjAddr: 0x2018, symBinAddr: 0x1000088C4, symSize: 0x30 }
  - { offsetInCU: 0xFC89, offset: 0x21C83, size: 0x8, addend: 0x0, symName: __ZNKSt3__117__compressed_pairIPNS_11__list_nodeI4CardPvEENS_22__allocator_destructorINS_9allocatorIS4_EEEEE5firstB7v160006Ev, symObjAddr: 0x2048, symBinAddr: 0x1000088F4, symSize: 0x24 }
  - { offsetInCU: 0xFCAF, offset: 0x21CA9, size: 0x8, addend: 0x0, symName: __ZNKSt3__122__compressed_pair_elemIPNS_11__list_nodeI4CardPvEELi0ELb0EE5__getB7v160006Ev, symObjAddr: 0x206C, symBinAddr: 0x100008918, symSize: 0x14 }
  - { offsetInCU: 0xFCD5, offset: 0x21CCF, size: 0x8, addend: 0x0, symName: __ZNSt3__117__compressed_pairIPNS_11__list_nodeI4CardPvEENS_22__allocator_destructorINS_9allocatorIS4_EEEEE5firstB7v160006Ev, symObjAddr: 0x2080, symBinAddr: 0x10000892C, symSize: 0x24 }
  - { offsetInCU: 0xFCFB, offset: 0x21CF5, size: 0x8, addend: 0x0, symName: __ZNSt3__122__compressed_pair_elemIPNS_11__list_nodeI4CardPvEELi0ELb0EE5__getB7v160006Ev, symObjAddr: 0x20A4, symBinAddr: 0x100008950, symSize: 0x14 }
  - { offsetInCU: 0xFD21, offset: 0x21D1B, size: 0x8, addend: 0x0, symName: __ZNSt3__110unique_ptrINS_11__list_nodeI4CardPvEENS_22__allocator_destructorINS_9allocatorIS4_EEEEED2B7v160006Ev, symObjAddr: 0x20B8, symBinAddr: 0x100008964, symSize: 0x30 }
  - { offsetInCU: 0xFD4B, offset: 0x21D45, size: 0x8, addend: 0x0, symName: __ZNSt3__110unique_ptrINS_11__list_nodeI4CardPvEENS_22__allocator_destructorINS_9allocatorIS4_EEEEE5resetB7v160006EPS4_, symObjAddr: 0x20E8, symBinAddr: 0x100008994, symSize: 0x78 }
  - { offsetInCU: 0xFD8F, offset: 0x21D89, size: 0x8, addend: 0x0, symName: __ZNSt3__117__compressed_pairIPNS_11__list_nodeI4CardPvEENS_22__allocator_destructorINS_9allocatorIS4_EEEEE6secondB7v160006Ev, symObjAddr: 0x2160, symBinAddr: 0x100008A0C, symSize: 0x28 }
  - { offsetInCU: 0xFDB5, offset: 0x21DAF, size: 0x8, addend: 0x0, symName: __ZNSt3__122__allocator_destructorINS_9allocatorINS_11__list_nodeI4CardPvEEEEEclB7v160006EPS5_, symObjAddr: 0x2188, symBinAddr: 0x100008A34, symSize: 0x34 }
  - { offsetInCU: 0xFDE9, offset: 0x21DE3, size: 0x8, addend: 0x0, symName: __ZNSt3__122__compressed_pair_elemINS_22__allocator_destructorINS_9allocatorINS_11__list_nodeI4CardPvEEEEEELi1ELb0EE5__getB7v160006Ev, symObjAddr: 0x21BC, symBinAddr: 0x100008A68, symSize: 0x14 }
  - { offsetInCU: 0xFE0F, offset: 0x21E09, size: 0x8, addend: 0x0, symName: __ZNSt3__116__hash_node_baseIPNS_11__hash_nodeI4CardPvEEE8__upcastB7v160006Ev, symObjAddr: 0x21D0, symBinAddr: 0x100008A7C, symSize: 0x24 }
  - { offsetInCU: 0xFE35, offset: 0x21E2F, size: 0x8, addend: 0x0, symName: __ZNSt3__114pointer_traitsIPNS_16__hash_node_baseIPNS_11__hash_nodeI4CardPvEEEEE10pointer_toB7v160006ERS7_, symObjAddr: 0x21F4, symBinAddr: 0x100008AA0, symSize: 0x14 }
  - { offsetInCU: 0xFE58, offset: 0x21E52, size: 0x8, addend: 0x0, symName: __ZNKSt3__111__wrap_iterIP4CardE4baseB7v160006Ev, symObjAddr: 0x2250, symBinAddr: 0x100008AFC, symSize: 0x18 }
  - { offsetInCU: 0xFE88, offset: 0x21E82, size: 0x8, addend: 0x0, symName: __ZNSt3__116allocator_traitsINS_9allocatorINS_11__list_nodeI4CardPvEEEEE9constructB7v160006IS3_JS3_EvEEvRS6_PT_DpOT0_, symObjAddr: 0x238C, symBinAddr: 0x100008B14, symSize: 0x34 }
  - { offsetInCU: 0xFEDF, offset: 0x21ED9, size: 0x8, addend: 0x0, symName: __ZNKSt3__110unique_ptrINS_11__list_nodeI4CardPvEENS_22__allocator_destructorINS_9allocatorIS4_EEEEE3getB7v160006Ev, symObjAddr: 0x23C0, symBinAddr: 0x100008B48, symSize: 0x28 }
  - { offsetInCU: 0xFF05, offset: 0x21EFF, size: 0x8, addend: 0x0, symName: __ZNSt3__19allocatorINS_11__list_nodeI4CardPvEEE9constructB7v160006IS2_JS2_EEEvPT_DpOT0_, symObjAddr: 0x23E8, symBinAddr: 0x100008B70, symSize: 0x30 }
  - { offsetInCU: 0xFF5B, offset: 0x21F55, size: 0x8, addend: 0x0, symName: __ZNSt3__113unordered_setI4Card8CardHashNS_8equal_toIS1_EENS_9allocatorIS1_EEEC2B7v160006Ev, symObjAddr: 0x2418, symBinAddr: 0x100008BA0, symSize: 0x3C }
  - { offsetInCU: 0xFF85, offset: 0x21F7F, size: 0x8, addend: 0x0, symName: __ZNSt3__112__hash_tableI4Card8CardHashNS_8equal_toIS1_EENS_9allocatorIS1_EEEC1Ev, symObjAddr: 0x2454, symBinAddr: 0x100008BDC, symSize: 0x2C }
  - { offsetInCU: 0xFFB1, offset: 0x21FAB, size: 0x8, addend: 0x0, symName: __ZNSt3__112__hash_tableI4Card8CardHashNS_8equal_toIS1_EENS_9allocatorIS1_EEEC2Ev, symObjAddr: 0x2490, symBinAddr: 0x100008C18, symSize: 0x7C }
  - { offsetInCU: 0xFFDD, offset: 0x21FD7, size: 0x8, addend: 0x0, symName: __ZNSt3__110unique_ptrIA_PNS_16__hash_node_baseIPNS_11__hash_nodeI4CardPvEEEENS_25__bucket_list_deallocatorINS_9allocatorIS8_EEEEEC1B7v160006ILb1EvEEv, symObjAddr: 0x250C, symBinAddr: 0x100008C94, symSize: 0x2C }
  - { offsetInCU: 0x10012, offset: 0x2200C, size: 0x8, addend: 0x0, symName: __ZNSt3__117__compressed_pairINS_16__hash_node_baseIPNS_11__hash_nodeI4CardPvEEEENS_9allocatorIS5_EEEC1B7v160006ILb1EvEEv, symObjAddr: 0x2538, symBinAddr: 0x100008CC0, symSize: 0x2C }
  - { offsetInCU: 0x10047, offset: 0x22041, size: 0x8, addend: 0x0, symName: __ZNSt3__117__compressed_pairIm8CardHashEC1B7v160006IiNS_18__default_init_tagEEEOT_OT0_, symObjAddr: 0x2564, symBinAddr: 0x100008CEC, symSize: 0x3C }
  - { offsetInCU: 0x100A4, offset: 0x2209E, size: 0x8, addend: 0x0, symName: __ZNSt3__117__compressed_pairIfNS_8equal_toI4CardEEEC1B7v160006IfNS_18__default_init_tagEEEOT_OT0_, symObjAddr: 0x25A0, symBinAddr: 0x100008D28, symSize: 0x3C }
  - { offsetInCU: 0x100FC, offset: 0x220F6, size: 0x8, addend: 0x0, symName: __ZNSt3__110unique_ptrIA_PNS_16__hash_node_baseIPNS_11__hash_nodeI4CardPvEEEENS_25__bucket_list_deallocatorINS_9allocatorIS8_EEEEEC2B7v160006ILb1EvEEv, symObjAddr: 0x25DC, symBinAddr: 0x100008D64, symSize: 0x3C }
  - { offsetInCU: 0x10136, offset: 0x22130, size: 0x8, addend: 0x0, symName: __ZNSt3__117__compressed_pairIPPNS_16__hash_node_baseIPNS_11__hash_nodeI4CardPvEEEENS_25__bucket_list_deallocatorINS_9allocatorIS8_EEEEEC1B7v160006INS_16__value_init_tagESG_EEOT_OT0_, symObjAddr: 0x2618, symBinAddr: 0x100008DA0, symSize: 0x3C }
  - { offsetInCU: 0x1018E, offset: 0x22188, size: 0x8, addend: 0x0, symName: __ZNSt3__117__compressed_pairIPPNS_16__hash_node_baseIPNS_11__hash_nodeI4CardPvEEEENS_25__bucket_list_deallocatorINS_9allocatorIS8_EEEEEC2B7v160006INS_16__value_init_tagESG_EEOT_OT0_, symObjAddr: 0x2654, symBinAddr: 0x100008DDC, symSize: 0x40 }
  - { offsetInCU: 0x101E6, offset: 0x221E0, size: 0x8, addend: 0x0, symName: __ZNSt3__122__compressed_pair_elemIPPNS_16__hash_node_baseIPNS_11__hash_nodeI4CardPvEEEELi0ELb0EEC2B7v160006ENS_16__value_init_tagE, symObjAddr: 0x2694, symBinAddr: 0x100008E1C, symSize: 0x18 }
  - { offsetInCU: 0x1021B, offset: 0x22215, size: 0x8, addend: 0x0, symName: __ZNSt3__122__compressed_pair_elemINS_25__bucket_list_deallocatorINS_9allocatorIPNS_16__hash_node_baseIPNS_11__hash_nodeI4CardPvEEEEEEEELi1ELb0EEC2B7v160006ENS_16__value_init_tagE, symObjAddr: 0x26AC, symBinAddr: 0x100008E34, symSize: 0x2C }
  - { offsetInCU: 0x10250, offset: 0x2224A, size: 0x8, addend: 0x0, symName: __ZNSt3__125__bucket_list_deallocatorINS_9allocatorIPNS_16__hash_node_baseIPNS_11__hash_nodeI4CardPvEEEEEEEC1B7v160006Ev, symObjAddr: 0x26D8, symBinAddr: 0x100008E60, symSize: 0x2C }
  - { offsetInCU: 0x1027A, offset: 0x22274, size: 0x8, addend: 0x0, symName: __ZNSt3__125__bucket_list_deallocatorINS_9allocatorIPNS_16__hash_node_baseIPNS_11__hash_nodeI4CardPvEEEEEEEC2B7v160006Ev, symObjAddr: 0x2704, symBinAddr: 0x100008E8C, symSize: 0x40 }
  - { offsetInCU: 0x102A4, offset: 0x2229E, size: 0x8, addend: 0x0, symName: __ZNSt3__117__compressed_pairImNS_9allocatorIPNS_16__hash_node_baseIPNS_11__hash_nodeI4CardPvEEEEEEEC1B7v160006IiNS_18__default_init_tagEEEOT_OT0_, symObjAddr: 0x2744, symBinAddr: 0x100008ECC, symSize: 0x3C }
  - { offsetInCU: 0x102FC, offset: 0x222F6, size: 0x8, addend: 0x0, symName: __ZNSt3__117__compressed_pairImNS_9allocatorIPNS_16__hash_node_baseIPNS_11__hash_nodeI4CardPvEEEEEEEC2B7v160006IiNS_18__default_init_tagEEEOT_OT0_, symObjAddr: 0x2780, symBinAddr: 0x100008F08, symSize: 0x40 }
  - { offsetInCU: 0x10354, offset: 0x2234E, size: 0x8, addend: 0x0, symName: __ZNSt3__122__compressed_pair_elemINS_9allocatorIPNS_16__hash_node_baseIPNS_11__hash_nodeI4CardPvEEEEEELi1ELb1EEC2B7v160006ENS_18__default_init_tagE, symObjAddr: 0x27C0, symBinAddr: 0x100008F48, symSize: 0x2C }
  - { offsetInCU: 0x10389, offset: 0x22383, size: 0x8, addend: 0x0, symName: __ZNSt3__19allocatorIPNS_16__hash_node_baseIPNS_11__hash_nodeI4CardPvEEEEEC2B7v160006Ev, symObjAddr: 0x27EC, symBinAddr: 0x100008F74, symSize: 0x2C }
  - { offsetInCU: 0x103B3, offset: 0x223AD, size: 0x8, addend: 0x0, symName: __ZNSt3__116__non_trivial_ifILb1ENS_9allocatorIPNS_16__hash_node_baseIPNS_11__hash_nodeI4CardPvEEEEEEEC2B7v160006Ev, symObjAddr: 0x2818, symBinAddr: 0x100008FA0, symSize: 0x14 }
  - { offsetInCU: 0x103DD, offset: 0x223D7, size: 0x8, addend: 0x0, symName: __ZNSt3__117__compressed_pairINS_16__hash_node_baseIPNS_11__hash_nodeI4CardPvEEEENS_9allocatorIS5_EEEC2B7v160006ILb1EvEEv, symObjAddr: 0x282C, symBinAddr: 0x100008FB4, symSize: 0x34 }
  - { offsetInCU: 0x10412, offset: 0x2240C, size: 0x8, addend: 0x0, symName: __ZNSt3__122__compressed_pair_elemINS_16__hash_node_baseIPNS_11__hash_nodeI4CardPvEEEELi0ELb0EEC2B7v160006ENS_16__value_init_tagE, symObjAddr: 0x2860, symBinAddr: 0x100008FE8, symSize: 0x2C }
  - { offsetInCU: 0x10447, offset: 0x22441, size: 0x8, addend: 0x0, symName: __ZNSt3__122__compressed_pair_elemINS_9allocatorINS_11__hash_nodeI4CardPvEEEELi1ELb1EEC2B7v160006ENS_16__value_init_tagE, symObjAddr: 0x288C, symBinAddr: 0x100009014, symSize: 0x2C }
  - { offsetInCU: 0x1047C, offset: 0x22476, size: 0x8, addend: 0x0, symName: __ZNSt3__116__hash_node_baseIPNS_11__hash_nodeI4CardPvEEEC1B7v160006Ev, symObjAddr: 0x28B8, symBinAddr: 0x100009040, symSize: 0x2C }
  - { offsetInCU: 0x104A6, offset: 0x224A0, size: 0x8, addend: 0x0, symName: __ZNSt3__116__hash_node_baseIPNS_11__hash_nodeI4CardPvEEEC2B7v160006Ev, symObjAddr: 0x28E4, symBinAddr: 0x10000906C, symSize: 0x18 }
  - { offsetInCU: 0x104D0, offset: 0x224CA, size: 0x8, addend: 0x0, symName: __ZNSt3__19allocatorINS_11__hash_nodeI4CardPvEEEC2B7v160006Ev, symObjAddr: 0x28FC, symBinAddr: 0x100009084, symSize: 0x2C }
  - { offsetInCU: 0x104FA, offset: 0x224F4, size: 0x8, addend: 0x0, symName: __ZNSt3__116__non_trivial_ifILb1ENS_9allocatorINS_11__hash_nodeI4CardPvEEEEEC2B7v160006Ev, symObjAddr: 0x2928, symBinAddr: 0x1000090B0, symSize: 0x14 }
  - { offsetInCU: 0x10524, offset: 0x2251E, size: 0x8, addend: 0x0, symName: __ZNSt3__117__compressed_pairIm8CardHashEC2B7v160006IiNS_18__default_init_tagEEEOT_OT0_, symObjAddr: 0x293C, symBinAddr: 0x1000090C4, symSize: 0x40 }
  - { offsetInCU: 0x1057C, offset: 0x22576, size: 0x8, addend: 0x0, symName: __ZNSt3__122__compressed_pair_elemI8CardHashLi1ELb1EEC2B7v160006ENS_18__default_init_tagE, symObjAddr: 0x297C, symBinAddr: 0x100009104, symSize: 0x14 }
  - { offsetInCU: 0x105B1, offset: 0x225AB, size: 0x8, addend: 0x0, symName: __ZNSt3__117__compressed_pairIfNS_8equal_toI4CardEEEC2B7v160006IfNS_18__default_init_tagEEEOT_OT0_, symObjAddr: 0x2990, symBinAddr: 0x100009118, symSize: 0x40 }
  - { offsetInCU: 0x10609, offset: 0x22603, size: 0x8, addend: 0x0, symName: __ZNSt3__122__compressed_pair_elemIfLi0ELb0EEC2B7v160006IfvEEOT_, symObjAddr: 0x29D0, symBinAddr: 0x100009158, symSize: 0x24 }
  - { offsetInCU: 0x1064B, offset: 0x22645, size: 0x8, addend: 0x0, symName: __ZNSt3__122__compressed_pair_elemINS_8equal_toI4CardEELi1ELb1EEC2B7v160006ENS_18__default_init_tagE, symObjAddr: 0x29F4, symBinAddr: 0x10000917C, symSize: 0x14 }
  - { offsetInCU: 0x10680, offset: 0x2267A, size: 0x8, addend: 0x0, symName: __ZNSt3__113unordered_setI4Card8CardHashNS_8equal_toIS1_EENS_9allocatorIS1_EEED2B7v160006Ev, symObjAddr: 0x2A08, symBinAddr: 0x100009190, symSize: 0x2C }
  - { offsetInCU: 0x106AA, offset: 0x226A4, size: 0x8, addend: 0x0, symName: __ZNSt3__112__hash_tableI4Card8CardHashNS_8equal_toIS1_EENS_9allocatorIS1_EEED1Ev, symObjAddr: 0x2A34, symBinAddr: 0x1000091BC, symSize: 0x2C }
  - { offsetInCU: 0x106D6, offset: 0x226D0, size: 0x8, addend: 0x0, symName: __ZNSt3__112__hash_tableI4Card8CardHashNS_8equal_toIS1_EENS_9allocatorIS1_EEED2Ev, symObjAddr: 0x2A60, symBinAddr: 0x1000091E8, symSize: 0x58 }
  - { offsetInCU: 0x10702, offset: 0x226FC, size: 0x8, addend: 0x0, symName: __ZNSt3__112__hash_tableI4Card8CardHashNS_8equal_toIS1_EENS_9allocatorIS1_EEE17__deallocate_nodeEPNS_16__hash_node_baseIPNS_11__hash_nodeIS1_PvEEEE, symObjAddr: 0x2AB8, symBinAddr: 0x100009240, symSize: 0xA8 }
  - { offsetInCU: 0x1076C, offset: 0x22766, size: 0x8, addend: 0x0, symName: __ZNSt3__117__compressed_pairINS_16__hash_node_baseIPNS_11__hash_nodeI4CardPvEEEENS_9allocatorIS5_EEE5firstB7v160006Ev, symObjAddr: 0x2B60, symBinAddr: 0x1000092E8, symSize: 0x24 }
  - { offsetInCU: 0x10792, offset: 0x2278C, size: 0x8, addend: 0x0, symName: __ZNSt3__110unique_ptrIA_PNS_16__hash_node_baseIPNS_11__hash_nodeI4CardPvEEEENS_25__bucket_list_deallocatorINS_9allocatorIS8_EEEEED1B7v160006Ev, symObjAddr: 0x2B94, symBinAddr: 0x10000931C, symSize: 0x2C }
  - { offsetInCU: 0x107BC, offset: 0x227B6, size: 0x8, addend: 0x0, symName: __ZNSt3__112__hash_tableI4Card8CardHashNS_8equal_toIS1_EENS_9allocatorIS1_EEE12__node_allocB7v160006Ev, symObjAddr: 0x2BC0, symBinAddr: 0x100009348, symSize: 0x28 }
  - { offsetInCU: 0x107E2, offset: 0x227DC, size: 0x8, addend: 0x0, symName: __ZNSt3__116allocator_traitsINS_9allocatorINS_11__hash_nodeI4CardPvEEEEE7destroyB7v160006IS3_vvEEvRS6_PT_, symObjAddr: 0x2BE8, symBinAddr: 0x100009370, symSize: 0x14 }
  - { offsetInCU: 0x1081D, offset: 0x22817, size: 0x8, addend: 0x0, symName: __ZNSt3__122__hash_key_value_typesI4CardE9__get_ptrB7v160006ERS1_, symObjAddr: 0x2BFC, symBinAddr: 0x100009384, symSize: 0x14 }
  - { offsetInCU: 0x10840, offset: 0x2283A, size: 0x8, addend: 0x0, symName: __ZNSt3__116allocator_traitsINS_9allocatorINS_11__hash_nodeI4CardPvEEEEE10deallocateB7v160006ERS6_PS5_m, symObjAddr: 0x2C10, symBinAddr: 0x100009398, symSize: 0x34 }
  - { offsetInCU: 0x10882, offset: 0x2287C, size: 0x8, addend: 0x0, symName: __ZNSt3__117__compressed_pairINS_16__hash_node_baseIPNS_11__hash_nodeI4CardPvEEEENS_9allocatorIS5_EEE6secondB7v160006Ev, symObjAddr: 0x2C44, symBinAddr: 0x1000093CC, symSize: 0x24 }
  - { offsetInCU: 0x108A8, offset: 0x228A2, size: 0x8, addend: 0x0, symName: __ZNSt3__122__compressed_pair_elemINS_9allocatorINS_11__hash_nodeI4CardPvEEEELi1ELb1EE5__getB7v160006Ev, symObjAddr: 0x2C68, symBinAddr: 0x1000093F0, symSize: 0x14 }
  - { offsetInCU: 0x108CE, offset: 0x228C8, size: 0x8, addend: 0x0, symName: __ZNSt3__19allocatorINS_11__hash_nodeI4CardPvEEE10deallocateB7v160006EPS4_m, symObjAddr: 0x2C7C, symBinAddr: 0x100009404, symSize: 0x40 }
  - { offsetInCU: 0x10910, offset: 0x2290A, size: 0x8, addend: 0x0, symName: __ZNSt3__122__compressed_pair_elemINS_16__hash_node_baseIPNS_11__hash_nodeI4CardPvEEEELi0ELb0EE5__getB7v160006Ev, symObjAddr: 0x2CBC, symBinAddr: 0x100009444, symSize: 0x14 }
  - { offsetInCU: 0x10936, offset: 0x22930, size: 0x8, addend: 0x0, symName: __ZNSt3__110unique_ptrIA_PNS_16__hash_node_baseIPNS_11__hash_nodeI4CardPvEEEENS_25__bucket_list_deallocatorINS_9allocatorIS8_EEEEED2B7v160006Ev, symObjAddr: 0x2CD0, symBinAddr: 0x100009458, symSize: 0x30 }
  - { offsetInCU: 0x10960, offset: 0x2295A, size: 0x8, addend: 0x0, symName: __ZNSt3__110unique_ptrIA_PNS_16__hash_node_baseIPNS_11__hash_nodeI4CardPvEEEENS_25__bucket_list_deallocatorINS_9allocatorIS8_EEEEE5resetB7v160006EDn, symObjAddr: 0x2D00, symBinAddr: 0x100009488, symSize: 0x6C }
  - { offsetInCU: 0x109A1, offset: 0x2299B, size: 0x8, addend: 0x0, symName: __ZNSt3__117__compressed_pairIPPNS_16__hash_node_baseIPNS_11__hash_nodeI4CardPvEEEENS_25__bucket_list_deallocatorINS_9allocatorIS8_EEEEE5firstB7v160006Ev, symObjAddr: 0x2D6C, symBinAddr: 0x1000094F4, symSize: 0x24 }
  - { offsetInCU: 0x109C7, offset: 0x229C1, size: 0x8, addend: 0x0, symName: __ZNSt3__117__compressed_pairIPPNS_16__hash_node_baseIPNS_11__hash_nodeI4CardPvEEEENS_25__bucket_list_deallocatorINS_9allocatorIS8_EEEEE6secondB7v160006Ev, symObjAddr: 0x2D90, symBinAddr: 0x100009518, symSize: 0x28 }
  - { offsetInCU: 0x109ED, offset: 0x229E7, size: 0x8, addend: 0x0, symName: __ZNSt3__125__bucket_list_deallocatorINS_9allocatorIPNS_16__hash_node_baseIPNS_11__hash_nodeI4CardPvEEEEEEEclB7v160006EPS9_, symObjAddr: 0x2DB8, symBinAddr: 0x100009540, symSize: 0x58 }
  - { offsetInCU: 0x10A22, offset: 0x22A1C, size: 0x8, addend: 0x0, symName: __ZNSt3__122__compressed_pair_elemIPPNS_16__hash_node_baseIPNS_11__hash_nodeI4CardPvEEEELi0ELb0EE5__getB7v160006Ev, symObjAddr: 0x2E10, symBinAddr: 0x100009598, symSize: 0x14 }
  - { offsetInCU: 0x10A48, offset: 0x22A42, size: 0x8, addend: 0x0, symName: __ZNSt3__122__compressed_pair_elemINS_25__bucket_list_deallocatorINS_9allocatorIPNS_16__hash_node_baseIPNS_11__hash_nodeI4CardPvEEEEEEEELi1ELb0EE5__getB7v160006Ev, symObjAddr: 0x2E24, symBinAddr: 0x1000095AC, symSize: 0x14 }
  - { offsetInCU: 0x10A6E, offset: 0x22A68, size: 0x8, addend: 0x0, symName: __ZNSt3__116allocator_traitsINS_9allocatorIPNS_16__hash_node_baseIPNS_11__hash_nodeI4CardPvEEEEEEE10deallocateB7v160006ERSA_PS9_m, symObjAddr: 0x2E38, symBinAddr: 0x1000095C0, symSize: 0x34 }
  - { offsetInCU: 0x10AB0, offset: 0x22AAA, size: 0x8, addend: 0x0, symName: __ZNSt3__125__bucket_list_deallocatorINS_9allocatorIPNS_16__hash_node_baseIPNS_11__hash_nodeI4CardPvEEEEEEE7__allocB7v160006Ev, symObjAddr: 0x2E6C, symBinAddr: 0x1000095F4, symSize: 0x24 }
  - { offsetInCU: 0x10AD6, offset: 0x22AD0, size: 0x8, addend: 0x0, symName: __ZNSt3__125__bucket_list_deallocatorINS_9allocatorIPNS_16__hash_node_baseIPNS_11__hash_nodeI4CardPvEEEEEEE4sizeB7v160006Ev, symObjAddr: 0x2E90, symBinAddr: 0x100009618, symSize: 0x24 }
  - { offsetInCU: 0x10AFC, offset: 0x22AF6, size: 0x8, addend: 0x0, symName: __ZNSt3__19allocatorIPNS_16__hash_node_baseIPNS_11__hash_nodeI4CardPvEEEEE10deallocateB7v160006EPS8_m, symObjAddr: 0x2EB4, symBinAddr: 0x10000963C, symSize: 0x40 }
  - { offsetInCU: 0x10B3E, offset: 0x22B38, size: 0x8, addend: 0x0, symName: __ZNSt3__117__compressed_pairImNS_9allocatorIPNS_16__hash_node_baseIPNS_11__hash_nodeI4CardPvEEEEEEE6secondB7v160006Ev, symObjAddr: 0x2EF4, symBinAddr: 0x10000967C, symSize: 0x24 }
  - { offsetInCU: 0x10B64, offset: 0x22B5E, size: 0x8, addend: 0x0, symName: __ZNSt3__122__compressed_pair_elemINS_9allocatorIPNS_16__hash_node_baseIPNS_11__hash_nodeI4CardPvEEEEEELi1ELb1EE5__getB7v160006Ev, symObjAddr: 0x2F18, symBinAddr: 0x1000096A0, symSize: 0x14 }
  - { offsetInCU: 0x10B8A, offset: 0x22B84, size: 0x8, addend: 0x0, symName: __ZNSt3__117__compressed_pairImNS_9allocatorIPNS_16__hash_node_baseIPNS_11__hash_nodeI4CardPvEEEEEEE5firstB7v160006Ev, symObjAddr: 0x2F2C, symBinAddr: 0x1000096B4, symSize: 0x24 }
  - { offsetInCU: 0x10BB0, offset: 0x22BAA, size: 0x8, addend: 0x0, symName: __ZNSt3__112__hash_tableI4Card8CardHashNS_8equal_toIS1_EENS_9allocatorIS1_EEE15__insert_uniqueB7v160006EOS1_, symObjAddr: 0x2F50, symBinAddr: 0x1000096D8, symSize: 0x50 }
  - { offsetInCU: 0x10BE5, offset: 0x22BDF, size: 0x8, addend: 0x0, symName: __ZNSt3__14pairINS_21__hash_const_iteratorIPNS_11__hash_nodeI4CardPvEEEEbEC1B7v160006INS_15__hash_iteratorIS6_EEbLS4_0EEEONS0_IT_T0_EE, symObjAddr: 0x2FA0, symBinAddr: 0x100009728, symSize: 0x34 }
  - { offsetInCU: 0x10C36, offset: 0x22C30, size: 0x8, addend: 0x0, symName: __ZNSt3__112__hash_tableI4Card8CardHashNS_8equal_toIS1_EENS_9allocatorIS1_EEE25__emplace_unique_key_argsIS1_JS1_EEENS_4pairINS_15__hash_iteratorIPNS_11__hash_nodeIS1_PvEEEEbEERKT_DpOT0_, symObjAddr: 0x2FD4, symBinAddr: 0x10000975C, symSize: 0x4C0 }
  - { offsetInCU: 0x10D16, offset: 0x22D10, size: 0x8, addend: 0x0, symName: __ZNSt3__122__hash_key_value_typesI4CardE9__get_keyB7v160006ERKS1_, symObjAddr: 0x3494, symBinAddr: 0x100009C1C, symSize: 0x14 }
  - { offsetInCU: 0x10D39, offset: 0x22D33, size: 0x8, addend: 0x0, symName: __ZNSt3__112__hash_tableI4Card8CardHashNS_8equal_toIS1_EENS_9allocatorIS1_EEE13hash_functionB7v160006Ev, symObjAddr: 0x34A8, symBinAddr: 0x100009C30, symSize: 0x28 }
  - { offsetInCU: 0x10D5F, offset: 0x22D59, size: 0x8, addend: 0x0, symName: __ZNKSt3__112__hash_tableI4Card8CardHashNS_8equal_toIS1_EENS_9allocatorIS1_EEE12bucket_countB7v160006Ev, symObjAddr: 0x34D0, symBinAddr: 0x100009C58, symSize: 0x28 }
  - { offsetInCU: 0x10D85, offset: 0x22D7F, size: 0x8, addend: 0x0, symName: __ZNKSt3__110unique_ptrIA_PNS_16__hash_node_baseIPNS_11__hash_nodeI4CardPvEEEENS_25__bucket_list_deallocatorINS_9allocatorIS8_EEEEEixB7v160006Em, symObjAddr: 0x3590, symBinAddr: 0x100009D18, symSize: 0x34 }
  - { offsetInCU: 0x10DBA, offset: 0x22DB4, size: 0x8, addend: 0x0, symName: __ZNKSt3__116__hash_node_baseIPNS_11__hash_nodeI4CardPvEEE6__hashB7v160006Ev, symObjAddr: 0x35C4, symBinAddr: 0x100009D4C, symSize: 0x18 }
  - { offsetInCU: 0x10DE0, offset: 0x22DDA, size: 0x8, addend: 0x0, symName: __ZNSt3__112__hash_tableI4Card8CardHashNS_8equal_toIS1_EENS_9allocatorIS1_EEE6key_eqB7v160006Ev, symObjAddr: 0x35DC, symBinAddr: 0x100009D64, symSize: 0x28 }
  - { offsetInCU: 0x10E06, offset: 0x22E00, size: 0x8, addend: 0x0, symName: __ZNKSt3__18equal_toI4CardEclB7v160006ERKS1_S4_, symObjAddr: 0x3604, symBinAddr: 0x100009D8C, symSize: 0x34 }
  - { offsetInCU: 0x10E4A, offset: 0x22E44, size: 0x8, addend: 0x0, symName: __ZNSt3__112__hash_tableI4Card8CardHashNS_8equal_toIS1_EENS_9allocatorIS1_EEE21__construct_node_hashIS1_JEEENS_10unique_ptrINS_11__hash_nodeIS1_PvEENS_22__hash_node_destructorINS5_ISC_EEEEEEmOT_DpOT0_, symObjAddr: 0x3638, symBinAddr: 0x100009DC0, symSize: 0x138 }
  - { offsetInCU: 0x10EBD, offset: 0x22EB7, size: 0x8, addend: 0x0, symName: __ZNSt3__112__hash_tableI4Card8CardHashNS_8equal_toIS1_EENS_9allocatorIS1_EEE4sizeB7v160006Ev, symObjAddr: 0x3770, symBinAddr: 0x100009EF8, symSize: 0x28 }
  - { offsetInCU: 0x10EE3, offset: 0x22EDD, size: 0x8, addend: 0x0, symName: __ZNSt3__112__hash_tableI4Card8CardHashNS_8equal_toIS1_EENS_9allocatorIS1_EEE15max_load_factorB7v160006Ev, symObjAddr: 0x3798, symBinAddr: 0x100009F20, symSize: 0x28 }
  - { offsetInCU: 0x10F09, offset: 0x22F03, size: 0x8, addend: 0x0, symName: __ZNSt3__112__hash_tableI4Card8CardHashNS_8equal_toIS1_EENS_9allocatorIS1_EEE15__rehash_uniqueB7v160006Em, symObjAddr: 0x37C0, symBinAddr: 0x100009F48, symSize: 0x2C }
  - { offsetInCU: 0x10F3D, offset: 0x22F37, size: 0x8, addend: 0x0, symName: __Z4ceilB7v160006f, symObjAddr: 0x3868, symBinAddr: 0x100009FF0, symSize: 0x18 }
  - { offsetInCU: 0x10F6C, offset: 0x22F66, size: 0x8, addend: 0x0, symName: __ZNSt3__116__hash_node_baseIPNS_11__hash_nodeI4CardPvEEE5__ptrB7v160006Ev, symObjAddr: 0x3880, symBinAddr: 0x10000A008, symSize: 0x24 }
  - { offsetInCU: 0x10F92, offset: 0x22F8C, size: 0x8, addend: 0x0, symName: __ZNKSt3__110unique_ptrINS_11__hash_nodeI4CardPvEENS_22__hash_node_destructorINS_9allocatorIS4_EEEEEptB7v160006Ev, symObjAddr: 0x38A4, symBinAddr: 0x10000A02C, symSize: 0x28 }
  - { offsetInCU: 0x10FB8, offset: 0x22FB2, size: 0x8, addend: 0x0, symName: __ZNKSt3__110unique_ptrINS_11__hash_nodeI4CardPvEENS_22__hash_node_destructorINS_9allocatorIS4_EEEEE3getB7v160006Ev, symObjAddr: 0x38CC, symBinAddr: 0x10000A054, symSize: 0x28 }
  - { offsetInCU: 0x10FDE, offset: 0x22FD8, size: 0x8, addend: 0x0, symName: __ZNSt3__110unique_ptrINS_11__hash_nodeI4CardPvEENS_22__hash_node_destructorINS_9allocatorIS4_EEEEE7releaseB7v160006Ev, symObjAddr: 0x38F4, symBinAddr: 0x10000A07C, symSize: 0x44 }
  - { offsetInCU: 0x11013, offset: 0x2300D, size: 0x8, addend: 0x0, symName: __ZNSt3__110unique_ptrINS_11__hash_nodeI4CardPvEENS_22__hash_node_destructorINS_9allocatorIS4_EEEEED1B7v160006Ev, symObjAddr: 0x3938, symBinAddr: 0x10000A0C0, symSize: 0x2C }
  - { offsetInCU: 0x1103D, offset: 0x23037, size: 0x8, addend: 0x0, symName: __ZNSt3__115__hash_iteratorIPNS_11__hash_nodeI4CardPvEEEC1B7v160006EPNS_16__hash_node_baseIS5_EEPKv, symObjAddr: 0x3964, symBinAddr: 0x10000A0EC, symSize: 0x3C }
  - { offsetInCU: 0x1108A, offset: 0x23084, size: 0x8, addend: 0x0, symName: __ZNSt3__14pairINS_15__hash_iteratorIPNS_11__hash_nodeI4CardPvEEEEbEC1B7v160006IS7_RbLS4_0EEEOT_OT0_, symObjAddr: 0x39A0, symBinAddr: 0x10000A128, symSize: 0x3C }
  - { offsetInCU: 0x110E8, offset: 0x230E2, size: 0x8, addend: 0x0, symName: __ZNSt3__117__compressed_pairIm8CardHashE6secondB7v160006Ev, symObjAddr: 0x39DC, symBinAddr: 0x10000A164, symSize: 0x24 }
  - { offsetInCU: 0x1110E, offset: 0x23108, size: 0x8, addend: 0x0, symName: __ZNSt3__122__compressed_pair_elemI8CardHashLi1ELb1EE5__getB7v160006Ev, symObjAddr: 0x3A00, symBinAddr: 0x10000A188, symSize: 0x14 }
  - { offsetInCU: 0x11134, offset: 0x2312E, size: 0x8, addend: 0x0, symName: __ZNKSt3__110unique_ptrIA_PNS_16__hash_node_baseIPNS_11__hash_nodeI4CardPvEEEENS_25__bucket_list_deallocatorINS_9allocatorIS8_EEEEE11get_deleterB7v160006Ev, symObjAddr: 0x3A14, symBinAddr: 0x10000A19C, symSize: 0x24 }
  - { offsetInCU: 0x1115A, offset: 0x23154, size: 0x8, addend: 0x0, symName: __ZNKSt3__125__bucket_list_deallocatorINS_9allocatorIPNS_16__hash_node_baseIPNS_11__hash_nodeI4CardPvEEEEEEE4sizeB7v160006Ev, symObjAddr: 0x3A38, symBinAddr: 0x10000A1C0, symSize: 0x28 }
  - { offsetInCU: 0x11180, offset: 0x2317A, size: 0x8, addend: 0x0, symName: __ZNKSt3__117__compressed_pairIPPNS_16__hash_node_baseIPNS_11__hash_nodeI4CardPvEEEENS_25__bucket_list_deallocatorINS_9allocatorIS8_EEEEE6secondB7v160006Ev, symObjAddr: 0x3A60, symBinAddr: 0x10000A1E8, symSize: 0x28 }
  - { offsetInCU: 0x111A6, offset: 0x231A0, size: 0x8, addend: 0x0, symName: __ZNKSt3__122__compressed_pair_elemINS_25__bucket_list_deallocatorINS_9allocatorIPNS_16__hash_node_baseIPNS_11__hash_nodeI4CardPvEEEEEEEELi1ELb0EE5__getB7v160006Ev, symObjAddr: 0x3A88, symBinAddr: 0x10000A210, symSize: 0x14 }
  - { offsetInCU: 0x111CC, offset: 0x231C6, size: 0x8, addend: 0x0, symName: __ZNKSt3__117__compressed_pairImNS_9allocatorIPNS_16__hash_node_baseIPNS_11__hash_nodeI4CardPvEEEEEEE5firstB7v160006Ev, symObjAddr: 0x3A9C, symBinAddr: 0x10000A224, symSize: 0x24 }
  - { offsetInCU: 0x111F2, offset: 0x231EC, size: 0x8, addend: 0x0, symName: __ZNKSt3__117__compressed_pairIPPNS_16__hash_node_baseIPNS_11__hash_nodeI4CardPvEEEENS_25__bucket_list_deallocatorINS_9allocatorIS8_EEEEE5firstB7v160006Ev, symObjAddr: 0x3AC0, symBinAddr: 0x10000A248, symSize: 0x24 }
  - { offsetInCU: 0x11218, offset: 0x23212, size: 0x8, addend: 0x0, symName: __ZNKSt3__122__compressed_pair_elemIPPNS_16__hash_node_baseIPNS_11__hash_nodeI4CardPvEEEELi0ELb0EE5__getB7v160006Ev, symObjAddr: 0x3AE4, symBinAddr: 0x10000A26C, symSize: 0x14 }
  - { offsetInCU: 0x1123E, offset: 0x23238, size: 0x8, addend: 0x0, symName: __ZNSt3__117__compressed_pairIfNS_8equal_toI4CardEEE6secondB7v160006Ev, symObjAddr: 0x3AF8, symBinAddr: 0x10000A280, symSize: 0x24 }
  - { offsetInCU: 0x11264, offset: 0x2325E, size: 0x8, addend: 0x0, symName: __ZNSt3__122__compressed_pair_elemINS_8equal_toI4CardEELi1ELb1EE5__getB7v160006Ev, symObjAddr: 0x3B1C, symBinAddr: 0x10000A2A4, symSize: 0x14 }
  - { offsetInCU: 0x1128A, offset: 0x23284, size: 0x8, addend: 0x0, symName: __ZNSt3__116allocator_traitsINS_9allocatorINS_11__hash_nodeI4CardPvEEEEE8allocateB7v160006ERS6_m, symObjAddr: 0x3B30, symBinAddr: 0x10000A2B8, symSize: 0x2C }
  - { offsetInCU: 0x112BD, offset: 0x232B7, size: 0x8, addend: 0x0, symName: __ZNSt3__122__hash_node_destructorINS_9allocatorINS_11__hash_nodeI4CardPvEEEEEC1B7v160006ERS6_b, symObjAddr: 0x3B5C, symBinAddr: 0x10000A2E4, symSize: 0x48 }
  - { offsetInCU: 0x1130A, offset: 0x23304, size: 0x8, addend: 0x0, symName: __ZNSt3__110unique_ptrINS_11__hash_nodeI4CardPvEENS_22__hash_node_destructorINS_9allocatorIS4_EEEEEC1B7v160006ILb1EvEEPS4_NS_16__dependent_typeINS_27__unique_ptr_deleter_sfinaeIS8_EEXT_EE20__good_rval_ref_typeE, symObjAddr: 0x3BA4, symBinAddr: 0x10000A32C, symSize: 0x3C }
  - { offsetInCU: 0x1135B, offset: 0x23355, size: 0x8, addend: 0x0, symName: __ZNSt3__116allocator_traitsINS_9allocatorINS_11__hash_nodeI4CardPvEEEEE9constructB7v160006IS3_JS3_EvEEvRS6_PT_DpOT0_, symObjAddr: 0x3BE0, symBinAddr: 0x10000A368, symSize: 0x34 }
  - { offsetInCU: 0x113B2, offset: 0x233AC, size: 0x8, addend: 0x0, symName: __ZNSt3__110unique_ptrINS_11__hash_nodeI4CardPvEENS_22__hash_node_destructorINS_9allocatorIS4_EEEEE11get_deleterB7v160006Ev, symObjAddr: 0x3C14, symBinAddr: 0x10000A39C, symSize: 0x24 }
  - { offsetInCU: 0x113D8, offset: 0x233D2, size: 0x8, addend: 0x0, symName: __ZNSt3__19allocatorINS_11__hash_nodeI4CardPvEEE8allocateB7v160006Em, symObjAddr: 0x3C38, symBinAddr: 0x10000A3C0, symSize: 0x58 }
  - { offsetInCU: 0x11416, offset: 0x23410, size: 0x8, addend: 0x0, symName: __ZNSt3__116allocator_traitsINS_9allocatorINS_11__hash_nodeI4CardPvEEEEE8max_sizeB7v160006IS6_vEEmRKS6_, symObjAddr: 0x3C90, symBinAddr: 0x10000A418, symSize: 0x24 }
  - { offsetInCU: 0x11444, offset: 0x2343E, size: 0x8, addend: 0x0, symName: __ZNKSt3__19allocatorINS_11__hash_nodeI4CardPvEEE8max_sizeB7v160006Ev, symObjAddr: 0x3CB4, symBinAddr: 0x10000A43C, symSize: 0x14 }
  - { offsetInCU: 0x1146A, offset: 0x23464, size: 0x8, addend: 0x0, symName: __ZNSt3__122__hash_node_destructorINS_9allocatorINS_11__hash_nodeI4CardPvEEEEEC2B7v160006ERS6_b, symObjAddr: 0x3CC8, symBinAddr: 0x10000A450, symSize: 0x38 }
  - { offsetInCU: 0x114B2, offset: 0x234AC, size: 0x8, addend: 0x0, symName: __ZNSt3__110unique_ptrINS_11__hash_nodeI4CardPvEENS_22__hash_node_destructorINS_9allocatorIS4_EEEEEC2B7v160006ILb1EvEEPS4_NS_16__dependent_typeINS_27__unique_ptr_deleter_sfinaeIS8_EEXT_EE20__good_rval_ref_typeE, symObjAddr: 0x3D00, symBinAddr: 0x10000A488, symSize: 0x48 }
  - { offsetInCU: 0x11503, offset: 0x234FD, size: 0x8, addend: 0x0, symName: __ZNSt3__117__compressed_pairIPNS_11__hash_nodeI4CardPvEENS_22__hash_node_destructorINS_9allocatorIS4_EEEEEC1B7v160006IRS5_S9_EEOT_OT0_, symObjAddr: 0x3D48, symBinAddr: 0x10000A4D0, symSize: 0x3C }
  - { offsetInCU: 0x1155B, offset: 0x23555, size: 0x8, addend: 0x0, symName: __ZNSt3__117__compressed_pairIPNS_11__hash_nodeI4CardPvEENS_22__hash_node_destructorINS_9allocatorIS4_EEEEEC2B7v160006IRS5_S9_EEOT_OT0_, symObjAddr: 0x3D84, symBinAddr: 0x10000A50C, symSize: 0x48 }
  - { offsetInCU: 0x115B3, offset: 0x235AD, size: 0x8, addend: 0x0, symName: __ZNSt3__122__compressed_pair_elemIPNS_11__hash_nodeI4CardPvEELi0ELb0EEC2B7v160006IRS5_vEEOT_, symObjAddr: 0x3DCC, symBinAddr: 0x10000A554, symSize: 0x24 }
  - { offsetInCU: 0x115F5, offset: 0x235EF, size: 0x8, addend: 0x0, symName: __ZNSt3__122__compressed_pair_elemINS_22__hash_node_destructorINS_9allocatorINS_11__hash_nodeI4CardPvEEEEEELi1ELb0EEC2B7v160006IS8_vEEOT_, symObjAddr: 0x3DF0, symBinAddr: 0x10000A578, symSize: 0x24 }
  - { offsetInCU: 0x11637, offset: 0x23631, size: 0x8, addend: 0x0, symName: __ZNSt3__19allocatorINS_11__hash_nodeI4CardPvEEE9constructB7v160006IS2_JS2_EEEvPT_DpOT0_, symObjAddr: 0x3E14, symBinAddr: 0x10000A59C, symSize: 0x30 }
  - { offsetInCU: 0x1168D, offset: 0x23687, size: 0x8, addend: 0x0, symName: __ZNSt3__117__compressed_pairIPNS_11__hash_nodeI4CardPvEENS_22__hash_node_destructorINS_9allocatorIS4_EEEEE6secondB7v160006Ev, symObjAddr: 0x3E44, symBinAddr: 0x10000A5CC, symSize: 0x28 }
  - { offsetInCU: 0x116B3, offset: 0x236AD, size: 0x8, addend: 0x0, symName: __ZNSt3__122__compressed_pair_elemINS_22__hash_node_destructorINS_9allocatorINS_11__hash_nodeI4CardPvEEEEEELi1ELb0EE5__getB7v160006Ev, symObjAddr: 0x3E6C, symBinAddr: 0x10000A5F4, symSize: 0x14 }
  - { offsetInCU: 0x116D9, offset: 0x236D3, size: 0x8, addend: 0x0, symName: __ZNSt3__117__compressed_pairIm8CardHashE5firstB7v160006Ev, symObjAddr: 0x3E80, symBinAddr: 0x10000A608, symSize: 0x24 }
  - { offsetInCU: 0x116FF, offset: 0x236F9, size: 0x8, addend: 0x0, symName: __ZNSt3__117__compressed_pairIfNS_8equal_toI4CardEEE5firstB7v160006Ev, symObjAddr: 0x3EA4, symBinAddr: 0x10000A62C, symSize: 0x24 }
  - { offsetInCU: 0x11725, offset: 0x2371F, size: 0x8, addend: 0x0, symName: __ZNSt3__122__compressed_pair_elemIfLi0ELb0EE5__getB7v160006Ev, symObjAddr: 0x3EC8, symBinAddr: 0x10000A650, symSize: 0x14 }
  - { offsetInCU: 0x1174B, offset: 0x23745, size: 0x8, addend: 0x0, symName: __ZNSt3__112__hash_tableI4Card8CardHashNS_8equal_toIS1_EENS_9allocatorIS1_EEE8__rehashILb1EEEvm, symObjAddr: 0x3EDC, symBinAddr: 0x10000A664, symSize: 0x1A8 }
  - { offsetInCU: 0x1179B, offset: 0x23795, size: 0x8, addend: 0x0, symName: __ZNSt3__112__hash_tableI4Card8CardHashNS_8equal_toIS1_EENS_9allocatorIS1_EEE11__do_rehashILb1EEEvm, symObjAddr: 0x4084, symBinAddr: 0x10000A80C, symSize: 0x290 }
  - { offsetInCU: 0x1187E, offset: 0x23878, size: 0x8, addend: 0x0, symName: __ZNSt3__110unique_ptrIA_PNS_16__hash_node_baseIPNS_11__hash_nodeI4CardPvEEEENS_25__bucket_list_deallocatorINS_9allocatorIS8_EEEEE11get_deleterB7v160006Ev, symObjAddr: 0x4390, symBinAddr: 0x10000AB18, symSize: 0x24 }
  - { offsetInCU: 0x118A4, offset: 0x2389E, size: 0x8, addend: 0x0, symName: __ZNSt3__110unique_ptrIA_PNS_16__hash_node_baseIPNS_11__hash_nodeI4CardPvEEEENS_25__bucket_list_deallocatorINS_9allocatorIS8_EEEEE5resetB7v160006IPS8_EENS_9enable_ifIXsr28_CheckArrayPointerConversionIT_EE5valueEvE4typeESI_, symObjAddr: 0x43B4, symBinAddr: 0x10000AB3C, symSize: 0x78 }
  - { offsetInCU: 0x118F1, offset: 0x238EB, size: 0x8, addend: 0x0, symName: __ZNSt3__116allocator_traitsINS_9allocatorIPNS_16__hash_node_baseIPNS_11__hash_nodeI4CardPvEEEEEEE8allocateB7v160006ERSA_m, symObjAddr: 0x442C, symBinAddr: 0x10000ABB4, symSize: 0x2C }
  - { offsetInCU: 0x11924, offset: 0x2391E, size: 0x8, addend: 0x0, symName: __ZNSt3__19allocatorIPNS_16__hash_node_baseIPNS_11__hash_nodeI4CardPvEEEEE8allocateB7v160006Em, symObjAddr: 0x4458, symBinAddr: 0x10000ABE0, symSize: 0x58 }
  - { offsetInCU: 0x11962, offset: 0x2395C, size: 0x8, addend: 0x0, symName: __ZNSt3__116allocator_traitsINS_9allocatorIPNS_16__hash_node_baseIPNS_11__hash_nodeI4CardPvEEEEEEE8max_sizeB7v160006ISA_vEEmRKSA_, symObjAddr: 0x44B0, symBinAddr: 0x10000AC38, symSize: 0x24 }
  - { offsetInCU: 0x11990, offset: 0x2398A, size: 0x8, addend: 0x0, symName: __ZNKSt3__19allocatorIPNS_16__hash_node_baseIPNS_11__hash_nodeI4CardPvEEEEE8max_sizeB7v160006Ev, symObjAddr: 0x44D4, symBinAddr: 0x10000AC5C, symSize: 0x14 }
  - { offsetInCU: 0x119B6, offset: 0x239B0, size: 0x8, addend: 0x0, symName: __ZNKSt3__117__compressed_pairIPNS_11__hash_nodeI4CardPvEENS_22__hash_node_destructorINS_9allocatorIS4_EEEEE5firstB7v160006Ev, symObjAddr: 0x4558, symBinAddr: 0x10000ACE0, symSize: 0x24 }
  - { offsetInCU: 0x119DC, offset: 0x239D6, size: 0x8, addend: 0x0, symName: __ZNKSt3__122__compressed_pair_elemIPNS_11__hash_nodeI4CardPvEELi0ELb0EE5__getB7v160006Ev, symObjAddr: 0x457C, symBinAddr: 0x10000AD04, symSize: 0x14 }
  - { offsetInCU: 0x11A02, offset: 0x239FC, size: 0x8, addend: 0x0, symName: __ZNSt3__117__compressed_pairIPNS_11__hash_nodeI4CardPvEENS_22__hash_node_destructorINS_9allocatorIS4_EEEEE5firstB7v160006Ev, symObjAddr: 0x4590, symBinAddr: 0x10000AD18, symSize: 0x24 }
  - { offsetInCU: 0x11A28, offset: 0x23A22, size: 0x8, addend: 0x0, symName: __ZNSt3__122__compressed_pair_elemIPNS_11__hash_nodeI4CardPvEELi0ELb0EE5__getB7v160006Ev, symObjAddr: 0x45B4, symBinAddr: 0x10000AD3C, symSize: 0x14 }
  - { offsetInCU: 0x11A4E, offset: 0x23A48, size: 0x8, addend: 0x0, symName: __ZNSt3__110unique_ptrINS_11__hash_nodeI4CardPvEENS_22__hash_node_destructorINS_9allocatorIS4_EEEEED2B7v160006Ev, symObjAddr: 0x45C8, symBinAddr: 0x10000AD50, symSize: 0x30 }
  - { offsetInCU: 0x11A78, offset: 0x23A72, size: 0x8, addend: 0x0, symName: __ZNSt3__110unique_ptrINS_11__hash_nodeI4CardPvEENS_22__hash_node_destructorINS_9allocatorIS4_EEEEE5resetB7v160006EPS4_, symObjAddr: 0x45F8, symBinAddr: 0x10000AD80, symSize: 0x78 }
  - { offsetInCU: 0x11ABC, offset: 0x23AB6, size: 0x8, addend: 0x0, symName: __ZNSt3__122__hash_node_destructorINS_9allocatorINS_11__hash_nodeI4CardPvEEEEEclB7v160006EPS5_, symObjAddr: 0x4670, symBinAddr: 0x10000ADF8, symSize: 0x88 }
  - { offsetInCU: 0x11AF1, offset: 0x23AEB, size: 0x8, addend: 0x0, symName: __ZNSt3__115__hash_iteratorIPNS_11__hash_nodeI4CardPvEEEC2B7v160006EPNS_16__hash_node_baseIS5_EEPKv, symObjAddr: 0x46F8, symBinAddr: 0x10000AE80, symSize: 0x24 }
  - { offsetInCU: 0x11B39, offset: 0x23B33, size: 0x8, addend: 0x0, symName: __ZNSt3__14pairINS_15__hash_iteratorIPNS_11__hash_nodeI4CardPvEEEEbEC2B7v160006IS7_RbLS4_0EEEOT_OT0_, symObjAddr: 0x471C, symBinAddr: 0x10000AEA4, symSize: 0x38 }
  - { offsetInCU: 0x11B97, offset: 0x23B91, size: 0x8, addend: 0x0, symName: __ZNSt3__14pairINS_21__hash_const_iteratorIPNS_11__hash_nodeI4CardPvEEEEbEC2B7v160006INS_15__hash_iteratorIS6_EEbLS4_0EEEONS0_IT_T0_EE, symObjAddr: 0x4754, symBinAddr: 0x10000AEDC, symSize: 0x44 }
  - { offsetInCU: 0x11BE8, offset: 0x23BE2, size: 0x8, addend: 0x0, symName: __ZNSt3__121__hash_const_iteratorIPNS_11__hash_nodeI4CardPvEEEC1B7v160006ERKNS_15__hash_iteratorIS5_EE, symObjAddr: 0x4798, symBinAddr: 0x10000AF20, symSize: 0x34 }
  - { offsetInCU: 0x11C21, offset: 0x23C1B, size: 0x8, addend: 0x0, symName: __ZNSt3__121__hash_const_iteratorIPNS_11__hash_nodeI4CardPvEEEC2B7v160006ERKNS_15__hash_iteratorIS5_EE, symObjAddr: 0x47CC, symBinAddr: 0x10000AF54, symSize: 0x24 }
  - { offsetInCU: 0x11C5A, offset: 0x23C54, size: 0x8, addend: 0x0, symName: __ZNSt3__112__hash_tableI4Card8CardHashNS_8equal_toIS1_EENS_9allocatorIS1_EEE5beginEv, symObjAddr: 0x47F0, symBinAddr: 0x10000AF78, symSize: 0x40 }
  - { offsetInCU: 0x11C82, offset: 0x23C7C, size: 0x8, addend: 0x0, symName: __ZNSt3__112__hash_tableI4Card8CardHashNS_8equal_toIS1_EENS_9allocatorIS1_EEE3endEv, symObjAddr: 0x4830, symBinAddr: 0x10000AFB8, symSize: 0x30 }
  - { offsetInCU: 0x11CAA, offset: 0x23CA4, size: 0x8, addend: 0x0, symName: __ZNSt3__16vectorI4CardNS_9allocatorIS1_EEEC2B7v160006Ev, symObjAddr: 0x4860, symBinAddr: 0x10000AFE8, symSize: 0x58 }
  - { offsetInCU: 0x11CD9, offset: 0x23CD3, size: 0x8, addend: 0x0, symName: __ZNSt3__117__compressed_pairIP4CardNS_9allocatorIS1_EEEC1B7v160006IDnNS_18__default_init_tagEEEOT_OT0_, symObjAddr: 0x48B8, symBinAddr: 0x10000B040, symSize: 0x3C }
  - { offsetInCU: 0x11D31, offset: 0x23D2B, size: 0x8, addend: 0x0, symName: __ZNSt3__117__compressed_pairIP4CardNS_9allocatorIS1_EEEC2B7v160006IDnNS_18__default_init_tagEEEOT_OT0_, symObjAddr: 0x4904, symBinAddr: 0x10000B08C, symSize: 0x40 }
  - { offsetInCU: 0x11D89, offset: 0x23D83, size: 0x8, addend: 0x0, symName: __ZNSt3__122__compressed_pair_elemIP4CardLi0ELb0EEC2B7v160006IDnvEEOT_, symObjAddr: 0x4944, symBinAddr: 0x10000B0CC, symSize: 0x1C }
  - { offsetInCU: 0x11DCB, offset: 0x23DC5, size: 0x8, addend: 0x0, symName: __ZNSt3__122__compressed_pair_elemINS_9allocatorI4CardEELi1ELb1EEC2B7v160006ENS_18__default_init_tagE, symObjAddr: 0x4960, symBinAddr: 0x10000B0E8, symSize: 0x2C }
  - { offsetInCU: 0x11E00, offset: 0x23DFA, size: 0x8, addend: 0x0, symName: __ZNSt3__19allocatorI4CardEC2B7v160006Ev, symObjAddr: 0x498C, symBinAddr: 0x10000B114, symSize: 0x2C }
  - { offsetInCU: 0x11E2A, offset: 0x23E24, size: 0x8, addend: 0x0, symName: __ZNSt3__116__non_trivial_ifILb1ENS_9allocatorI4CardEEEC2B7v160006Ev, symObjAddr: 0x49B8, symBinAddr: 0x10000B140, symSize: 0x14 }
  - { offsetInCU: 0x11E54, offset: 0x23E4E, size: 0x8, addend: 0x0, symName: __ZNSt3__16vectorI4CardNS_9allocatorIS1_EEED2B7v160006Ev, symObjAddr: 0x49CC, symBinAddr: 0x10000B154, symSize: 0x44 }
  - { offsetInCU: 0x11E7E, offset: 0x23E78, size: 0x8, addend: 0x0, symName: __ZNSt3__16vectorI4CardNS_9allocatorIS1_EEE16__destroy_vectorC1ERS4_, symObjAddr: 0x4A10, symBinAddr: 0x10000B198, symSize: 0x34 }
  - { offsetInCU: 0x11EB7, offset: 0x23EB1, size: 0x8, addend: 0x0, symName: __ZNSt3__16vectorI4CardNS_9allocatorIS1_EEE16__destroy_vectorclB7v160006Ev, symObjAddr: 0x4A44, symBinAddr: 0x10000B1CC, symSize: 0x9C }
  - { offsetInCU: 0x11EDD, offset: 0x23ED7, size: 0x8, addend: 0x0, symName: __ZNSt3__16vectorI4CardNS_9allocatorIS1_EEE16__destroy_vectorC2ERS4_, symObjAddr: 0x4AE0, symBinAddr: 0x10000B268, symSize: 0x20 }
  - { offsetInCU: 0x11F16, offset: 0x23F10, size: 0x8, addend: 0x0, symName: __ZNKSt3__16vectorI4CardNS_9allocatorIS1_EEE17__annotate_deleteB7v160006Ev, symObjAddr: 0x4B00, symBinAddr: 0x10000B288, symSize: 0xD4 }
  - { offsetInCU: 0x11F3C, offset: 0x23F36, size: 0x8, addend: 0x0, symName: __ZNSt3__16vectorI4CardNS_9allocatorIS1_EEE7__clearB7v160006Ev, symObjAddr: 0x4BE4, symBinAddr: 0x10000B36C, symSize: 0x28 }
  - { offsetInCU: 0x11F62, offset: 0x23F5C, size: 0x8, addend: 0x0, symName: __ZNSt3__116allocator_traitsINS_9allocatorI4CardEEE10deallocateB7v160006ERS3_PS2_m, symObjAddr: 0x4C0C, symBinAddr: 0x10000B394, symSize: 0x34 }
  - { offsetInCU: 0x11FA4, offset: 0x23F9E, size: 0x8, addend: 0x0, symName: __ZNSt3__16vectorI4CardNS_9allocatorIS1_EEE7__allocB7v160006Ev, symObjAddr: 0x4C40, symBinAddr: 0x10000B3C8, symSize: 0x28 }
  - { offsetInCU: 0x11FCA, offset: 0x23FC4, size: 0x8, addend: 0x0, symName: __ZNKSt3__16vectorI4CardNS_9allocatorIS1_EEE8capacityB7v160006Ev, symObjAddr: 0x4C68, symBinAddr: 0x10000B3F0, symSize: 0x40 }
  - { offsetInCU: 0x11FF0, offset: 0x23FEA, size: 0x8, addend: 0x0, symName: __ZNKSt3__16vectorI4CardNS_9allocatorIS1_EEE31__annotate_contiguous_containerB7v160006EPKvS6_S6_S6_, symObjAddr: 0x4CA8, symBinAddr: 0x10000B430, symSize: 0x20 }
  - { offsetInCU: 0x12046, offset: 0x24040, size: 0x8, addend: 0x0, symName: __ZNKSt3__16vectorI4CardNS_9allocatorIS1_EEE4dataB7v160006Ev, symObjAddr: 0x4CC8, symBinAddr: 0x10000B450, symSize: 0x28 }
  - { offsetInCU: 0x1206C, offset: 0x24066, size: 0x8, addend: 0x0, symName: __ZNKSt3__16vectorI4CardNS_9allocatorIS1_EEE4sizeB7v160006Ev, symObjAddr: 0x4CF0, symBinAddr: 0x10000B478, symSize: 0x28 }
  - { offsetInCU: 0x12092, offset: 0x2408C, size: 0x8, addend: 0x0, symName: __ZNSt3__16vectorI4CardNS_9allocatorIS1_EEE22__base_destruct_at_endB7v160006EPS1_, symObjAddr: 0x4D2C, symBinAddr: 0x10000B4B4, symSize: 0x8C }
  - { offsetInCU: 0x120D6, offset: 0x240D0, size: 0x8, addend: 0x0, symName: __ZNSt3__116allocator_traitsINS_9allocatorI4CardEEE7destroyB7v160006IS2_vEEvRS3_PT_, symObjAddr: 0x4DB8, symBinAddr: 0x10000B540, symSize: 0x2C }
  - { offsetInCU: 0x12113, offset: 0x2410D, size: 0x8, addend: 0x0, symName: __ZNSt3__19allocatorI4CardE7destroyB7v160006EPS1_, symObjAddr: 0x4DE4, symBinAddr: 0x10000B56C, symSize: 0x14 }
  - { offsetInCU: 0x12147, offset: 0x24141, size: 0x8, addend: 0x0, symName: __ZNSt3__19allocatorI4CardE10deallocateB7v160006EPS1_m, symObjAddr: 0x4DF8, symBinAddr: 0x10000B580, symSize: 0x44 }
  - { offsetInCU: 0x12189, offset: 0x24183, size: 0x8, addend: 0x0, symName: __ZNSt3__117__compressed_pairIP4CardNS_9allocatorIS1_EEE6secondB7v160006Ev, symObjAddr: 0x4E3C, symBinAddr: 0x10000B5C4, symSize: 0x24 }
  - { offsetInCU: 0x121AF, offset: 0x241A9, size: 0x8, addend: 0x0, symName: __ZNSt3__122__compressed_pair_elemINS_9allocatorI4CardEELi1ELb1EE5__getB7v160006Ev, symObjAddr: 0x4E60, symBinAddr: 0x10000B5E8, symSize: 0x14 }
  - { offsetInCU: 0x121D5, offset: 0x241CF, size: 0x8, addend: 0x0, symName: __ZNKSt3__16vectorI4CardNS_9allocatorIS1_EEE9__end_capB7v160006Ev, symObjAddr: 0x4E74, symBinAddr: 0x10000B5FC, symSize: 0x28 }
  - { offsetInCU: 0x121FB, offset: 0x241F5, size: 0x8, addend: 0x0, symName: __ZNKSt3__117__compressed_pairIP4CardNS_9allocatorIS1_EEE5firstB7v160006Ev, symObjAddr: 0x4E9C, symBinAddr: 0x10000B624, symSize: 0x24 }
  - { offsetInCU: 0x12221, offset: 0x2421B, size: 0x8, addend: 0x0, symName: __ZNKSt3__122__compressed_pair_elemIP4CardLi0ELb0EE5__getB7v160006Ev, symObjAddr: 0x4EC0, symBinAddr: 0x10000B648, symSize: 0x14 }
  - { offsetInCU: 0x12247, offset: 0x24241, size: 0x8, addend: 0x0, symName: __ZNSt3__16vectorI4CardNS_9allocatorIS1_EEE9__end_capB7v160006Ev, symObjAddr: 0x4ED4, symBinAddr: 0x10000B65C, symSize: 0x28 }
  - { offsetInCU: 0x1226D, offset: 0x24267, size: 0x8, addend: 0x0, symName: __ZNSt3__16vectorI4CardNS_9allocatorIS1_EEE22__construct_one_at_endB7v160006IJRKS1_EEEvDpOT_, symObjAddr: 0x4EFC, symBinAddr: 0x10000B684, symSize: 0x90 }
  - { offsetInCU: 0x122BC, offset: 0x242B6, size: 0x8, addend: 0x0, symName: __ZNSt3__16vectorI4CardNS_9allocatorIS1_EEE21__push_back_slow_pathIRKS1_EEvOT_, symObjAddr: 0x4F8C, symBinAddr: 0x10000B714, symSize: 0xD8 }
  - { offsetInCU: 0x1231A, offset: 0x24314, size: 0x8, addend: 0x0, symName: __ZNSt3__117__compressed_pairIP4CardNS_9allocatorIS1_EEE5firstB7v160006Ev, symObjAddr: 0x5064, symBinAddr: 0x10000B7EC, symSize: 0x24 }
  - { offsetInCU: 0x12340, offset: 0x2433A, size: 0x8, addend: 0x0, symName: __ZNSt3__122__compressed_pair_elemIP4CardLi0ELb0EE5__getB7v160006Ev, symObjAddr: 0x5088, symBinAddr: 0x10000B810, symSize: 0x14 }
  - { offsetInCU: 0x1237F, offset: 0x24379, size: 0x8, addend: 0x0, symName: __ZNSt3__16vectorI4CardNS_9allocatorIS1_EEE21_ConstructTransactionC1B7v160006ERS4_m, symObjAddr: 0x509C, symBinAddr: 0x10000B824, symSize: 0x3C }
  - { offsetInCU: 0x123C7, offset: 0x243C1, size: 0x8, addend: 0x0, symName: __ZNSt3__116allocator_traitsINS_9allocatorI4CardEEE9constructB7v160006IS2_JRKS2_EvEEvRS3_PT_DpOT0_, symObjAddr: 0x50D8, symBinAddr: 0x10000B860, symSize: 0x34 }
  - { offsetInCU: 0x1241E, offset: 0x24418, size: 0x8, addend: 0x0, symName: __ZNSt3__16vectorI4CardNS_9allocatorIS1_EEE21_ConstructTransactionD1B7v160006Ev, symObjAddr: 0x510C, symBinAddr: 0x10000B894, symSize: 0x2C }
  - { offsetInCU: 0x12448, offset: 0x24442, size: 0x8, addend: 0x0, symName: __ZNSt3__16vectorI4CardNS_9allocatorIS1_EEE21_ConstructTransactionC2B7v160006ERS4_m, symObjAddr: 0x5138, symBinAddr: 0x10000B8C0, symSize: 0x4C }
  - { offsetInCU: 0x12490, offset: 0x2448A, size: 0x8, addend: 0x0, symName: __ZNSt3__19allocatorI4CardE9constructB7v160006IS1_JRKS1_EEEvPT_DpOT0_, symObjAddr: 0x5184, symBinAddr: 0x10000B90C, symSize: 0x30 }
  - { offsetInCU: 0x124E6, offset: 0x244E0, size: 0x8, addend: 0x0, symName: __ZNSt3__16vectorI4CardNS_9allocatorIS1_EEE21_ConstructTransactionD2B7v160006Ev, symObjAddr: 0x51B4, symBinAddr: 0x10000B93C, symSize: 0x20 }
  - { offsetInCU: 0x12510, offset: 0x2450A, size: 0x8, addend: 0x0, symName: __ZNKSt3__16vectorI4CardNS_9allocatorIS1_EEE11__recommendB7v160006Em, symObjAddr: 0x51D4, symBinAddr: 0x10000B95C, symSize: 0xB4 }
  - { offsetInCU: 0x12565, offset: 0x2455F, size: 0x8, addend: 0x0, symName: __ZNSt3__114__split_bufferI4CardRNS_9allocatorIS1_EEEC1EmmS4_, symObjAddr: 0x5288, symBinAddr: 0x10000BA10, symSize: 0x44 }
  - { offsetInCU: 0x125BB, offset: 0x245B5, size: 0x8, addend: 0x0, symName: __ZNSt3__114__split_bufferI4CardRNS_9allocatorIS1_EEED1Ev, symObjAddr: 0x53E4, symBinAddr: 0x10000BB6C, symSize: 0x2C }
  - { offsetInCU: 0x125E7, offset: 0x245E1, size: 0x8, addend: 0x0, symName: __ZNKSt3__16vectorI4CardNS_9allocatorIS1_EEE8max_sizeEv, symObjAddr: 0x5410, symBinAddr: 0x10000BB98, symSize: 0x60 }
  - { offsetInCU: 0x1260F, offset: 0x24609, size: 0x8, addend: 0x0, symName: __ZNKSt3__16vectorI4CardNS_9allocatorIS1_EEE20__throw_length_errorB7v160006Ev, symObjAddr: 0x5470, symBinAddr: 0x10000BBF8, symSize: 0x1C }
  - { offsetInCU: 0x1263F, offset: 0x24639, size: 0x8, addend: 0x0, symName: __ZNSt3__116allocator_traitsINS_9allocatorI4CardEEE8max_sizeB7v160006IS3_vEEmRKS3_, symObjAddr: 0x548C, symBinAddr: 0x10000BC14, symSize: 0x24 }
  - { offsetInCU: 0x1266D, offset: 0x24667, size: 0x8, addend: 0x0, symName: __ZNKSt3__16vectorI4CardNS_9allocatorIS1_EEE7__allocB7v160006Ev, symObjAddr: 0x54B0, symBinAddr: 0x10000BC38, symSize: 0x28 }
  - { offsetInCU: 0x12693, offset: 0x2468D, size: 0x8, addend: 0x0, symName: __ZNSt3__114numeric_limitsIlE3maxB7v160006Ev, symObjAddr: 0x54D8, symBinAddr: 0x10000BC60, symSize: 0x14 }
  - { offsetInCU: 0x126A7, offset: 0x246A1, size: 0x8, addend: 0x0, symName: __ZNKSt3__19allocatorI4CardE8max_sizeB7v160006Ev, symObjAddr: 0x54EC, symBinAddr: 0x10000BC74, symSize: 0x18 }
  - { offsetInCU: 0x126CD, offset: 0x246C7, size: 0x8, addend: 0x0, symName: __ZNKSt3__117__compressed_pairIP4CardNS_9allocatorIS1_EEE6secondB7v160006Ev, symObjAddr: 0x5504, symBinAddr: 0x10000BC8C, symSize: 0x24 }
  - { offsetInCU: 0x126F3, offset: 0x246ED, size: 0x8, addend: 0x0, symName: __ZNKSt3__122__compressed_pair_elemINS_9allocatorI4CardEELi1ELb1EE5__getB7v160006Ev, symObjAddr: 0x5528, symBinAddr: 0x10000BCB0, symSize: 0x14 }
  - { offsetInCU: 0x12719, offset: 0x24713, size: 0x8, addend: 0x0, symName: __ZNSt3__123__libcpp_numeric_limitsIlLb1EE3maxB7v160006Ev, symObjAddr: 0x553C, symBinAddr: 0x10000BCC4, symSize: 0x8 }
  - { offsetInCU: 0x1272D, offset: 0x24727, size: 0x8, addend: 0x0, symName: __ZNSt12length_errorC1B7v160006EPKc, symObjAddr: 0x55A8, symBinAddr: 0x10000BD30, symSize: 0x34 }
  - { offsetInCU: 0x12765, offset: 0x2475F, size: 0x8, addend: 0x0, symName: __ZNSt12length_errorC2B7v160006EPKc, symObjAddr: 0x55DC, symBinAddr: 0x10000BD64, symSize: 0x4C }
  - { offsetInCU: 0x1279D, offset: 0x24797, size: 0x8, addend: 0x0, symName: __ZNSt3__114__split_bufferI4CardRNS_9allocatorIS1_EEEC2EmmS4_, symObjAddr: 0x5628, symBinAddr: 0x10000BDB0, symSize: 0xE0 }
  - { offsetInCU: 0x12810, offset: 0x2480A, size: 0x8, addend: 0x0, symName: __ZNSt3__117__compressed_pairIP4CardRNS_9allocatorIS1_EEEC1B7v160006IDnS5_EEOT_OT0_, symObjAddr: 0x5708, symBinAddr: 0x10000BE90, symSize: 0x3C }
  - { offsetInCU: 0x12868, offset: 0x24862, size: 0x8, addend: 0x0, symName: __ZNSt3__114__split_bufferI4CardRNS_9allocatorIS1_EEE7__allocB7v160006Ev, symObjAddr: 0x5784, symBinAddr: 0x10000BF0C, symSize: 0x28 }
  - { offsetInCU: 0x1288E, offset: 0x24888, size: 0x8, addend: 0x0, symName: __ZNSt3__114__split_bufferI4CardRNS_9allocatorIS1_EEE9__end_capB7v160006Ev, symObjAddr: 0x57AC, symBinAddr: 0x10000BF34, symSize: 0x28 }
  - { offsetInCU: 0x128B4, offset: 0x248AE, size: 0x8, addend: 0x0, symName: __ZNSt3__117__compressed_pairIP4CardRNS_9allocatorIS1_EEEC2B7v160006IDnS5_EEOT_OT0_, symObjAddr: 0x57D4, symBinAddr: 0x10000BF5C, symSize: 0x48 }
  - { offsetInCU: 0x1290C, offset: 0x24906, size: 0x8, addend: 0x0, symName: __ZNSt3__122__compressed_pair_elemIRNS_9allocatorI4CardEELi1ELb0EEC2B7v160006IS4_vEEOT_, symObjAddr: 0x581C, symBinAddr: 0x10000BFA4, symSize: 0x20 }
  - { offsetInCU: 0x1294E, offset: 0x24948, size: 0x8, addend: 0x0, symName: __ZNSt3__19allocatorI4CardE8allocateB7v160006Em, symObjAddr: 0x583C, symBinAddr: 0x10000BFC4, symSize: 0x5C }
  - { offsetInCU: 0x12982, offset: 0x2497C, size: 0x8, addend: 0x0, symName: __ZNSt3__117__compressed_pairIP4CardRNS_9allocatorIS1_EEE6secondB7v160006Ev, symObjAddr: 0x5898, symBinAddr: 0x10000C020, symSize: 0x28 }
  - { offsetInCU: 0x129A8, offset: 0x249A2, size: 0x8, addend: 0x0, symName: __ZNSt3__122__compressed_pair_elemIRNS_9allocatorI4CardEELi1ELb0EE5__getB7v160006Ev, symObjAddr: 0x58C0, symBinAddr: 0x10000C048, symSize: 0x18 }
  - { offsetInCU: 0x129CE, offset: 0x249C8, size: 0x8, addend: 0x0, symName: __ZNSt3__117__compressed_pairIP4CardRNS_9allocatorIS1_EEE5firstB7v160006Ev, symObjAddr: 0x58D8, symBinAddr: 0x10000C060, symSize: 0x24 }
  - { offsetInCU: 0x129F4, offset: 0x249EE, size: 0x8, addend: 0x0, symName: __ZNSt3__116reverse_iteratorIP4CardEC1B7v160006ES2_, symObjAddr: 0x5974, symBinAddr: 0x10000C0FC, symSize: 0x34 }
  - { offsetInCU: 0x12A2C, offset: 0x24A26, size: 0x8, addend: 0x0, symName: __ZNKSt3__116reverse_iteratorIP4CardE4baseB7v160006Ev, symObjAddr: 0x59A8, symBinAddr: 0x10000C130, symSize: 0x18 }
  - { offsetInCU: 0x12A52, offset: 0x24A4C, size: 0x8, addend: 0x0, symName: __ZNKSt3__16vectorI4CardNS_9allocatorIS1_EEE14__annotate_newB7v160006Em, symObjAddr: 0x59FC, symBinAddr: 0x10000C184, symSize: 0xC8 }
  - { offsetInCU: 0x12AAA, offset: 0x24AA4, size: 0x8, addend: 0x0, symName: __ZNKSt3__111__move_loopINS_17_ClassicAlgPolicyEEclB7v160006INS_16reverse_iteratorIP4CardEES7_S7_EENS_4pairIT_T1_EES9_T0_SA_, symObjAddr: 0x5DC4, symBinAddr: 0x10000C54C, symSize: 0xA8 }
  - { offsetInCU: 0x12B15, offset: 0x24B0F, size: 0x8, addend: 0x0, symName: __ZNSt3__18_IterOpsINS_17_ClassicAlgPolicyEE11__iter_moveB7v160006IRNS_16reverse_iteratorIP4CardEEEENS_9enable_ifIXsr12is_referenceIDTdeclsr3stdE7declvalIRT_EEEEE5valueEDTclsr3stdE4movedeclsr3stdE7declvalISB_EEEEE4typeEOSA_, symObjAddr: 0x6000, symBinAddr: 0x10000C788, symSize: 0x28 }
  - { offsetInCU: 0x12B41, offset: 0x24B3B, size: 0x8, addend: 0x0, symName: __ZNKSt3__116reverse_iteratorIP4CardEdeB7v160006Ev, symObjAddr: 0x6028, symBinAddr: 0x10000C7B0, symSize: 0x28 }
  - { offsetInCU: 0x12B76, offset: 0x24B70, size: 0x8, addend: 0x0, symName: __ZNSt3__116reverse_iteratorIP4CardEppB7v160006Ev, symObjAddr: 0x6050, symBinAddr: 0x10000C7D8, symSize: 0x20 }
  - { offsetInCU: 0x12B9C, offset: 0x24B96, size: 0x8, addend: 0x0, symName: __ZNSt3__18_IterOpsINS_17_ClassicAlgPolicyEE25__validate_iter_referenceB7v160006IRNS_16reverse_iteratorIP4CardEEEEvv, symObjAddr: 0x6070, symBinAddr: 0x10000C7F8, symSize: 0x4 }
  - { offsetInCU: 0x12BBA, offset: 0x24BB4, size: 0x8, addend: 0x0, symName: __ZNSt3__118__unwrap_iter_implINS_16reverse_iteratorIP4CardEELb0EE8__unwrapB7v160006ES4_, symObjAddr: 0x6074, symBinAddr: 0x10000C7FC, symSize: 0x24 }
  - { offsetInCU: 0x12BE2, offset: 0x24BDC, size: 0x8, addend: 0x0, symName: __ZNSt3__14pairINS_16reverse_iteratorIP4CardEES4_EC1B7v160006IS4_S4_LPv0EEEOT_OT0_, symObjAddr: 0x6098, symBinAddr: 0x10000C820, symSize: 0x3C }
  - { offsetInCU: 0x12C40, offset: 0x24C3A, size: 0x8, addend: 0x0, symName: __ZNSt3__14pairINS_16reverse_iteratorIP4CardEES4_EC2B7v160006IS4_S4_LPv0EEEOT_OT0_, symObjAddr: 0x60D4, symBinAddr: 0x10000C85C, symSize: 0x34 }
  - { offsetInCU: 0x12C9E, offset: 0x24C98, size: 0x8, addend: 0x0, symName: __ZNSt3__118__unwrap_iter_implINS_16reverse_iteratorIP4CardEELb0EE8__rewrapB7v160006ES4_S4_, symObjAddr: 0x6108, symBinAddr: 0x10000C890, symSize: 0x2C }
  - { offsetInCU: 0x12CCC, offset: 0x24CC6, size: 0x8, addend: 0x0, symName: __ZNSt3__116reverse_iteratorIP4CardEC2B7v160006ES2_, symObjAddr: 0x6134, symBinAddr: 0x10000C8BC, symSize: 0x28 }
  - { offsetInCU: 0x12D04, offset: 0x24CFE, size: 0x8, addend: 0x0, symName: __ZNSt3__114__split_bufferI4CardRNS_9allocatorIS1_EEED2Ev, symObjAddr: 0x615C, symBinAddr: 0x10000C8E4, symSize: 0x8C }
  - { offsetInCU: 0x12D30, offset: 0x24D2A, size: 0x8, addend: 0x0, symName: __ZNSt3__114__split_bufferI4CardRNS_9allocatorIS1_EEE5clearB7v160006Ev, symObjAddr: 0x61E8, symBinAddr: 0x10000C970, symSize: 0x28 }
  - { offsetInCU: 0x12D56, offset: 0x24D50, size: 0x8, addend: 0x0, symName: __ZNKSt3__114__split_bufferI4CardRNS_9allocatorIS1_EEE8capacityB7v160006Ev, symObjAddr: 0x6210, symBinAddr: 0x10000C998, symSize: 0x40 }
  - { offsetInCU: 0x12D7C, offset: 0x24D76, size: 0x8, addend: 0x0, symName: __ZNSt3__114__split_bufferI4CardRNS_9allocatorIS1_EEE17__destruct_at_endB7v160006EPS1_, symObjAddr: 0x6250, symBinAddr: 0x10000C9D8, symSize: 0x2C }
  - { offsetInCU: 0x12DB0, offset: 0x24DAA, size: 0x8, addend: 0x0, symName: __ZNSt3__114__split_bufferI4CardRNS_9allocatorIS1_EEE17__destruct_at_endB7v160006EPS1_NS_17integral_constantIbLb0EEE, symObjAddr: 0x627C, symBinAddr: 0x10000CA04, symSize: 0x80 }
  - { offsetInCU: 0x12DF1, offset: 0x24DEB, size: 0x8, addend: 0x0, symName: __ZNKSt3__114__split_bufferI4CardRNS_9allocatorIS1_EEE9__end_capB7v160006Ev, symObjAddr: 0x62FC, symBinAddr: 0x10000CA84, symSize: 0x28 }
  - { offsetInCU: 0x12E17, offset: 0x24E11, size: 0x8, addend: 0x0, symName: __ZNKSt3__117__compressed_pairIP4CardRNS_9allocatorIS1_EEE5firstB7v160006Ev, symObjAddr: 0x6324, symBinAddr: 0x10000CAAC, symSize: 0x24 }
  - { offsetInCU: 0x12E3D, offset: 0x24E37, size: 0x8, addend: 0x0, symName: __ZNSt3__16vectorI4CardNS_9allocatorIS1_EEE11__make_iterB7v160006EPS1_, symObjAddr: 0x6348, symBinAddr: 0x10000CAD0, symSize: 0x34 }
  - { offsetInCU: 0x12E72, offset: 0x24E6C, size: 0x8, addend: 0x0, symName: __ZNSt3__111__wrap_iterIP4CardEC1B7v160006EPKvS2_, symObjAddr: 0x637C, symBinAddr: 0x10000CB04, symSize: 0x3C }
  - { offsetInCU: 0x12EB8, offset: 0x24EB2, size: 0x8, addend: 0x0, symName: __ZNSt3__111__wrap_iterIP4CardEC2B7v160006EPKvS2_, symObjAddr: 0x63B8, symBinAddr: 0x10000CB40, symSize: 0x24 }
  - { offsetInCU: 0x12EFE, offset: 0x24EF8, size: 0x8, addend: 0x0, symName: __ZNSt3__18_IterOpsINS_17_ClassicAlgPolicyEE4nextB7v160006INS_11__wrap_iterIP4CardEEEET_S8_S8_, symObjAddr: 0x6518, symBinAddr: 0x10000CCA0, symSize: 0x20 }
  - { offsetInCU: 0x12F35, offset: 0x24F2F, size: 0x8, addend: 0x0, symName: __ZNSt3__124uniform_int_distributionIlEC1Ev, symObjAddr: 0x6580, symBinAddr: 0x10000CD08, symSize: 0x3C }
  - { offsetInCU: 0x12F5F, offset: 0x24F59, size: 0x8, addend: 0x0, symName: __ZNSt3__111__wrap_iterIP4CardEmmB7v160006Ev, symObjAddr: 0x65BC, symBinAddr: 0x10000CD44, symSize: 0x20 }
  - { offsetInCU: 0x12F85, offset: 0x24F7F, size: 0x8, addend: 0x0, symName: __ZNSt3__124uniform_int_distributionIlE10param_typeC1Ell, symObjAddr: 0x6798, symBinAddr: 0x10000CF20, symSize: 0x3C }
  - { offsetInCU: 0x12FD0, offset: 0x24FCA, size: 0x8, addend: 0x0, symName: __ZNSt3__18_IterOpsINS_17_ClassicAlgPolicyEE9iter_swapB7v160006IRNS_11__wrap_iterIP4CardEES7_EEvOT_OT0_, symObjAddr: 0x67D4, symBinAddr: 0x10000CF5C, symSize: 0x44 }
  - { offsetInCU: 0x13013, offset: 0x2500D, size: 0x8, addend: 0x0, symName: __ZNKSt3__111__wrap_iterIP4CardEplB7v160006El, symObjAddr: 0x6818, symBinAddr: 0x10000CFA0, symSize: 0x3C }
  - { offsetInCU: 0x13056, offset: 0x25050, size: 0x8, addend: 0x0, symName: __ZNSt3__124uniform_int_distributionIlEC1Ell, symObjAddr: 0x6854, symBinAddr: 0x10000CFDC, symSize: 0x3C }
  - { offsetInCU: 0x1309C, offset: 0x25096, size: 0x8, addend: 0x0, symName: __ZNSt3__124uniform_int_distributionIlEC2Ell, symObjAddr: 0x6890, symBinAddr: 0x10000D018, symSize: 0x3C }
  - { offsetInCU: 0x130E2, offset: 0x250DC, size: 0x8, addend: 0x0, symName: __ZNKSt3__124uniform_int_distributionIlE10param_type1bEv, symObjAddr: 0x68CC, symBinAddr: 0x10000D054, symSize: 0x18 }
  - { offsetInCU: 0x13108, offset: 0x25102, size: 0x8, addend: 0x0, symName: __ZNKSt3__124uniform_int_distributionIlE10param_type1aEv, symObjAddr: 0x68E4, symBinAddr: 0x10000D06C, symSize: 0x18 }
  - { offsetInCU: 0x1312E, offset: 0x25128, size: 0x8, addend: 0x0, symName: __ZNSt3__125__independent_bits_engineINS_23mersenne_twister_engineIjLm32ELm624ELm397ELm31ELj2567483615ELm11ELj4294967295ELm7ELj2636928640ELm15ELj4022730752ELm18ELj1812433253EEEmEC1ERS2_m, symObjAddr: 0x68FC, symBinAddr: 0x10000D084, symSize: 0x3C }
  - { offsetInCU: 0x13175, offset: 0x2516F, size: 0x8, addend: 0x0, symName: __ZNSt3__125__independent_bits_engineINS_23mersenne_twister_engineIjLm32ELm624ELm397ELm31ELj2567483615ELm11ELj4294967295ELm7ELj2636928640ELm15ELj4022730752ELm18ELj1812433253EEEmEclEv, symObjAddr: 0x6938, symBinAddr: 0x10000D0C0, symSize: 0x24 }
  - { offsetInCU: 0x1319B, offset: 0x25195, size: 0x8, addend: 0x0, symName: __ZNSt3__114numeric_limitsImE3maxB7v160006Ev, symObjAddr: 0x69B0, symBinAddr: 0x10000D138, symSize: 0x14 }
  - { offsetInCU: 0x131AF, offset: 0x251A9, size: 0x8, addend: 0x0, symName: __ZNSt3__125__independent_bits_engineINS_23mersenne_twister_engineIjLm32ELm624ELm397ELm31ELj2567483615ELm11ELj4294967295ELm7ELj2636928640ELm15ELj4022730752ELm18ELj1812433253EEEmEC2ERS2_m, symObjAddr: 0x69C4, symBinAddr: 0x10000D14C, symSize: 0x264 }
  - { offsetInCU: 0x131F6, offset: 0x251F0, size: 0x8, addend: 0x0, symName: __ZNSt3__125__independent_bits_engineINS_23mersenne_twister_engineIjLm32ELm624ELm397ELm31ELj2567483615ELm11ELj4294967295ELm7ELj2636928640ELm15ELj4022730752ELm18ELj1812433253EEEmE6__evalENS_17integral_constantIbLb1EEE, symObjAddr: 0x6C28, symBinAddr: 0x10000D3B0, symSize: 0x1F0 }
  - { offsetInCU: 0x132BA, offset: 0x252B4, size: 0x8, addend: 0x0, symName: __ZNSt3__123mersenne_twister_engineIjLm32ELm624ELm397ELm31ELj2567483615ELm11ELj4294967295ELm7ELj2636928640ELm15ELj4022730752ELm18ELj1812433253EE3minB7v160006Ev, symObjAddr: 0x6F64, symBinAddr: 0x10000D5A0, symSize: 0x8 }
  - { offsetInCU: 0x132CE, offset: 0x252C8, size: 0x8, addend: 0x0, symName: __ZNSt3__123__libcpp_numeric_limitsImLb1EE3maxB7v160006Ev, symObjAddr: 0x6FEC, symBinAddr: 0x10000D5A8, symSize: 0x8 }
  - { offsetInCU: 0x132E2, offset: 0x252DC, size: 0x8, addend: 0x0, symName: __ZNSt3__124uniform_int_distributionIlE10param_typeC2Ell, symObjAddr: 0x6FF4, symBinAddr: 0x10000D5B0, symSize: 0x2C }
  - { offsetInCU: 0x13328, offset: 0x25322, size: 0x8, addend: 0x0, symName: __ZNSt3__111__wrap_iterIP4CardEpLB7v160006El, symObjAddr: 0x70C4, symBinAddr: 0x10000D680, symSize: 0x30 }
  - { offsetInCU: 0x1335C, offset: 0x25356, size: 0x8, addend: 0x0, symName: __ZNKSt3__110__list_impI4CardNS_9allocatorIS1_EEE5beginB7v160006Ev, symObjAddr: 0x7F68, symBinAddr: 0x10000D6B0, symSize: 0x30 }
  - { offsetInCU: 0x13382, offset: 0x2537C, size: 0x8, addend: 0x0, symName: __ZNSt3__121__list_const_iteratorI4CardPvEC1B7v160006EPNS_16__list_node_baseIS1_S2_EEPKv, symObjAddr: 0x7F98, symBinAddr: 0x10000D6E0, symSize: 0x3C }
  - { offsetInCU: 0x133CA, offset: 0x253C4, size: 0x8, addend: 0x0, symName: __ZNSt3__121__list_const_iteratorI4CardPvEC2B7v160006EPNS_16__list_node_baseIS1_S2_EEPKv, symObjAddr: 0x7FD4, symBinAddr: 0x10000D71C, symSize: 0x24 }
  - { offsetInCU: 0x13412, offset: 0x2540C, size: 0x8, addend: 0x0, symName: __ZNKSt3__110__list_impI4CardNS_9allocatorIS1_EEE3endB7v160006Ev, symObjAddr: 0x7FF8, symBinAddr: 0x10000D740, symSize: 0x3C }
  - { offsetInCU: 0x3F, offset: 0x255FC, size: 0x8, addend: 0x0, symName: _SUIT_COLORS, symObjAddr: 0x53110, symBinAddr: 0x10001C008, symSize: 0x0 }
  - { offsetInCU: 0x306E, offset: 0x2862B, size: 0x8, addend: 0x0, symName: __ZNSt3__17advanceB7v160006INS_15__list_iteratorI4CardPvEEllvEEvRT_T0_, symObjAddr: 0x210C, symBinAddr: 0x10000EF48, symSize: 0x50 }
  - { offsetInCU: 0x3264, offset: 0x28821, size: 0x8, addend: 0x0, symName: __ZNSt3__17advanceB7v160006INS_21__tree_const_iteratorINS_12__value_typeI4Suit5ColorEEPNS_11__tree_nodeIS5_PvEElEEllvEEvRT_T0_, symObjAddr: 0x3C5C, symBinAddr: 0x100010A98, symSize: 0x50 }
  - { offsetInCU: 0x49B7, offset: 0x29F74, size: 0x8, addend: 0x0, symName: __ZNSt3__113adjacent_findB7v160006INS_21__list_const_iteratorI4CardPvEEPFbS2_S2_EEET_S7_S7_T0_, symObjAddr: 0x454, symBinAddr: 0x10000DBC4, symSize: 0x50 }
  - { offsetInCU: 0x5511, offset: 0x2AACE, size: 0x8, addend: 0x0, symName: __ZNSt3__19make_pairB7v160006IR8CardDeckS2_EENS_4pairINS_18__unwrap_ref_decayIT_E4typeENS4_IT0_E4typeEEEOS5_OS8_, symObjAddr: 0x8B4, symBinAddr: 0x10000DEAC, symSize: 0x40 }
  - { offsetInCU: 0x5560, offset: 0x2AB1D, size: 0x8, addend: 0x0, symName: __ZNSt3__19make_pairB7v160006I8CardDeckRS1_EENS_4pairINS_18__unwrap_ref_decayIT_E4typeENS4_IT0_E4typeEEEOS5_OS8_, symObjAddr: 0xE78, symBinAddr: 0x10000E470, symSize: 0x40 }
  - { offsetInCU: 0x55AF, offset: 0x2AB6C, size: 0x8, addend: 0x0, symName: __ZNSt3__14nextB7v160006INS_15__list_iteratorI4CardPvEEEENS_9enable_ifIXsr25__is_cpp17_input_iteratorIT_EE5valueES6_E4typeES6_NS_15iterator_traitsIS6_E15difference_typeE, symObjAddr: 0xF44, symBinAddr: 0x10000E53C, symSize: 0x50 }
  - { offsetInCU: 0x55F2, offset: 0x2ABAF, size: 0x8, addend: 0x0, symName: __ZNSt3__1neB7v160006ERKNS_15__list_iteratorI4CardPvEES5_, symObjAddr: 0xF94, symBinAddr: 0x10000E58C, symSize: 0x34 }
  - { offsetInCU: 0x562F, offset: 0x2ABEC, size: 0x8, addend: 0x0, symName: __ZNSt3__14prevB7v160006INS_15__list_iteratorI4CardPvEEEENS_9enable_ifIXsr25__is_cpp17_input_iteratorIT_EE5valueES6_E4typeES6_NS_15iterator_traitsIS6_E15difference_typeE, symObjAddr: 0xFC8, symBinAddr: 0x10000E5C0, symSize: 0x58 }
  - { offsetInCU: 0x5672, offset: 0x2AC2F, size: 0x8, addend: 0x0, symName: __ZNSt3__1eqB7v160006ERKNS_15__list_iteratorI4CardPvEES5_, symObjAddr: 0x104C, symBinAddr: 0x10000E644, symSize: 0x30 }
  - { offsetInCU: 0x56AF, offset: 0x2AC6C, size: 0x8, addend: 0x0, symName: __ZNSt3__110make_tupleB7v160006IJbi8CardDeckRS1_EEENS_5tupleIJDpNS_18__unwrap_ref_decayIT_E4typeEEEEDpOS5_, symObjAddr: 0x130C, symBinAddr: 0x10000E808, symSize: 0x50 }
  - { offsetInCU: 0x61A6, offset: 0x2B763, size: 0x8, addend: 0x0, symName: __ZNSt3__121__convert_to_integralB7v160006El, symObjAddr: 0x215C, symBinAddr: 0x10000EF98, symSize: 0x14 }
  - { offsetInCU: 0x61D2, offset: 0x2B78F, size: 0x8, addend: 0x0, symName: __ZNSt3__19__advanceB7v160006INS_15__list_iteratorI4CardPvEEEEvRT_NS_15iterator_traitsIS5_E15difference_typeENS_26bidirectional_iterator_tagE, symObjAddr: 0x2170, symBinAddr: 0x10000EFAC, symSize: 0xA4 }
  - { offsetInCU: 0x625C, offset: 0x2B819, size: 0x8, addend: 0x0, symName: __ZNSt3__13getB7v160006ILm0EJbi8CardDeckS1_EEERNS_13tuple_elementIXT_ENS_5tupleIJDpT0_EEEE4typeERS6_, symObjAddr: 0x2580, symBinAddr: 0x10000F3BC, symSize: 0x24 }
  - { offsetInCU: 0x62AD, offset: 0x2B86A, size: 0x8, addend: 0x0, symName: __ZNSt3__13getB7v160006ILm1EJbi8CardDeckS1_EEERNS_13tuple_elementIXT_ENS_5tupleIJDpT0_EEEE4typeERS6_, symObjAddr: 0x25A4, symBinAddr: 0x10000F3E0, symSize: 0x28 }
  - { offsetInCU: 0x62FE, offset: 0x2B8BB, size: 0x8, addend: 0x0, symName: __ZNSt3__13getB7v160006ILm2EJbi8CardDeckS1_EEERNS_13tuple_elementIXT_ENS_5tupleIJDpT0_EEEE4typeERS6_, symObjAddr: 0x25F0, symBinAddr: 0x10000F42C, symSize: 0x28 }
  - { offsetInCU: 0x634F, offset: 0x2B90C, size: 0x8, addend: 0x0, symName: __ZNSt3__13getB7v160006ILm3EJbi8CardDeckS1_EEERNS_13tuple_elementIXT_ENS_5tupleIJDpT0_EEEE4typeERS6_, symObjAddr: 0x2618, symBinAddr: 0x10000F454, symSize: 0x28 }
  - { offsetInCU: 0x63F7, offset: 0x2B9B4, size: 0x8, addend: 0x0, symName: __ZNSt3__1eqB7v160006ERKNS_21__tree_const_iteratorINS_12__value_typeI4Suit5ColorEEPNS_11__tree_nodeIS4_PvEElEESB_, symObjAddr: 0x35D4, symBinAddr: 0x100010410, symSize: 0x30 }
  - { offsetInCU: 0x6434, offset: 0x2B9F1, size: 0x8, addend: 0x0, symName: __ZNSt3__14nextB7v160006INS_21__tree_const_iteratorINS_12__value_typeI4Suit5ColorEEPNS_11__tree_nodeIS5_PvEElEEEENS_9enable_ifIXsr25__is_cpp17_input_iteratorIT_EE5valueESC_E4typeESC_NS_15iterator_traitsISC_E15difference_typeE, symObjAddr: 0x3944, symBinAddr: 0x100010780, symSize: 0x50 }
  - { offsetInCU: 0x6477, offset: 0x2BA34, size: 0x8, addend: 0x0, symName: __ZNSt3__17launderB7v160006IKNS_4pairIK4Suit5ColorEEEEPT_S8_, symObjAddr: 0x3AB0, symBinAddr: 0x1000108EC, symSize: 0x24 }
  - { offsetInCU: 0x64AE, offset: 0x2BA6B, size: 0x8, addend: 0x0, symName: __ZNSt3__19__launderB7v160006IKNS_4pairIK4Suit5ColorEEEEPT_S8_, symObjAddr: 0x3AD4, symBinAddr: 0x100010910, symSize: 0x14 }
  - { offsetInCU: 0x64E5, offset: 0x2BAA2, size: 0x8, addend: 0x0, symName: __ZNSt3__116__tree_prev_iterB7v160006IPNS_16__tree_node_baseIPvEEPNS_15__tree_end_nodeIS4_EEEET_T0_, symObjAddr: 0x3AE8, symBinAddr: 0x100010924, symSize: 0xA4 }
  - { offsetInCU: 0x6532, offset: 0x2BAEF, size: 0x8, addend: 0x0, symName: __ZNSt3__110__tree_maxB7v160006IPNS_16__tree_node_baseIPvEEEET_S5_, symObjAddr: 0x3B8C, symBinAddr: 0x1000109C8, symSize: 0x40 }
  - { offsetInCU: 0x6567, offset: 0x2BB24, size: 0x8, addend: 0x0, symName: __ZNSt3__120__tree_is_left_childB7v160006IPNS_16__tree_node_baseIPvEEEEbT_, symObjAddr: 0x3BCC, symBinAddr: 0x100010A08, symSize: 0x2C }
  - { offsetInCU: 0x659C, offset: 0x2BB59, size: 0x8, addend: 0x0, symName: __ZNSt3__19__advanceB7v160006INS_21__tree_const_iteratorINS_12__value_typeI4Suit5ColorEEPNS_11__tree_nodeIS5_PvEElEEEEvRT_NS_15iterator_traitsISB_E15difference_typeENS_26bidirectional_iterator_tagE, symObjAddr: 0x3CAC, symBinAddr: 0x100010AE8, symSize: 0xA4 }
  - { offsetInCU: 0x65E7, offset: 0x2BBA4, size: 0x8, addend: 0x0, symName: __ZNSt3__116__tree_next_iterB7v160006IPNS_15__tree_end_nodeIPNS_16__tree_node_baseIPvEEEES5_EET_T0_, symObjAddr: 0x3D88, symBinAddr: 0x100010BC4, symSize: 0x80 }
  - { offsetInCU: 0x6625, offset: 0x2BBE2, size: 0x8, addend: 0x0, symName: __ZNSt3__110__tree_minB7v160006IPNS_16__tree_node_baseIPvEEEET_S5_, symObjAddr: 0x3E08, symBinAddr: 0x100010C44, symSize: 0x40 }
  - { offsetInCU: 0x6678, offset: 0x2BC35, size: 0x8, addend: 0x0, symName: __ZNSt3__17launderB7v160006INS_4pairIK4Suit5ColorEEEEPT_S7_, symObjAddr: 0x4310, symBinAddr: 0x100011068, symSize: 0x24 }
  - { offsetInCU: 0x66AF, offset: 0x2BC6C, size: 0x8, addend: 0x0, symName: __ZNSt3__19__launderB7v160006INS_4pairIK4Suit5ColorEEEEPT_S7_, symObjAddr: 0x4334, symBinAddr: 0x10001108C, symSize: 0x14 }
  - { offsetInCU: 0x66E6, offset: 0x2BCA3, size: 0x8, addend: 0x0, symName: __ZNSt3__127__tree_balance_after_insertB7v160006IPNS_16__tree_node_baseIPvEEEEvT_S5_, symObjAddr: 0x43BC, symBinAddr: 0x100011114, symSize: 0x27C }
  - { offsetInCU: 0x6762, offset: 0x2BD1F, size: 0x8, addend: 0x0, symName: __ZNSt3__118__tree_left_rotateB7v160006IPNS_16__tree_node_baseIPvEEEEvT_, symObjAddr: 0x4660, symBinAddr: 0x1000113B8, symSize: 0xD8 }
  - { offsetInCU: 0x67A4, offset: 0x2BD61, size: 0x8, addend: 0x0, symName: __ZNSt3__119__tree_right_rotateB7v160006IPNS_16__tree_node_baseIPvEEEEvT_, symObjAddr: 0x4738, symBinAddr: 0x100011490, symSize: 0xCC }
  - { offsetInCU: 0x67E6, offset: 0x2BDA3, size: 0x8, addend: 0x0, symName: __ZNSt3__1neB7v160006ERKNS_15__tree_iteratorINS_12__value_typeI4Suit5ColorEEPNS_11__tree_nodeIS4_PvEElEESB_, symObjAddr: 0x4D8C, symBinAddr: 0x100011AE4, symSize: 0x34 }
  - { offsetInCU: 0x6823, offset: 0x2BDE0, size: 0x8, addend: 0x0, symName: __ZNSt3__1eqB7v160006ERKNS_15__tree_iteratorINS_12__value_typeI4Suit5ColorEEPNS_11__tree_nodeIS4_PvEElEESB_, symObjAddr: 0x4DE8, symBinAddr: 0x100011B40, symSize: 0x30 }
  - { offsetInCU: 0x68C6, offset: 0x2BE83, size: 0x8, addend: 0x0, symName: __ZNSt3__115__adjacent_findB7v160006INS_21__list_const_iteratorI4CardPvEES4_RPFbS2_S2_EEET_S8_T0_OT1_, symObjAddr: 0x4F50, symBinAddr: 0x100011BDC, symSize: 0x150 }
  - { offsetInCU: 0x6939, offset: 0x2BEF6, size: 0x8, addend: 0x0, symName: __ZNSt3__122__make_exception_guardB7v160006INS_6vectorI4CardNS_9allocatorIS2_EEE16__destroy_vectorEEENS_28__exception_guard_exceptionsIT_EES8_, symObjAddr: 0x5FA4, symBinAddr: 0x1000125E0, symSize: 0x40 }
  - { offsetInCU: 0x696E, offset: 0x2BF2B, size: 0x8, addend: 0x0, symName: __ZNSt3__130__uninitialized_allocator_copyB7v160006INS_9allocatorI4CardEES2_S2_LPv0EEEPT0_RT_PKS5_SA_S6_, symObjAddr: 0x6970, symBinAddr: 0x100012858, symSize: 0x38 }
  - { offsetInCU: 0x69E7, offset: 0x2BFA4, size: 0x8, addend: 0x0, symName: __ZNSt3__14copyB7v160006IPK4CardPS1_EET0_T_S6_S5_, symObjAddr: 0x6A20, symBinAddr: 0x100012890, symSize: 0x40 }
  - { offsetInCU: 0x6A41, offset: 0x2BFFE, size: 0x8, addend: 0x0, symName: __ZNSt3__16__copyB7v160006INS_17_ClassicAlgPolicyEPK4CardS4_PS2_EENS_4pairIT0_T2_EES7_T1_S8_, symObjAddr: 0x6A60, symBinAddr: 0x1000128D0, symSize: 0x44 }
  - { offsetInCU: 0x6AAD, offset: 0x2C06A, size: 0x8, addend: 0x0, symName: __ZNSt3__123__dispatch_copy_or_moveB7v160006INS_17_ClassicAlgPolicyENS_11__copy_loopIS1_EENS_14__copy_trivialEPK4CardS7_PS5_EENS_4pairIT2_T4_EESA_T3_SB_, symObjAddr: 0x6AA4, symBinAddr: 0x100012914, symSize: 0x44 }
  - { offsetInCU: 0x6B2B, offset: 0x2C0E8, size: 0x8, addend: 0x0, symName: __ZNSt3__121__unwrap_and_dispatchB7v160006INS_10__overloadINS_11__copy_loopINS_17_ClassicAlgPolicyEEENS_14__copy_trivialEEEPK4CardS9_PS7_Li0EEENS_4pairIT0_T2_EESC_T1_SD_, symObjAddr: 0x6AE8, symBinAddr: 0x100012958, symSize: 0xB4 }
  - { offsetInCU: 0x6BBC, offset: 0x2C179, size: 0x8, addend: 0x0, symName: __ZNSt3__114__unwrap_rangeB7v160006IPK4CardS3_EENS_4pairIT0_S5_EET_S7_, symObjAddr: 0x6B9C, symBinAddr: 0x100012A0C, symSize: 0x60 }
  - { offsetInCU: 0x6D52, offset: 0x2C30F, size: 0x8, addend: 0x0, symName: __ZNSt3__113__unwrap_iterB7v160006IP4CardNS_18__unwrap_iter_implIS2_Lb1EEELi0EEEDTclsrT0_8__unwrapclsr3stdE7declvalIT_EEEES6_, symObjAddr: 0x6C44, symBinAddr: 0x100012AB4, symSize: 0x24 }
  - { offsetInCU: 0x6D97, offset: 0x2C354, size: 0x8, addend: 0x0, symName: __ZNSt3__19make_pairB7v160006IPK4CardPS1_EENS_4pairINS_18__unwrap_ref_decayIT_E4typeENS6_IT0_E4typeEEEOS7_OSA_, symObjAddr: 0x6C68, symBinAddr: 0x100012AD8, symSize: 0x38 }
  - { offsetInCU: 0x6DE6, offset: 0x2C3A3, size: 0x8, addend: 0x0, symName: __ZNSt3__114__rewrap_rangeB7v160006IPK4CardS3_EET_S4_T0_, symObjAddr: 0x6CA0, symBinAddr: 0x100012B10, symSize: 0x2C }
  - { offsetInCU: 0x6E32, offset: 0x2C3EF, size: 0x8, addend: 0x0, symName: __ZNSt3__113__rewrap_iterB7v160006IP4CardS2_NS_18__unwrap_iter_implIS2_Lb1EEEEET_S5_T0_, symObjAddr: 0x6CCC, symBinAddr: 0x100012B3C, symSize: 0x3C }
  - { offsetInCU: 0x6E87, offset: 0x2C444, size: 0x8, addend: 0x0, symName: __ZNSt3__19make_pairB7v160006IPK4CardS3_EENS_4pairINS_18__unwrap_ref_decayIT_E4typeENS5_IT0_E4typeEEEOS6_OS9_, symObjAddr: 0x6D08, symBinAddr: 0x100012B78, symSize: 0x38 }
  - { offsetInCU: 0x6ED6, offset: 0x2C493, size: 0x8, addend: 0x0, symName: __ZNSt3__113__unwrap_iterB7v160006IPK4CardNS_18__unwrap_iter_implIS3_Lb1EEELi0EEEDTclsrT0_8__unwrapclsr3stdE7declvalIT_EEEES7_, symObjAddr: 0x6D40, symBinAddr: 0x100012BB0, symSize: 0x24 }
  - { offsetInCU: 0x7043, offset: 0x2C600, size: 0x8, addend: 0x0, symName: __ZNSt3__112__to_addressB7v160006IK4CardEEPT_S4_, symObjAddr: 0x6DF8, symBinAddr: 0x100012C68, symSize: 0x14 }
  - { offsetInCU: 0x7078, offset: 0x2C635, size: 0x8, addend: 0x0, symName: __ZNSt3__119__copy_trivial_implB7v160006IK4CardS1_EENS_4pairIPT_PT0_EES5_S5_S7_, symObjAddr: 0x6E0C, symBinAddr: 0x100012C7C, symSize: 0x8C }
  - { offsetInCU: 0x70E1, offset: 0x2C69E, size: 0x8, addend: 0x0, symName: __ZNSt3__19make_pairB7v160006IRPK4CardPS1_EENS_4pairINS_18__unwrap_ref_decayIT_E4typeENS7_IT0_E4typeEEEOS8_OSB_, symObjAddr: 0x6E98, symBinAddr: 0x100012D08, symSize: 0x38 }
  - { offsetInCU: 0x7184, offset: 0x2C741, size: 0x8, addend: 0x0, symName: __ZNSt3__113__rewrap_iterB7v160006IPK4CardS3_NS_18__unwrap_iter_implIS3_Lb1EEEEET_S6_T0_, symObjAddr: 0x6FD4, symBinAddr: 0x100012E44, symSize: 0x3C }
  - { offsetInCU: 0x7800, offset: 0x2CDBD, size: 0x8, addend: 0x0, symName: _HAND_SIZE, symObjAddr: 0x84CC, symBinAddr: 0x10001C000, symSize: 0x0 }
  - { offsetInCU: 0x7816, offset: 0x2CDD3, size: 0x8, addend: 0x0, symName: _SANDWICH_SIZE, symObjAddr: 0x84D0, symBinAddr: 0x10001C004, symSize: 0x0 }
  - { offsetInCU: 0x96A2, offset: 0x2EC5F, size: 0x8, addend: 0x0, symName: __ZNSt3__13mapI4Suit5ColorNS_4lessIS1_EENS_9allocatorINS_4pairIKS1_S2_EEEEEC1B7v160006ESt16initializer_listIS8_ERKS4_, symObjAddr: 0x0, symBinAddr: 0x10000D7AC, symSize: 0x44 }
  - { offsetInCU: 0x96EA, offset: 0x2ECA7, size: 0x8, addend: 0x0, symName: __ZNSt3__13mapI4Suit5ColorNS_4lessIS1_EENS_9allocatorINS_4pairIKS1_S2_EEEEED1B7v160006Ev, symObjAddr: 0x44, symBinAddr: 0x10000D7F0, symSize: 0x2C }
  - { offsetInCU: 0x9713, offset: 0x2ECD0, size: 0x8, addend: 0x0, symName: __Z19are_different_suits4CardS_, symObjAddr: 0x70, symBinAddr: 0x10000D81C, symSize: 0xB8 }
  - { offsetInCU: 0x974D, offset: 0x2ED0A, size: 0x8, addend: 0x0, symName: __Z20are_different_colors4CardS_, symObjAddr: 0x128, symBinAddr: 0x10000D8D4, symSize: 0xB8 }
  - { offsetInCU: 0x9787, offset: 0x2ED44, size: 0x8, addend: 0x0, symName: __Z14get_card_colorRK4Card, symObjAddr: 0x1E0, symBinAddr: 0x10000D98C, symSize: 0x64 }
  - { offsetInCU: 0x97B3, offset: 0x2ED70, size: 0x8, addend: 0x0, symName: __Z5clampiii, symObjAddr: 0x244, symBinAddr: 0x10000D9F0, symSize: 0xB4 }
  - { offsetInCU: 0x980B, offset: 0x2EDC8, size: 0x8, addend: 0x0, symName: __ZNSt3__13mapI4Suit5ColorNS_4lessIS1_EENS_9allocatorINS_4pairIKS1_S2_EEEEE4findB7v160006ERS7_, symObjAddr: 0x2F8, symBinAddr: 0x10000DAA4, symSize: 0x40 }
  - { offsetInCU: 0x9840, offset: 0x2EDFD, size: 0x8, addend: 0x0, symName: __ZNKSt3__114__map_iteratorINS_15__tree_iteratorINS_12__value_typeI4Suit5ColorEEPNS_11__tree_nodeIS5_PvEElEEEptB7v160006Ev, symObjAddr: 0x344, symBinAddr: 0x10000DAE4, symSize: 0x2C }
  - { offsetInCU: 0x9865, offset: 0x2EE22, size: 0x8, addend: 0x0, symName: __Z14get_card_valueRK4Card, symObjAddr: 0x370, symBinAddr: 0x10000DB10, symSize: 0x24 }
  - { offsetInCU: 0x9891, offset: 0x2EE4E, size: 0x8, addend: 0x0, symName: __Z17are_all_same_suitRK8CardDeck, symObjAddr: 0x394, symBinAddr: 0x10000DB34, symSize: 0x90 }
  - { offsetInCU: 0x994E, offset: 0x2EF0B, size: 0x8, addend: 0x0, symName: __Z18are_all_same_colorRK8CardDeck, symObjAddr: 0x4FC, symBinAddr: 0x10000DC14, symSize: 0x90 }
  - { offsetInCU: 0x997A, offset: 0x2EF37, size: 0x8, addend: 0x0, symName: __Z11create_hand8CardDeck, symObjAddr: 0x58C, symBinAddr: 0x10000DCA4, symSize: 0x5C }
  - { offsetInCU: 0x99A7, offset: 0x2EF64, size: 0x8, addend: 0x0, symName: __Z10draw_cards8CardDeckm, symObjAddr: 0x5E8, symBinAddr: 0x10000DD00, symSize: 0xC8 }
  - { offsetInCU: 0x9AE7, offset: 0x2F0A4, size: 0x8, addend: 0x0, symName: __ZN8CardDeckC1ERKS_, symObjAddr: 0x6B0, symBinAddr: 0x10000DDC8, symSize: 0x34 }
  - { offsetInCU: 0x9B1C, offset: 0x2F0D9, size: 0x8, addend: 0x0, symName: __ZNSt3__14listI4CardNS_9allocatorIS1_EEE5frontB7v160006Ev, symObjAddr: 0x710, symBinAddr: 0x10000DDFC, symSize: 0x2C }
  - { offsetInCU: 0x9B42, offset: 0x2F0FF, size: 0x8, addend: 0x0, symName: __ZNSt3__14listI4CardNS_9allocatorIS1_EEE9pop_frontEv, symObjAddr: 0x830, symBinAddr: 0x10000DE28, symSize: 0x84 }
  - { offsetInCU: 0x9B96, offset: 0x2F153, size: 0x8, addend: 0x0, symName: __Z13find_sandwich8CardDeck, symObjAddr: 0x8F4, symBinAddr: 0x10000DEEC, symSize: 0x55C }
  - { offsetInCU: 0x9C93, offset: 0x2F250, size: 0x8, addend: 0x0, symName: __ZNKSt3__14listI4CardNS_9allocatorIS1_EEE4sizeB7v160006Ev, symObjAddr: 0xE50, symBinAddr: 0x10000E448, symSize: 0x28 }
  - { offsetInCU: 0x9CB9, offset: 0x2F276, size: 0x8, addend: 0x0, symName: '__ZNSt3__14listI4CardNS_9allocatorIS1_EEE4sortIZ13find_sandwich8CardDeckE3$_0EEvT_', symObjAddr: 0xEB8, symBinAddr: 0x10000E4B0, symSize: 0x60 }
  - { offsetInCU: 0x9CF9, offset: 0x2F2B6, size: 0x8, addend: 0x0, symName: __ZNSt3__14listI4CardNS_9allocatorIS1_EEE5beginB7v160006Ev, symObjAddr: 0xF18, symBinAddr: 0x10000E510, symSize: 0x2C }
  - { offsetInCU: 0x9D1F, offset: 0x2F2DC, size: 0x8, addend: 0x0, symName: __ZNSt3__14listI4CardNS_9allocatorIS1_EEE3endB7v160006Ev, symObjAddr: 0x1020, symBinAddr: 0x10000E618, symSize: 0x2C }
  - { offsetInCU: 0x9D45, offset: 0x2F302, size: 0x8, addend: 0x0, symName: __ZNSt3__115__list_iteratorI4CardPvEppB7v160006Ev, symObjAddr: 0x107C, symBinAddr: 0x10000E674, symSize: 0x20 }
  - { offsetInCU: 0x9D6B, offset: 0x2F328, size: 0x8, addend: 0x0, symName: __ZNKSt3__115__list_iteratorI4CardPvEdeB7v160006Ev, symObjAddr: 0x109C, symBinAddr: 0x10000E694, symSize: 0x2C }
  - { offsetInCU: 0x9D91, offset: 0x2F34E, size: 0x8, addend: 0x0, symName: __ZNSt3__16vectorI4CardNS_9allocatorIS1_EEEC1B7v160006ESt16initializer_listIS1_E, symObjAddr: 0x10C8, symBinAddr: 0x10000E6C0, symSize: 0x3C }
  - { offsetInCU: 0x9DCC, offset: 0x2F389, size: 0x8, addend: 0x0, symName: __ZNSt3__16vectorI4CardNS_9allocatorIS1_EEEixB7v160006Em, symObjAddr: 0x1104, symBinAddr: 0x10000E6FC, symSize: 0x2C }
  - { offsetInCU: 0x9E02, offset: 0x2F3BF, size: 0x8, addend: 0x0, symName: __Z18find_best_sandwich8CardDeck, symObjAddr: 0x122C, symBinAddr: 0x10000E728, symSize: 0x54 }
  - { offsetInCU: 0x9E2F, offset: 0x2F3EC, size: 0x8, addend: 0x0, symName: __Z4play8CardDeck, symObjAddr: 0x1280, symBinAddr: 0x10000E77C, symSize: 0x8C }
  - { offsetInCU: 0x9F7A, offset: 0x2F537, size: 0x8, addend: 0x0, symName: __ZNSt3__15tupleIJbm8CardDeckS1_EEC1B7v160006IJbiS1_S1_ELi0EEEONS0_IJDpT_EEE, symObjAddr: 0x135C, symBinAddr: 0x10000E858, symSize: 0x34 }
  - { offsetInCU: 0x9FD4, offset: 0x2F591, size: 0x8, addend: 0x0, symName: __ZNSt3__15tupleIJbi8CardDeckS1_EED1Ev, symObjAddr: 0x1390, symBinAddr: 0x10000E88C, symSize: 0x2C }
  - { offsetInCU: 0xA000, offset: 0x2F5BD, size: 0x8, addend: 0x0, symName: __Z14play_optimally8CardDeck, symObjAddr: 0x13BC, symBinAddr: 0x10000E8B8, symSize: 0x8C }
  - { offsetInCU: 0xA02E, offset: 0x2F5EB, size: 0x8, addend: 0x0, symName: __ZN8CardDeckC2ERKS_, symObjAddr: 0x1448, symBinAddr: 0x10000E944, symSize: 0x34 }
  - { offsetInCU: 0xA063, offset: 0x2F620, size: 0x8, addend: 0x0, symName: __ZNSt3__14listI4CardNS_9allocatorIS1_EEEC2ERKS4_, symObjAddr: 0x147C, symBinAddr: 0x10000E978, symSize: 0xE8 }
  - { offsetInCU: 0xA0D4, offset: 0x2F691, size: 0x8, addend: 0x0, symName: __ZNSt3__116allocator_traitsINS_9allocatorINS_11__list_nodeI4CardPvEEEEE37select_on_container_copy_constructionB7v160006IS6_vvEES6_RKS6_, symObjAddr: 0x1564, symBinAddr: 0x10000EA60, symSize: 0x10 }
  - { offsetInCU: 0xA103, offset: 0x2F6C0, size: 0x8, addend: 0x0, symName: __ZNKSt3__110__list_impI4CardNS_9allocatorIS1_EEE12__node_allocB7v160006Ev, symObjAddr: 0x1574, symBinAddr: 0x10000EA70, symSize: 0x28 }
  - { offsetInCU: 0xA129, offset: 0x2F6E6, size: 0x8, addend: 0x0, symName: __ZNSt3__110__list_impI4CardNS_9allocatorIS1_EEEC2EONS2_INS_11__list_nodeIS1_PvEEEE, symObjAddr: 0x159C, symBinAddr: 0x10000EA98, symSize: 0x54 }
  - { offsetInCU: 0xA164, offset: 0x2F721, size: 0x8, addend: 0x0, symName: __ZNKSt3__117__compressed_pairImNS_9allocatorINS_11__list_nodeI4CardPvEEEEE6secondB7v160006Ev, symObjAddr: 0x16BC, symBinAddr: 0x10000EAEC, symSize: 0x24 }
  - { offsetInCU: 0xA18A, offset: 0x2F747, size: 0x8, addend: 0x0, symName: __ZNKSt3__122__compressed_pair_elemINS_9allocatorINS_11__list_nodeI4CardPvEEEELi1ELb1EE5__getB7v160006Ev, symObjAddr: 0x16E0, symBinAddr: 0x10000EB10, symSize: 0x14 }
  - { offsetInCU: 0xA1BA, offset: 0x2F777, size: 0x8, addend: 0x0, symName: __ZNSt3__117__compressed_pairImNS_9allocatorINS_11__list_nodeI4CardPvEEEEEC1B7v160006IiS6_EEOT_OT0_, symObjAddr: 0x1720, symBinAddr: 0x10000EB24, symSize: 0x3C }
  - { offsetInCU: 0xA212, offset: 0x2F7CF, size: 0x8, addend: 0x0, symName: __ZNSt3__117__compressed_pairImNS_9allocatorINS_11__list_nodeI4CardPvEEEEEC2B7v160006IiS6_EEOT_OT0_, symObjAddr: 0x17F4, symBinAddr: 0x10000EB60, symSize: 0x44 }
  - { offsetInCU: 0xA26A, offset: 0x2F827, size: 0x8, addend: 0x0, symName: __ZNSt3__122__compressed_pair_elemINS_9allocatorINS_11__list_nodeI4CardPvEEEELi1ELb1EEC2B7v160006IS6_vEEOT_, symObjAddr: 0x185C, symBinAddr: 0x10000EBA4, symSize: 0x18 }
  - { offsetInCU: 0xA2C5, offset: 0x2F882, size: 0x8, addend: 0x0, symName: __ZNSt3__14pairI8CardDeckS1_EC1B7v160006IRS1_S4_LPv0EEEOT_OT0_, symObjAddr: 0x1D58, symBinAddr: 0x10000EBBC, symSize: 0x3C }
  - { offsetInCU: 0xA323, offset: 0x2F8E0, size: 0x8, addend: 0x0, symName: __ZNSt3__14pairI8CardDeckS1_EC2B7v160006IRS1_S4_LPv0EEEOT_OT0_, symObjAddr: 0x1D94, symBinAddr: 0x10000EBF8, symSize: 0x70 }
  - { offsetInCU: 0xA386, offset: 0x2F943, size: 0x8, addend: 0x0, symName: __ZNSt3__14pairI8CardDeckS1_EC1B7v160006IS1_RS1_LPv0EEEOT_OT0_, symObjAddr: 0x1E04, symBinAddr: 0x10000EC68, symSize: 0x3C }
  - { offsetInCU: 0xA3E4, offset: 0x2F9A1, size: 0x8, addend: 0x0, symName: __ZNSt3__14pairI8CardDeckS1_EC2B7v160006IS1_RS1_LPv0EEEOT_OT0_, symObjAddr: 0x1E40, symBinAddr: 0x10000ECA4, symSize: 0x70 }
  - { offsetInCU: 0xA442, offset: 0x2F9FF, size: 0x8, addend: 0x0, symName: __ZN8CardDeckC1EOS_, symObjAddr: 0x1EB0, symBinAddr: 0x10000ED14, symSize: 0x34 }
  - { offsetInCU: 0xA477, offset: 0x2FA34, size: 0x8, addend: 0x0, symName: __ZN8CardDeckC2EOS_, symObjAddr: 0x1EE4, symBinAddr: 0x10000ED48, symSize: 0x34 }
  - { offsetInCU: 0xA4AC, offset: 0x2FA69, size: 0x8, addend: 0x0, symName: __ZNSt3__14listI4CardNS_9allocatorIS1_EEEC2EOS4_, symObjAddr: 0x1F18, symBinAddr: 0x10000ED7C, symSize: 0x78 }
  - { offsetInCU: 0xA4E7, offset: 0x2FAA4, size: 0x8, addend: 0x0, symName: __ZNSt3__14listI4CardNS_9allocatorIS1_EEE6spliceENS_21__list_const_iteratorIS1_PvEERS4_, symObjAddr: 0x1F90, symBinAddr: 0x10000EDF4, symSize: 0xAC }
  - { offsetInCU: 0xA559, offset: 0x2FB16, size: 0x8, addend: 0x0, symName: __ZNSt3__121__list_const_iteratorI4CardPvEC1B7v160006ERKNS_15__list_iteratorIS1_S2_EE, symObjAddr: 0x203C, symBinAddr: 0x10000EEA0, symSize: 0x34 }
  - { offsetInCU: 0xA592, offset: 0x2FB4F, size: 0x8, addend: 0x0, symName: __ZNSt3__14listI4CardNS_9allocatorIS1_EEE12__link_nodesEPNS_16__list_node_baseIS1_PvEES8_S8_, symObjAddr: 0x2098, symBinAddr: 0x10000EED4, symSize: 0x50 }
  - { offsetInCU: 0xA5D6, offset: 0x2FB93, size: 0x8, addend: 0x0, symName: __ZNSt3__121__list_const_iteratorI4CardPvEC2B7v160006ERKNS_15__list_iteratorIS1_S2_EE, symObjAddr: 0x20E8, symBinAddr: 0x10000EF24, symSize: 0x24 }
  - { offsetInCU: 0xA60F, offset: 0x2FBCC, size: 0x8, addend: 0x0, symName: __ZNSt3__115__list_iteratorI4CardPvEmmB7v160006Ev, symObjAddr: 0x2214, symBinAddr: 0x10000F050, symSize: 0x20 }
  - { offsetInCU: 0xA63A, offset: 0x2FBF7, size: 0x8, addend: 0x0, symName: __ZNSt3__15tupleIJbi8CardDeckS1_EEC1B7v160006IJbiS1_RS1_ELi0EEEDpOT_, symObjAddr: 0x2234, symBinAddr: 0x10000F070, symSize: 0x4C }
  - { offsetInCU: 0xA6C1, offset: 0x2FC7E, size: 0x8, addend: 0x0, symName: __ZNSt3__15tupleIJbi8CardDeckS1_EEC2B7v160006IJbiS1_RS1_ELi0EEEDpOT_, symObjAddr: 0x2280, symBinAddr: 0x10000F0BC, symSize: 0x4C }
  - { offsetInCU: 0xA748, offset: 0x2FD05, size: 0x8, addend: 0x0, symName: __ZNSt3__112__tuple_implINS_15__tuple_indicesIJLm0ELm1ELm2ELm3EEEEJbi8CardDeckS3_EEC1B7v160006IJLm0ELm1ELm2ELm3EEJbiS3_S3_EJEJEJbiS3_RS3_EEENS1_IJXspT_EEEENS_13__tuple_typesIJDpT0_EEENS1_IJXspT1_EEEENS8_IJDpT2_EEEDpOT3_, symObjAddr: 0x22CC, symBinAddr: 0x10000F108, symSize: 0x4C }
  - { offsetInCU: 0xA83A, offset: 0x2FDF7, size: 0x8, addend: 0x0, symName: __ZNSt3__112__tuple_implINS_15__tuple_indicesIJLm0ELm1ELm2ELm3EEEEJbi8CardDeckS3_EEC2B7v160006IJLm0ELm1ELm2ELm3EEJbiS3_S3_EJEJEJbiS3_RS3_EEENS1_IJXspT_EEEENS_13__tuple_typesIJDpT0_EEENS1_IJXspT1_EEEENS8_IJDpT2_EEEDpOT3_, symObjAddr: 0x2318, symBinAddr: 0x10000F154, symSize: 0x98 }
  - { offsetInCU: 0xA92C, offset: 0x2FEE9, size: 0x8, addend: 0x0, symName: __ZNSt3__112__tuple_leafILm0EbLb0EEC2B7v160006IbvEEOT_, symObjAddr: 0x23B0, symBinAddr: 0x10000F1EC, symSize: 0x28 }
  - { offsetInCU: 0xA96F, offset: 0x2FF2C, size: 0x8, addend: 0x0, symName: __ZNSt3__112__tuple_leafILm1EiLb0EEC2B7v160006IivEEOT_, symObjAddr: 0x23D8, symBinAddr: 0x10000F214, symSize: 0x24 }
  - { offsetInCU: 0xA9B2, offset: 0x2FF6F, size: 0x8, addend: 0x0, symName: __ZNSt3__112__tuple_leafILm2E8CardDeckLb0EEC2B7v160006IS1_vEEOT_, symObjAddr: 0x23FC, symBinAddr: 0x10000F238, symSize: 0x34 }
  - { offsetInCU: 0xA9F5, offset: 0x2FFB2, size: 0x8, addend: 0x0, symName: __ZNSt3__112__tuple_leafILm3E8CardDeckLb0EEC2B7v160006IRS1_vEEOT_, symObjAddr: 0x2430, symBinAddr: 0x10000F26C, symSize: 0x34 }
  - { offsetInCU: 0xAA38, offset: 0x2FFF5, size: 0x8, addend: 0x0, symName: __ZNSt3__112__tuple_leafILm2E8CardDeckLb0EED2Ev, symObjAddr: 0x2464, symBinAddr: 0x10000F2A0, symSize: 0x2C }
  - { offsetInCU: 0xAA65, offset: 0x30022, size: 0x8, addend: 0x0, symName: __ZNSt3__15tupleIJbm8CardDeckS1_EEC2B7v160006IJbiS1_S1_ELi0EEEONS0_IJDpT_EEE, symObjAddr: 0x2490, symBinAddr: 0x10000F2CC, symSize: 0x34 }
  - { offsetInCU: 0xAABF, offset: 0x3007C, size: 0x8, addend: 0x0, symName: __ZNSt3__112__tuple_implINS_15__tuple_indicesIJLm0ELm1ELm2ELm3EEEEJbm8CardDeckS3_EEC1B7v160006INS_5tupleIJbiS3_S3_EEEvEEOT_, symObjAddr: 0x24C4, symBinAddr: 0x10000F300, symSize: 0x34 }
  - { offsetInCU: 0xAB02, offset: 0x300BF, size: 0x8, addend: 0x0, symName: __ZNSt3__112__tuple_implINS_15__tuple_indicesIJLm0ELm1ELm2ELm3EEEEJbm8CardDeckS3_EEC2B7v160006INS_5tupleIJbiS3_S3_EEEvEEOT_, symObjAddr: 0x24F8, symBinAddr: 0x10000F334, symSize: 0x88 }
  - { offsetInCU: 0xAB45, offset: 0x30102, size: 0x8, addend: 0x0, symName: __ZNSt3__112__tuple_leafILm1EmLb0EEC2B7v160006IivEEOT_, symObjAddr: 0x25CC, symBinAddr: 0x10000F408, symSize: 0x24 }
  - { offsetInCU: 0xAB88, offset: 0x30145, size: 0x8, addend: 0x0, symName: __ZNSt3__112__tuple_leafILm3E8CardDeckLb0EEC2B7v160006IS1_vEEOT_, symObjAddr: 0x2640, symBinAddr: 0x10000F47C, symSize: 0x34 }
  - { offsetInCU: 0xABCB, offset: 0x30188, size: 0x8, addend: 0x0, symName: __ZNSt3__112__tuple_leafILm0EbLb0EE3getB7v160006Ev, symObjAddr: 0x2674, symBinAddr: 0x10000F4B0, symSize: 0x14 }
  - { offsetInCU: 0xABF1, offset: 0x301AE, size: 0x8, addend: 0x0, symName: __ZNSt3__112__tuple_leafILm1EiLb0EE3getB7v160006Ev, symObjAddr: 0x2688, symBinAddr: 0x10000F4C4, symSize: 0x14 }
  - { offsetInCU: 0xAC17, offset: 0x301D4, size: 0x8, addend: 0x0, symName: __ZNSt3__112__tuple_leafILm2E8CardDeckLb0EE3getB7v160006Ev, symObjAddr: 0x269C, symBinAddr: 0x10000F4D8, symSize: 0x14 }
  - { offsetInCU: 0xAC3D, offset: 0x301FA, size: 0x8, addend: 0x0, symName: __ZNSt3__112__tuple_leafILm3E8CardDeckLb0EE3getB7v160006Ev, symObjAddr: 0x26B0, symBinAddr: 0x10000F4EC, symSize: 0x14 }
  - { offsetInCU: 0xAC63, offset: 0x30220, size: 0x8, addend: 0x0, symName: __ZNSt3__15tupleIJbi8CardDeckS1_EED2Ev, symObjAddr: 0x26C4, symBinAddr: 0x10000F500, symSize: 0x2C }
  - { offsetInCU: 0xAC90, offset: 0x3024D, size: 0x8, addend: 0x0, symName: __ZNSt3__112__tuple_implINS_15__tuple_indicesIJLm0ELm1ELm2ELm3EEEEJbi8CardDeckS3_EED1Ev, symObjAddr: 0x26F0, symBinAddr: 0x10000F52C, symSize: 0x2C }
  - { offsetInCU: 0xACBD, offset: 0x3027A, size: 0x8, addend: 0x0, symName: __ZNSt3__112__tuple_implINS_15__tuple_indicesIJLm0ELm1ELm2ELm3EEEEJbi8CardDeckS3_EED2Ev, symObjAddr: 0x271C, symBinAddr: 0x10000F558, symSize: 0x3C }
  - { offsetInCU: 0xACEA, offset: 0x302A7, size: 0x8, addend: 0x0, symName: __ZNSt3__112__tuple_leafILm3E8CardDeckLb0EED2Ev, symObjAddr: 0x2758, symBinAddr: 0x10000F594, symSize: 0x2C }
  - { offsetInCU: 0xAD17, offset: 0x302D4, size: 0x8, addend: 0x0, symName: __ZNSt3__13mapI4Suit5ColorNS_4lessIS1_EENS_9allocatorINS_4pairIKS1_S2_EEEEEC2B7v160006ESt16initializer_listIS8_ERKS4_, symObjAddr: 0x2784, symBinAddr: 0x10000F5C0, symSize: 0xA4 }
  - { offsetInCU: 0xAD5F, offset: 0x3031C, size: 0x8, addend: 0x0, symName: __ZNSt3__119__map_value_compareI4SuitNS_12__value_typeIS1_5ColorEENS_4lessIS1_EELb1EEC1B7v160006ES6_, symObjAddr: 0x2828, symBinAddr: 0x10000F664, symSize: 0x2C }
  - { offsetInCU: 0xAD98, offset: 0x30355, size: 0x8, addend: 0x0, symName: __ZNSt3__16__treeINS_12__value_typeI4Suit5ColorEENS_19__map_value_compareIS2_S4_NS_4lessIS2_EELb1EEENS_9allocatorIS4_EEEC1ERKS8_, symObjAddr: 0x2854, symBinAddr: 0x10000F690, symSize: 0x34 }
  - { offsetInCU: 0xADD3, offset: 0x30390, size: 0x8, addend: 0x0, symName: __ZNSt3__13mapI4Suit5ColorNS_4lessIS1_EENS_9allocatorINS_4pairIKS1_S2_EEEEE6insertB7v160006IPKS8_EEvT_SE_, symObjAddr: 0x2888, symBinAddr: 0x10000F6C4, symSize: 0x8C }
  - { offsetInCU: 0xAE3D, offset: 0x303FA, size: 0x8, addend: 0x0, symName: __ZNKSt16initializer_listINSt3__14pairIK4Suit5ColorEEE5beginB7v160006Ev, symObjAddr: 0x2914, symBinAddr: 0x10000F750, symSize: 0x18 }
  - { offsetInCU: 0xAE63, offset: 0x30420, size: 0x8, addend: 0x0, symName: __ZNKSt16initializer_listINSt3__14pairIK4Suit5ColorEEE3endB7v160006Ev, symObjAddr: 0x292C, symBinAddr: 0x10000F768, symSize: 0x20 }
  - { offsetInCU: 0xAE89, offset: 0x30446, size: 0x8, addend: 0x0, symName: __ZNSt3__16__treeINS_12__value_typeI4Suit5ColorEENS_19__map_value_compareIS2_S4_NS_4lessIS2_EELb1EEENS_9allocatorIS4_EEED1Ev, symObjAddr: 0x294C, symBinAddr: 0x10000F788, symSize: 0x2C }
  - { offsetInCU: 0xAEB5, offset: 0x30472, size: 0x8, addend: 0x0, symName: __ZNSt3__119__map_value_compareI4SuitNS_12__value_typeIS1_5ColorEENS_4lessIS1_EELb1EEC2B7v160006ES6_, symObjAddr: 0x2978, symBinAddr: 0x10000F7B4, symSize: 0x14 }
  - { offsetInCU: 0xAEEE, offset: 0x304AB, size: 0x8, addend: 0x0, symName: __ZNSt3__16__treeINS_12__value_typeI4Suit5ColorEENS_19__map_value_compareIS2_S4_NS_4lessIS2_EELb1EEENS_9allocatorIS4_EEEC2ERKS8_, symObjAddr: 0x298C, symBinAddr: 0x10000F7C8, symSize: 0x7C }
  - { offsetInCU: 0xAF29, offset: 0x304E6, size: 0x8, addend: 0x0, symName: __ZNSt3__117__compressed_pairINS_15__tree_end_nodeIPNS_16__tree_node_baseIPvEEEENS_9allocatorINS_11__tree_nodeINS_12__value_typeI4Suit5ColorEES3_EEEEEC1B7v160006ILb1EvEEv, symObjAddr: 0x2A08, symBinAddr: 0x10000F844, symSize: 0x2C }
  - { offsetInCU: 0xAF5E, offset: 0x3051B, size: 0x8, addend: 0x0, symName: __ZNSt3__117__compressed_pairImNS_19__map_value_compareI4SuitNS_12__value_typeIS2_5ColorEENS_4lessIS2_EELb1EEEEC1B7v160006IiRKS8_EEOT_OT0_, symObjAddr: 0x2A34, symBinAddr: 0x10000F870, symSize: 0x3C }
  - { offsetInCU: 0xAFB6, offset: 0x30573, size: 0x8, addend: 0x0, symName: __ZNSt3__16__treeINS_12__value_typeI4Suit5ColorEENS_19__map_value_compareIS2_S4_NS_4lessIS2_EELb1EEENS_9allocatorIS4_EEE10__end_nodeB7v160006Ev, symObjAddr: 0x2A70, symBinAddr: 0x10000F8AC, symSize: 0x2C }
  - { offsetInCU: 0xAFDC, offset: 0x30599, size: 0x8, addend: 0x0, symName: __ZNSt3__16__treeINS_12__value_typeI4Suit5ColorEENS_19__map_value_compareIS2_S4_NS_4lessIS2_EELb1EEENS_9allocatorIS4_EEE12__begin_nodeB7v160006Ev, symObjAddr: 0x2A9C, symBinAddr: 0x10000F8D8, symSize: 0x14 }
  - { offsetInCU: 0xB002, offset: 0x305BF, size: 0x8, addend: 0x0, symName: __ZNSt3__117__compressed_pairINS_15__tree_end_nodeIPNS_16__tree_node_baseIPvEEEENS_9allocatorINS_11__tree_nodeINS_12__value_typeI4Suit5ColorEES3_EEEEEC2B7v160006ILb1EvEEv, symObjAddr: 0x2AB0, symBinAddr: 0x10000F8EC, symSize: 0x34 }
  - { offsetInCU: 0xB037, offset: 0x305F4, size: 0x8, addend: 0x0, symName: __ZNSt3__122__compressed_pair_elemINS_15__tree_end_nodeIPNS_16__tree_node_baseIPvEEEELi0ELb0EEC2B7v160006ENS_16__value_init_tagE, symObjAddr: 0x2AE4, symBinAddr: 0x10000F920, symSize: 0x2C }
  - { offsetInCU: 0xB06C, offset: 0x30629, size: 0x8, addend: 0x0, symName: __ZNSt3__122__compressed_pair_elemINS_9allocatorINS_11__tree_nodeINS_12__value_typeI4Suit5ColorEEPvEEEELi1ELb1EEC2B7v160006ENS_16__value_init_tagE, symObjAddr: 0x2B10, symBinAddr: 0x10000F94C, symSize: 0x2C }
  - { offsetInCU: 0xB0A1, offset: 0x3065E, size: 0x8, addend: 0x0, symName: __ZNSt3__115__tree_end_nodeIPNS_16__tree_node_baseIPvEEEC1B7v160006Ev, symObjAddr: 0x2B3C, symBinAddr: 0x10000F978, symSize: 0x2C }
  - { offsetInCU: 0xB0CB, offset: 0x30688, size: 0x8, addend: 0x0, symName: __ZNSt3__115__tree_end_nodeIPNS_16__tree_node_baseIPvEEEC2B7v160006Ev, symObjAddr: 0x2B68, symBinAddr: 0x10000F9A4, symSize: 0x18 }
  - { offsetInCU: 0xB0F5, offset: 0x306B2, size: 0x8, addend: 0x0, symName: __ZNSt3__19allocatorINS_11__tree_nodeINS_12__value_typeI4Suit5ColorEEPvEEEC2B7v160006Ev, symObjAddr: 0x2B80, symBinAddr: 0x10000F9BC, symSize: 0x2C }
  - { offsetInCU: 0xB11F, offset: 0x306DC, size: 0x8, addend: 0x0, symName: __ZNSt3__116__non_trivial_ifILb1ENS_9allocatorINS_11__tree_nodeINS_12__value_typeI4Suit5ColorEEPvEEEEEC2B7v160006Ev, symObjAddr: 0x2BAC, symBinAddr: 0x10000F9E8, symSize: 0x14 }
  - { offsetInCU: 0xB149, offset: 0x30706, size: 0x8, addend: 0x0, symName: __ZNSt3__117__compressed_pairImNS_19__map_value_compareI4SuitNS_12__value_typeIS2_5ColorEENS_4lessIS2_EELb1EEEEC2B7v160006IiRKS8_EEOT_OT0_, symObjAddr: 0x2BC0, symBinAddr: 0x10000F9FC, symSize: 0x44 }
  - { offsetInCU: 0xB1A1, offset: 0x3075E, size: 0x8, addend: 0x0, symName: __ZNSt3__122__compressed_pair_elemINS_19__map_value_compareI4SuitNS_12__value_typeIS2_5ColorEENS_4lessIS2_EELb1EEELi1ELb1EEC2B7v160006IRKS8_vEEOT_, symObjAddr: 0x2C04, symBinAddr: 0x10000FA40, symSize: 0x18 }
  - { offsetInCU: 0xB1E3, offset: 0x307A0, size: 0x8, addend: 0x0, symName: __ZNSt3__114pointer_traitsIPNS_15__tree_end_nodeIPNS_16__tree_node_baseIPvEEEEE10pointer_toB7v160006ERS6_, symObjAddr: 0x2C1C, symBinAddr: 0x10000FA58, symSize: 0x14 }
  - { offsetInCU: 0xB206, offset: 0x307C3, size: 0x8, addend: 0x0, symName: __ZNSt3__117__compressed_pairINS_15__tree_end_nodeIPNS_16__tree_node_baseIPvEEEENS_9allocatorINS_11__tree_nodeINS_12__value_typeI4Suit5ColorEES3_EEEEE5firstB7v160006Ev, symObjAddr: 0x2C30, symBinAddr: 0x10000FA6C, symSize: 0x24 }
  - { offsetInCU: 0xB22C, offset: 0x307E9, size: 0x8, addend: 0x0, symName: __ZNSt3__122__compressed_pair_elemINS_15__tree_end_nodeIPNS_16__tree_node_baseIPvEEEELi0ELb0EE5__getB7v160006Ev, symObjAddr: 0x2C54, symBinAddr: 0x10000FA90, symSize: 0x14 }
  - { offsetInCU: 0xB252, offset: 0x3080F, size: 0x8, addend: 0x0, symName: __ZNKSt3__13mapI4Suit5ColorNS_4lessIS1_EENS_9allocatorINS_4pairIKS1_S2_EEEEE4cendB7v160006Ev, symObjAddr: 0x2C68, symBinAddr: 0x10000FAA4, symSize: 0x2C }
  - { offsetInCU: 0xB278, offset: 0x30835, size: 0x8, addend: 0x0, symName: __ZNSt3__13mapI4Suit5ColorNS_4lessIS1_EENS_9allocatorINS_4pairIKS1_S2_EEEEE6insertB7v160006ENS_20__map_const_iteratorINS_21__tree_const_iteratorINS_12__value_typeIS1_S2_EEPNS_11__tree_nodeISE_PvEElEEEERKS8_, symObjAddr: 0x2C94, symBinAddr: 0x10000FAD0, symSize: 0x50 }
  - { offsetInCU: 0xB2BC, offset: 0x30879, size: 0x8, addend: 0x0, symName: __ZNSt3__120__map_const_iteratorINS_21__tree_const_iteratorINS_12__value_typeI4Suit5ColorEEPNS_11__tree_nodeIS5_PvEElEEEC1B7v160006ESA_, symObjAddr: 0x2CE4, symBinAddr: 0x10000FB20, symSize: 0x34 }
  - { offsetInCU: 0xB2F5, offset: 0x308B2, size: 0x8, addend: 0x0, symName: __ZNKSt3__13mapI4Suit5ColorNS_4lessIS1_EENS_9allocatorINS_4pairIKS1_S2_EEEEE3endB7v160006Ev, symObjAddr: 0x2D18, symBinAddr: 0x10000FB54, symSize: 0x38 }
  - { offsetInCU: 0xB31B, offset: 0x308D8, size: 0x8, addend: 0x0, symName: __ZNKSt3__16__treeINS_12__value_typeI4Suit5ColorEENS_19__map_value_compareIS2_S4_NS_4lessIS2_EELb1EEENS_9allocatorIS4_EEE3endB7v160006Ev, symObjAddr: 0x2D50, symBinAddr: 0x10000FB8C, symSize: 0x34 }
  - { offsetInCU: 0xB341, offset: 0x308FE, size: 0x8, addend: 0x0, symName: __ZNKSt3__16__treeINS_12__value_typeI4Suit5ColorEENS_19__map_value_compareIS2_S4_NS_4lessIS2_EELb1EEENS_9allocatorIS4_EEE10__end_nodeB7v160006Ev, symObjAddr: 0x2D84, symBinAddr: 0x10000FBC0, symSize: 0x2C }
  - { offsetInCU: 0xB367, offset: 0x30924, size: 0x8, addend: 0x0, symName: __ZNSt3__121__tree_const_iteratorINS_12__value_typeI4Suit5ColorEEPNS_11__tree_nodeIS4_PvEElEC1B7v160006EPNS_15__tree_end_nodeIPNS_16__tree_node_baseIS6_EEEE, symObjAddr: 0x2DB0, symBinAddr: 0x10000FBEC, symSize: 0x34 }
  - { offsetInCU: 0xB3A0, offset: 0x3095D, size: 0x8, addend: 0x0, symName: __ZNKSt3__117__compressed_pairINS_15__tree_end_nodeIPNS_16__tree_node_baseIPvEEEENS_9allocatorINS_11__tree_nodeINS_12__value_typeI4Suit5ColorEES3_EEEEE5firstB7v160006Ev, symObjAddr: 0x2DE4, symBinAddr: 0x10000FC20, symSize: 0x24 }
  - { offsetInCU: 0xB3C6, offset: 0x30983, size: 0x8, addend: 0x0, symName: __ZNKSt3__122__compressed_pair_elemINS_15__tree_end_nodeIPNS_16__tree_node_baseIPvEEEELi0ELb0EE5__getB7v160006Ev, symObjAddr: 0x2E08, symBinAddr: 0x10000FC44, symSize: 0x14 }
  - { offsetInCU: 0xB3EC, offset: 0x309A9, size: 0x8, addend: 0x0, symName: __ZNSt3__121__tree_const_iteratorINS_12__value_typeI4Suit5ColorEEPNS_11__tree_nodeIS4_PvEElEC2B7v160006EPNS_15__tree_end_nodeIPNS_16__tree_node_baseIS6_EEEE, symObjAddr: 0x2E1C, symBinAddr: 0x10000FC58, symSize: 0x20 }
  - { offsetInCU: 0xB425, offset: 0x309E2, size: 0x8, addend: 0x0, symName: __ZNSt3__16__treeINS_12__value_typeI4Suit5ColorEENS_19__map_value_compareIS2_S4_NS_4lessIS2_EELb1EEENS_9allocatorIS4_EEE15__insert_uniqueB7v160006ENS_21__tree_const_iteratorIS4_PNS_11__tree_nodeIS4_PvEElEERKNS_4pairIKS2_S3_EE, symObjAddr: 0x2E3C, symBinAddr: 0x10000FC78, symSize: 0x64 }
  - { offsetInCU: 0xB469, offset: 0x30A26, size: 0x8, addend: 0x0, symName: __ZNSt3__114__map_iteratorINS_15__tree_iteratorINS_12__value_typeI4Suit5ColorEEPNS_11__tree_nodeIS5_PvEElEEEC1B7v160006ESA_, symObjAddr: 0x2EA0, symBinAddr: 0x10000FCDC, symSize: 0x34 }
  - { offsetInCU: 0xB4A2, offset: 0x30A5F, size: 0x8, addend: 0x0, symName: __ZNSt3__16__treeINS_12__value_typeI4Suit5ColorEENS_19__map_value_compareIS2_S4_NS_4lessIS2_EELb1EEENS_9allocatorIS4_EEE30__emplace_hint_unique_key_argsIS2_JRKNS_4pairIKS2_S3_EEEEENSD_INS_15__tree_iteratorIS4_PNS_11__tree_nodeIS4_PvEElEEbEENS_21__tree_const_iteratorIS4_SM_lEERKT_DpOT0_, symObjAddr: 0x2ED4, symBinAddr: 0x10000FD10, symSize: 0x104 }
  - { offsetInCU: 0xB56E, offset: 0x30B2B, size: 0x8, addend: 0x0, symName: __ZNSt3__122__tree_key_value_typesINS_12__value_typeI4Suit5ColorEEE9__get_keyB7v160006IKNS_4pairIKS2_S3_EEEENS_9enable_ifIXsr17__is_same_uncvrefIT_S9_EE5valueERS8_E4typeERSC_, symObjAddr: 0x2FD8, symBinAddr: 0x10000FE14, symSize: 0x14 }
  - { offsetInCU: 0xB59B, offset: 0x30B58, size: 0x8, addend: 0x0, symName: __ZNSt3__16__treeINS_12__value_typeI4Suit5ColorEENS_19__map_value_compareIS2_S4_NS_4lessIS2_EELb1EEENS_9allocatorIS4_EEE12__find_equalIS2_EERPNS_16__tree_node_baseIPvEENS_21__tree_const_iteratorIS4_PNS_11__tree_nodeIS4_SE_EElEERPNS_15__tree_end_nodeISG_EESH_RKT_, symObjAddr: 0x2FEC, symBinAddr: 0x10000FE28, symSize: 0x304 }
  - { offsetInCU: 0xB644, offset: 0x30C01, size: 0x8, addend: 0x0, symName: __ZNSt3__16__treeINS_12__value_typeI4Suit5ColorEENS_19__map_value_compareIS2_S4_NS_4lessIS2_EELb1EEENS_9allocatorIS4_EEE16__construct_nodeIJRKNS_4pairIKS2_S3_EEEEENS_10unique_ptrINS_11__tree_nodeIS4_PvEENS_22__tree_node_destructorINS9_ISL_EEEEEEDpOT_, symObjAddr: 0x32F0, symBinAddr: 0x10001012C, symSize: 0x110 }
  - { offsetInCU: 0xB6A5, offset: 0x30C62, size: 0x8, addend: 0x0, symName: __ZNSt3__16__treeINS_12__value_typeI4Suit5ColorEENS_19__map_value_compareIS2_S4_NS_4lessIS2_EELb1EEENS_9allocatorIS4_EEE16__insert_node_atEPNS_15__tree_end_nodeIPNS_16__tree_node_baseIPvEEEERSG_SG_, symObjAddr: 0x3400, symBinAddr: 0x10001023C, symSize: 0xCC }
  - { offsetInCU: 0xB6FA, offset: 0x30CB7, size: 0x8, addend: 0x0, symName: __ZNKSt3__110unique_ptrINS_11__tree_nodeINS_12__value_typeI4Suit5ColorEEPvEENS_22__tree_node_destructorINS_9allocatorIS7_EEEEE3getB7v160006Ev, symObjAddr: 0x34CC, symBinAddr: 0x100010308, symSize: 0x28 }
  - { offsetInCU: 0xB720, offset: 0x30CDD, size: 0x8, addend: 0x0, symName: __ZNSt3__110unique_ptrINS_11__tree_nodeINS_12__value_typeI4Suit5ColorEEPvEENS_22__tree_node_destructorINS_9allocatorIS7_EEEEE7releaseB7v160006Ev, symObjAddr: 0x34F4, symBinAddr: 0x100010330, symSize: 0x44 }
  - { offsetInCU: 0xB755, offset: 0x30D12, size: 0x8, addend: 0x0, symName: __ZNSt3__110unique_ptrINS_11__tree_nodeINS_12__value_typeI4Suit5ColorEEPvEENS_22__tree_node_destructorINS_9allocatorIS7_EEEEED1B7v160006Ev, symObjAddr: 0x3538, symBinAddr: 0x100010374, symSize: 0x2C }
  - { offsetInCU: 0xB77F, offset: 0x30D3C, size: 0x8, addend: 0x0, symName: __ZNSt3__115__tree_iteratorINS_12__value_typeI4Suit5ColorEEPNS_11__tree_nodeIS4_PvEElEC1B7v160006ES8_, symObjAddr: 0x3564, symBinAddr: 0x1000103A0, symSize: 0x34 }
  - { offsetInCU: 0xB7BD, offset: 0x30D7A, size: 0x8, addend: 0x0, symName: __ZNSt3__14pairINS_15__tree_iteratorINS_12__value_typeI4Suit5ColorEEPNS_11__tree_nodeIS5_PvEElEEbEC1B7v160006ISA_RbLS7_0EEEOT_OT0_, symObjAddr: 0x3598, symBinAddr: 0x1000103D4, symSize: 0x3C }
  - { offsetInCU: 0xB81B, offset: 0x30DD8, size: 0x8, addend: 0x0, symName: __ZNSt3__16__treeINS_12__value_typeI4Suit5ColorEENS_19__map_value_compareIS2_S4_NS_4lessIS2_EELb1EEENS_9allocatorIS4_EEE3endB7v160006Ev, symObjAddr: 0x3604, symBinAddr: 0x100010440, symSize: 0x34 }
  - { offsetInCU: 0xB841, offset: 0x30DFE, size: 0x8, addend: 0x0, symName: __ZNSt3__121__tree_const_iteratorINS_12__value_typeI4Suit5ColorEEPNS_11__tree_nodeIS4_PvEElEC1B7v160006ENS_15__tree_iteratorIS4_S8_lEE, symObjAddr: 0x3638, symBinAddr: 0x100010474, symSize: 0x34 }
  - { offsetInCU: 0xB87A, offset: 0x30E37, size: 0x8, addend: 0x0, symName: __ZNSt3__16__treeINS_12__value_typeI4Suit5ColorEENS_19__map_value_compareIS2_S4_NS_4lessIS2_EELb1EEENS_9allocatorIS4_EEE10value_compB7v160006Ev, symObjAddr: 0x366C, symBinAddr: 0x1000104A8, symSize: 0x28 }
  - { offsetInCU: 0xB8A0, offset: 0x30E5D, size: 0x8, addend: 0x0, symName: __ZNKSt3__119__map_value_compareI4SuitNS_12__value_typeIS1_5ColorEENS_4lessIS1_EELb1EEclB7v160006ERKS1_RKS4_, symObjAddr: 0x3694, symBinAddr: 0x1000104D0, symSize: 0x50 }
  - { offsetInCU: 0xB8E4, offset: 0x30EA1, size: 0x8, addend: 0x0, symName: __ZNKSt3__121__tree_const_iteratorINS_12__value_typeI4Suit5ColorEEPNS_11__tree_nodeIS4_PvEElEdeB7v160006Ev, symObjAddr: 0x36E4, symBinAddr: 0x100010520, symSize: 0x28 }
  - { offsetInCU: 0xB90A, offset: 0x30EC7, size: 0x8, addend: 0x0, symName: __ZNSt3__16__treeINS_12__value_typeI4Suit5ColorEENS_19__map_value_compareIS2_S4_NS_4lessIS2_EELb1EEENS_9allocatorIS4_EEE5beginB7v160006Ev, symObjAddr: 0x370C, symBinAddr: 0x100010548, symSize: 0x34 }
  - { offsetInCU: 0xB930, offset: 0x30EED, size: 0x8, addend: 0x0, symName: __ZNKSt3__119__map_value_compareI4SuitNS_12__value_typeIS1_5ColorEENS_4lessIS1_EELb1EEclB7v160006ERKS4_RKS1_, symObjAddr: 0x3740, symBinAddr: 0x10001057C, symSize: 0x48 }
  - { offsetInCU: 0xB974, offset: 0x30F31, size: 0x8, addend: 0x0, symName: __ZNSt3__121__tree_const_iteratorINS_12__value_typeI4Suit5ColorEEPNS_11__tree_nodeIS4_PvEElEmmB7v160006Ev, symObjAddr: 0x3788, symBinAddr: 0x1000105C4, symSize: 0x38 }
  - { offsetInCU: 0xB99A, offset: 0x30F57, size: 0x8, addend: 0x0, symName: __ZNSt3__16__treeINS_12__value_typeI4Suit5ColorEENS_19__map_value_compareIS2_S4_NS_4lessIS2_EELb1EEENS_9allocatorIS4_EEE12__find_equalIS2_EERPNS_16__tree_node_baseIPvEERPNS_15__tree_end_nodeISG_EERKT_, symObjAddr: 0x37C0, symBinAddr: 0x1000105FC, symSize: 0x184 }
  - { offsetInCU: 0xBA07, offset: 0x30FC4, size: 0x8, addend: 0x0, symName: __ZNKSt3__121__tree_const_iteratorINS_12__value_typeI4Suit5ColorEEPNS_11__tree_nodeIS4_PvEElE8__get_npB7v160006Ev, symObjAddr: 0x3994, symBinAddr: 0x1000107D0, symSize: 0x18 }
  - { offsetInCU: 0xBA2D, offset: 0x30FEA, size: 0x8, addend: 0x0, symName: __ZNSt3__115__tree_iteratorINS_12__value_typeI4Suit5ColorEEPNS_11__tree_nodeIS4_PvEElEC1B7v160006EPNS_15__tree_end_nodeIPNS_16__tree_node_baseIS6_EEEE, symObjAddr: 0x39AC, symBinAddr: 0x1000107E8, symSize: 0x34 }
  - { offsetInCU: 0xBA66, offset: 0x31023, size: 0x8, addend: 0x0, symName: __ZNSt3__115__tree_iteratorINS_12__value_typeI4Suit5ColorEEPNS_11__tree_nodeIS4_PvEElEC2B7v160006EPNS_15__tree_end_nodeIPNS_16__tree_node_baseIS6_EEEE, symObjAddr: 0x39E0, symBinAddr: 0x10001081C, symSize: 0x20 }
  - { offsetInCU: 0xBA9F, offset: 0x3105C, size: 0x8, addend: 0x0, symName: __ZNSt3__121__tree_const_iteratorINS_12__value_typeI4Suit5ColorEEPNS_11__tree_nodeIS4_PvEElEC2B7v160006ENS_15__tree_iteratorIS4_S8_lEE, symObjAddr: 0x3A00, symBinAddr: 0x10001083C, symSize: 0x20 }
  - { offsetInCU: 0xBAD8, offset: 0x31095, size: 0x8, addend: 0x0, symName: __ZNSt3__117__compressed_pairImNS_19__map_value_compareI4SuitNS_12__value_typeIS2_5ColorEENS_4lessIS2_EELb1EEEE6secondB7v160006Ev, symObjAddr: 0x3A20, symBinAddr: 0x10001085C, symSize: 0x24 }
  - { offsetInCU: 0xBAFE, offset: 0x310BB, size: 0x8, addend: 0x0, symName: __ZNSt3__122__compressed_pair_elemINS_19__map_value_compareI4SuitNS_12__value_typeIS2_5ColorEENS_4lessIS2_EELb1EEELi1ELb1EE5__getB7v160006Ev, symObjAddr: 0x3A44, symBinAddr: 0x100010880, symSize: 0x14 }
  - { offsetInCU: 0xBB24, offset: 0x310E1, size: 0x8, addend: 0x0, symName: __ZNKSt3__14lessI4SuitEclB7v160006ERKS1_S4_, symObjAddr: 0x3A58, symBinAddr: 0x100010894, symSize: 0x34 }
  - { offsetInCU: 0xBB68, offset: 0x31125, size: 0x8, addend: 0x0, symName: __ZNKSt3__112__value_typeI4Suit5ColorE11__get_valueB7v160006Ev, symObjAddr: 0x3A8C, symBinAddr: 0x1000108C8, symSize: 0x24 }
  - { offsetInCU: 0xBB8E, offset: 0x3114B, size: 0x8, addend: 0x0, symName: __ZNKSt3__116__tree_node_baseIPvE15__parent_unsafeB7v160006Ev, symObjAddr: 0x3BF8, symBinAddr: 0x100010A34, symSize: 0x18 }
  - { offsetInCU: 0xBBB4, offset: 0x31171, size: 0x8, addend: 0x0, symName: __ZNKSt3__16__treeINS_12__value_typeI4Suit5ColorEENS_19__map_value_compareIS2_S4_NS_4lessIS2_EELb1EEENS_9allocatorIS4_EEE6__rootB7v160006Ev, symObjAddr: 0x3C10, symBinAddr: 0x100010A4C, symSize: 0x28 }
  - { offsetInCU: 0xBBDA, offset: 0x31197, size: 0x8, addend: 0x0, symName: __ZNKSt3__16__treeINS_12__value_typeI4Suit5ColorEENS_19__map_value_compareIS2_S4_NS_4lessIS2_EELb1EEENS_9allocatorIS4_EEE10__root_ptrEv, symObjAddr: 0x3C38, symBinAddr: 0x100010A74, symSize: 0x24 }
  - { offsetInCU: 0xBC00, offset: 0x311BD, size: 0x8, addend: 0x0, symName: __ZNSt3__121__tree_const_iteratorINS_12__value_typeI4Suit5ColorEEPNS_11__tree_nodeIS4_PvEElEppB7v160006Ev, symObjAddr: 0x3D50, symBinAddr: 0x100010B8C, symSize: 0x38 }
  - { offsetInCU: 0xBC26, offset: 0x311E3, size: 0x8, addend: 0x0, symName: __ZNSt3__16__treeINS_12__value_typeI4Suit5ColorEENS_19__map_value_compareIS2_S4_NS_4lessIS2_EELb1EEENS_9allocatorIS4_EEE12__node_allocB7v160006Ev, symObjAddr: 0x3E48, symBinAddr: 0x100010C84, symSize: 0x28 }
  - { offsetInCU: 0xBC4C, offset: 0x31209, size: 0x8, addend: 0x0, symName: __ZNSt3__116allocator_traitsINS_9allocatorINS_11__tree_nodeINS_12__value_typeI4Suit5ColorEEPvEEEEE8allocateB7v160006ERS9_m, symObjAddr: 0x3E70, symBinAddr: 0x100010CAC, symSize: 0x2C }
  - { offsetInCU: 0xBC7F, offset: 0x3123C, size: 0x8, addend: 0x0, symName: __ZNSt3__122__tree_node_destructorINS_9allocatorINS_11__tree_nodeINS_12__value_typeI4Suit5ColorEEPvEEEEEC1B7v160006ERS9_b, symObjAddr: 0x3E9C, symBinAddr: 0x100010CD8, symSize: 0x48 }
  - { offsetInCU: 0xBCCC, offset: 0x31289, size: 0x8, addend: 0x0, symName: __ZNSt3__110unique_ptrINS_11__tree_nodeINS_12__value_typeI4Suit5ColorEEPvEENS_22__tree_node_destructorINS_9allocatorIS7_EEEEEC1B7v160006ILb1EvEEPS7_NS_16__dependent_typeINS_27__unique_ptr_deleter_sfinaeISB_EEXT_EE20__good_rval_ref_typeE, symObjAddr: 0x3EE4, symBinAddr: 0x100010D20, symSize: 0x3C }
  - { offsetInCU: 0xBD1D, offset: 0x312DA, size: 0x8, addend: 0x0, symName: __ZNSt3__116allocator_traitsINS_9allocatorINS_11__tree_nodeINS_12__value_typeI4Suit5ColorEEPvEEEEE9constructB7v160006INS_4pairIKS4_S5_EEJRKSE_EvEEvRS9_PT_DpOT0_, symObjAddr: 0x3F20, symBinAddr: 0x100010D5C, symSize: 0x34 }
  - { offsetInCU: 0xBD74, offset: 0x31331, size: 0x8, addend: 0x0, symName: __ZNSt3__122__tree_key_value_typesINS_12__value_typeI4Suit5ColorEEE9__get_ptrB7v160006ERS4_, symObjAddr: 0x3F54, symBinAddr: 0x100010D90, symSize: 0x24 }
  - { offsetInCU: 0xBD98, offset: 0x31355, size: 0x8, addend: 0x0, symName: __ZNKSt3__110unique_ptrINS_11__tree_nodeINS_12__value_typeI4Suit5ColorEEPvEENS_22__tree_node_destructorINS_9allocatorIS7_EEEEEptB7v160006Ev, symObjAddr: 0x3F78, symBinAddr: 0x100010DB4, symSize: 0x28 }
  - { offsetInCU: 0xBDBE, offset: 0x3137B, size: 0x8, addend: 0x0, symName: __ZNSt3__110unique_ptrINS_11__tree_nodeINS_12__value_typeI4Suit5ColorEEPvEENS_22__tree_node_destructorINS_9allocatorIS7_EEEEE11get_deleterB7v160006Ev, symObjAddr: 0x3FA0, symBinAddr: 0x100010DDC, symSize: 0x24 }
  - { offsetInCU: 0xBDE4, offset: 0x313A1, size: 0x8, addend: 0x0, symName: __ZNSt3__117__compressed_pairINS_15__tree_end_nodeIPNS_16__tree_node_baseIPvEEEENS_9allocatorINS_11__tree_nodeINS_12__value_typeI4Suit5ColorEES3_EEEEE6secondB7v160006Ev, symObjAddr: 0x3FC4, symBinAddr: 0x100010E00, symSize: 0x24 }
  - { offsetInCU: 0xBE0A, offset: 0x313C7, size: 0x8, addend: 0x0, symName: __ZNSt3__122__compressed_pair_elemINS_9allocatorINS_11__tree_nodeINS_12__value_typeI4Suit5ColorEEPvEEEELi1ELb1EE5__getB7v160006Ev, symObjAddr: 0x3FE8, symBinAddr: 0x100010E24, symSize: 0x14 }
  - { offsetInCU: 0xBE30, offset: 0x313ED, size: 0x8, addend: 0x0, symName: __ZNSt3__19allocatorINS_11__tree_nodeINS_12__value_typeI4Suit5ColorEEPvEEE8allocateB7v160006Em, symObjAddr: 0x3FFC, symBinAddr: 0x100010E38, symSize: 0x5C }
  - { offsetInCU: 0xBE6E, offset: 0x3142B, size: 0x8, addend: 0x0, symName: __ZNSt3__116allocator_traitsINS_9allocatorINS_11__tree_nodeINS_12__value_typeI4Suit5ColorEEPvEEEEE8max_sizeB7v160006IS9_vEEmRKS9_, symObjAddr: 0x4058, symBinAddr: 0x100010E94, symSize: 0x24 }
  - { offsetInCU: 0xBE9C, offset: 0x31459, size: 0x8, addend: 0x0, symName: __ZNKSt3__19allocatorINS_11__tree_nodeINS_12__value_typeI4Suit5ColorEEPvEEE8max_sizeB7v160006Ev, symObjAddr: 0x4110, symBinAddr: 0x100010EB8, symSize: 0x18 }
  - { offsetInCU: 0xBEC2, offset: 0x3147F, size: 0x8, addend: 0x0, symName: __ZNSt3__122__tree_node_destructorINS_9allocatorINS_11__tree_nodeINS_12__value_typeI4Suit5ColorEEPvEEEEEC2B7v160006ERS9_b, symObjAddr: 0x4178, symBinAddr: 0x100010ED0, symSize: 0x38 }
  - { offsetInCU: 0xBF0A, offset: 0x314C7, size: 0x8, addend: 0x0, symName: __ZNSt3__110unique_ptrINS_11__tree_nodeINS_12__value_typeI4Suit5ColorEEPvEENS_22__tree_node_destructorINS_9allocatorIS7_EEEEEC2B7v160006ILb1EvEEPS7_NS_16__dependent_typeINS_27__unique_ptr_deleter_sfinaeISB_EEXT_EE20__good_rval_ref_typeE, symObjAddr: 0x41B0, symBinAddr: 0x100010F08, symSize: 0x48 }
  - { offsetInCU: 0xBF5B, offset: 0x31518, size: 0x8, addend: 0x0, symName: __ZNSt3__117__compressed_pairIPNS_11__tree_nodeINS_12__value_typeI4Suit5ColorEEPvEENS_22__tree_node_destructorINS_9allocatorIS7_EEEEEC1B7v160006IRS8_SC_EEOT_OT0_, symObjAddr: 0x41F8, symBinAddr: 0x100010F50, symSize: 0x3C }
  - { offsetInCU: 0xBFB3, offset: 0x31570, size: 0x8, addend: 0x0, symName: __ZNSt3__117__compressed_pairIPNS_11__tree_nodeINS_12__value_typeI4Suit5ColorEEPvEENS_22__tree_node_destructorINS_9allocatorIS7_EEEEEC2B7v160006IRS8_SC_EEOT_OT0_, symObjAddr: 0x4234, symBinAddr: 0x100010F8C, symSize: 0x48 }
  - { offsetInCU: 0xC00B, offset: 0x315C8, size: 0x8, addend: 0x0, symName: __ZNSt3__122__compressed_pair_elemIPNS_11__tree_nodeINS_12__value_typeI4Suit5ColorEEPvEELi0ELb0EEC2B7v160006IRS8_vEEOT_, symObjAddr: 0x427C, symBinAddr: 0x100010FD4, symSize: 0x24 }
  - { offsetInCU: 0xC04D, offset: 0x3160A, size: 0x8, addend: 0x0, symName: __ZNSt3__122__compressed_pair_elemINS_22__tree_node_destructorINS_9allocatorINS_11__tree_nodeINS_12__value_typeI4Suit5ColorEEPvEEEEEELi1ELb0EEC2B7v160006ISB_vEEOT_, symObjAddr: 0x42A0, symBinAddr: 0x100010FF8, symSize: 0x24 }
  - { offsetInCU: 0xC08F, offset: 0x3164C, size: 0x8, addend: 0x0, symName: __ZNSt3__19allocatorINS_11__tree_nodeINS_12__value_typeI4Suit5ColorEEPvEEE9constructB7v160006INS_4pairIKS3_S4_EEJRKSC_EEEvPT_DpOT0_, symObjAddr: 0x42C4, symBinAddr: 0x10001101C, symSize: 0x28 }
  - { offsetInCU: 0xC0E5, offset: 0x316A2, size: 0x8, addend: 0x0, symName: __ZNSt3__112__value_typeI4Suit5ColorE11__get_valueB7v160006Ev, symObjAddr: 0x42EC, symBinAddr: 0x100011044, symSize: 0x24 }
  - { offsetInCU: 0xC10B, offset: 0x316C8, size: 0x8, addend: 0x0, symName: __ZNKSt3__117__compressed_pairIPNS_11__tree_nodeINS_12__value_typeI4Suit5ColorEEPvEENS_22__tree_node_destructorINS_9allocatorIS7_EEEEE5firstB7v160006Ev, symObjAddr: 0x4348, symBinAddr: 0x1000110A0, symSize: 0x24 }
  - { offsetInCU: 0xC131, offset: 0x316EE, size: 0x8, addend: 0x0, symName: __ZNKSt3__122__compressed_pair_elemIPNS_11__tree_nodeINS_12__value_typeI4Suit5ColorEEPvEELi0ELb0EE5__getB7v160006Ev, symObjAddr: 0x436C, symBinAddr: 0x1000110C4, symSize: 0x14 }
  - { offsetInCU: 0xC157, offset: 0x31714, size: 0x8, addend: 0x0, symName: __ZNSt3__117__compressed_pairIPNS_11__tree_nodeINS_12__value_typeI4Suit5ColorEEPvEENS_22__tree_node_destructorINS_9allocatorIS7_EEEEE6secondB7v160006Ev, symObjAddr: 0x4380, symBinAddr: 0x1000110D8, symSize: 0x28 }
  - { offsetInCU: 0xC17D, offset: 0x3173A, size: 0x8, addend: 0x0, symName: __ZNSt3__122__compressed_pair_elemINS_22__tree_node_destructorINS_9allocatorINS_11__tree_nodeINS_12__value_typeI4Suit5ColorEEPvEEEEEELi1ELb0EE5__getB7v160006Ev, symObjAddr: 0x43A8, symBinAddr: 0x100011100, symSize: 0x14 }
  - { offsetInCU: 0xC1A3, offset: 0x31760, size: 0x8, addend: 0x0, symName: __ZNSt3__16__treeINS_12__value_typeI4Suit5ColorEENS_19__map_value_compareIS2_S4_NS_4lessIS2_EELb1EEENS_9allocatorIS4_EEE4sizeB7v160006Ev, symObjAddr: 0x4638, symBinAddr: 0x100011390, symSize: 0x28 }
  - { offsetInCU: 0xC1C9, offset: 0x31786, size: 0x8, addend: 0x0, symName: __ZNSt3__116__tree_node_baseIPvE12__set_parentB7v160006EPS2_, symObjAddr: 0x4804, symBinAddr: 0x10001155C, symSize: 0x20 }
  - { offsetInCU: 0xC1FE, offset: 0x317BB, size: 0x8, addend: 0x0, symName: __ZNSt3__117__compressed_pairImNS_19__map_value_compareI4SuitNS_12__value_typeIS2_5ColorEENS_4lessIS2_EELb1EEEE5firstB7v160006Ev, symObjAddr: 0x4824, symBinAddr: 0x10001157C, symSize: 0x24 }
  - { offsetInCU: 0xC224, offset: 0x317E1, size: 0x8, addend: 0x0, symName: __ZNSt3__117__compressed_pairIPNS_11__tree_nodeINS_12__value_typeI4Suit5ColorEEPvEENS_22__tree_node_destructorINS_9allocatorIS7_EEEEE5firstB7v160006Ev, symObjAddr: 0x4848, symBinAddr: 0x1000115A0, symSize: 0x24 }
  - { offsetInCU: 0xC24A, offset: 0x31807, size: 0x8, addend: 0x0, symName: __ZNSt3__122__compressed_pair_elemIPNS_11__tree_nodeINS_12__value_typeI4Suit5ColorEEPvEELi0ELb0EE5__getB7v160006Ev, symObjAddr: 0x486C, symBinAddr: 0x1000115C4, symSize: 0x14 }
  - { offsetInCU: 0xC270, offset: 0x3182D, size: 0x8, addend: 0x0, symName: __ZNSt3__110unique_ptrINS_11__tree_nodeINS_12__value_typeI4Suit5ColorEEPvEENS_22__tree_node_destructorINS_9allocatorIS7_EEEEED2B7v160006Ev, symObjAddr: 0x4880, symBinAddr: 0x1000115D8, symSize: 0x30 }
  - { offsetInCU: 0xC29A, offset: 0x31857, size: 0x8, addend: 0x0, symName: __ZNSt3__110unique_ptrINS_11__tree_nodeINS_12__value_typeI4Suit5ColorEEPvEENS_22__tree_node_destructorINS_9allocatorIS7_EEEEE5resetB7v160006EPS7_, symObjAddr: 0x48B0, symBinAddr: 0x100011608, symSize: 0x78 }
  - { offsetInCU: 0xC2DE, offset: 0x3189B, size: 0x8, addend: 0x0, symName: __ZNSt3__122__tree_node_destructorINS_9allocatorINS_11__tree_nodeINS_12__value_typeI4Suit5ColorEEPvEEEEEclB7v160006EPS8_, symObjAddr: 0x4928, symBinAddr: 0x100011680, symSize: 0x98 }
  - { offsetInCU: 0xC313, offset: 0x318D0, size: 0x8, addend: 0x0, symName: __ZNSt3__116allocator_traitsINS_9allocatorINS_11__tree_nodeINS_12__value_typeI4Suit5ColorEEPvEEEEE7destroyB7v160006INS_4pairIKS4_S5_EEvvEEvRS9_PT_, symObjAddr: 0x49C0, symBinAddr: 0x100011718, symSize: 0x14 }
  - { offsetInCU: 0xC34E, offset: 0x3190B, size: 0x8, addend: 0x0, symName: __ZNSt3__116allocator_traitsINS_9allocatorINS_11__tree_nodeINS_12__value_typeI4Suit5ColorEEPvEEEEE10deallocateB7v160006ERS9_PS8_m, symObjAddr: 0x49D4, symBinAddr: 0x10001172C, symSize: 0x34 }
  - { offsetInCU: 0xC390, offset: 0x3194D, size: 0x8, addend: 0x0, symName: __ZNSt3__19allocatorINS_11__tree_nodeINS_12__value_typeI4Suit5ColorEEPvEEE10deallocateB7v160006EPS7_m, symObjAddr: 0x4A08, symBinAddr: 0x100011760, symSize: 0x44 }
  - { offsetInCU: 0xC3D2, offset: 0x3198F, size: 0x8, addend: 0x0, symName: __ZNSt3__115__tree_iteratorINS_12__value_typeI4Suit5ColorEEPNS_11__tree_nodeIS4_PvEElEC2B7v160006ES8_, symObjAddr: 0x4A4C, symBinAddr: 0x1000117A4, symSize: 0x20 }
  - { offsetInCU: 0xC40B, offset: 0x319C8, size: 0x8, addend: 0x0, symName: __ZNSt3__14pairINS_15__tree_iteratorINS_12__value_typeI4Suit5ColorEEPNS_11__tree_nodeIS5_PvEElEEbEC2B7v160006ISA_RbLS7_0EEEOT_OT0_, symObjAddr: 0x4A6C, symBinAddr: 0x1000117C4, symSize: 0x38 }
  - { offsetInCU: 0xC469, offset: 0x31A26, size: 0x8, addend: 0x0, symName: __ZNSt3__114__map_iteratorINS_15__tree_iteratorINS_12__value_typeI4Suit5ColorEEPNS_11__tree_nodeIS5_PvEElEEEC2B7v160006ESA_, symObjAddr: 0x4AA4, symBinAddr: 0x1000117FC, symSize: 0x20 }
  - { offsetInCU: 0xC4A2, offset: 0x31A5F, size: 0x8, addend: 0x0, symName: __ZNSt3__120__map_const_iteratorINS_21__tree_const_iteratorINS_12__value_typeI4Suit5ColorEEPNS_11__tree_nodeIS5_PvEElEEEC2B7v160006ESA_, symObjAddr: 0x4AC4, symBinAddr: 0x10001181C, symSize: 0x20 }
  - { offsetInCU: 0xC4DB, offset: 0x31A98, size: 0x8, addend: 0x0, symName: __ZNSt3__16__treeINS_12__value_typeI4Suit5ColorEENS_19__map_value_compareIS2_S4_NS_4lessIS2_EELb1EEENS_9allocatorIS4_EEED2Ev, symObjAddr: 0x4AE4, symBinAddr: 0x10001183C, symSize: 0x38 }
  - { offsetInCU: 0xC507, offset: 0x31AC4, size: 0x8, addend: 0x0, symName: __ZNSt3__16__treeINS_12__value_typeI4Suit5ColorEENS_19__map_value_compareIS2_S4_NS_4lessIS2_EELb1EEENS_9allocatorIS4_EEE7destroyEPNS_11__tree_nodeIS4_PvEE, symObjAddr: 0x4B1C, symBinAddr: 0x100011874, symSize: 0xA8 }
  - { offsetInCU: 0xC553, offset: 0x31B10, size: 0x8, addend: 0x0, symName: __ZNSt3__13mapI4Suit5ColorNS_4lessIS1_EENS_9allocatorINS_4pairIKS1_S2_EEEEED2B7v160006Ev, symObjAddr: 0x4BC4, symBinAddr: 0x10001191C, symSize: 0x2C }
  - { offsetInCU: 0xC57D, offset: 0x31B3A, size: 0x8, addend: 0x0, symName: __ZNSt3__16__treeINS_12__value_typeI4Suit5ColorEENS_19__map_value_compareIS2_S4_NS_4lessIS2_EELb1EEENS_9allocatorIS4_EEE4findIS2_EENS_15__tree_iteratorIS4_PNS_11__tree_nodeIS4_PvEElEERKT_, symObjAddr: 0x4BF0, symBinAddr: 0x100011948, symSize: 0xF8 }
  - { offsetInCU: 0xC5CC, offset: 0x31B89, size: 0x8, addend: 0x0, symName: __ZNSt3__16__treeINS_12__value_typeI4Suit5ColorEENS_19__map_value_compareIS2_S4_NS_4lessIS2_EELb1EEENS_9allocatorIS4_EEE13__lower_boundIS2_EENS_15__tree_iteratorIS4_PNS_11__tree_nodeIS4_PvEElEERKT_SH_PNS_15__tree_end_nodeIPNS_16__tree_node_baseISF_EEEE, symObjAddr: 0x4CE8, symBinAddr: 0x100011A40, symSize: 0xA4 }
  - { offsetInCU: 0xC62A, offset: 0x31BE7, size: 0x8, addend: 0x0, symName: __ZNKSt3__115__tree_iteratorINS_12__value_typeI4Suit5ColorEEPNS_11__tree_nodeIS4_PvEElEdeB7v160006Ev, symObjAddr: 0x4DC0, symBinAddr: 0x100011B18, symSize: 0x28 }
  - { offsetInCU: 0xC650, offset: 0x31C0D, size: 0x8, addend: 0x0, symName: __ZNKSt3__115__tree_iteratorINS_12__value_typeI4Suit5ColorEEPNS_11__tree_nodeIS4_PvEElE8__get_npB7v160006Ev, symObjAddr: 0x4E18, symBinAddr: 0x100011B70, symSize: 0x18 }
  - { offsetInCU: 0xC676, offset: 0x31C33, size: 0x8, addend: 0x0, symName: __ZNSt3__114pointer_traitsIPNS_4pairIK4Suit5ColorEEE10pointer_toB7v160006ERS5_, symObjAddr: 0x4E30, symBinAddr: 0x100011B88, symSize: 0x14 }
  - { offsetInCU: 0xC699, offset: 0x31C56, size: 0x8, addend: 0x0, symName: __ZNKSt3__115__tree_iteratorINS_12__value_typeI4Suit5ColorEEPNS_11__tree_nodeIS4_PvEElEptB7v160006Ev, symObjAddr: 0x4E44, symBinAddr: 0x100011B9C, symSize: 0x2C }
  - { offsetInCU: 0xC6BF, offset: 0x31C7C, size: 0x8, addend: 0x0, symName: __ZNSt3__114pointer_traitsIPNS_12__value_typeI4Suit5ColorEEE10pointer_toB7v160006ERS4_, symObjAddr: 0x4E70, symBinAddr: 0x100011BC8, symSize: 0x14 }
  - { offsetInCU: 0xC6E7, offset: 0x31CA4, size: 0x8, addend: 0x0, symName: '__ZNSt3__14listI4CardNS_9allocatorIS1_EEE6__sortIZ13find_sandwich8CardDeckE3$_0EENS_15__list_iteratorIS1_PvEESA_SA_mRT_', symObjAddr: 0x56B4, symBinAddr: 0x100011D2C, symSize: 0x604 }
  - { offsetInCU: 0xC82B, offset: 0x31DE8, size: 0x8, addend: 0x0, symName: '__ZZ13find_sandwich8CardDeckENK3$_0clE4CardS1_', symObjAddr: 0x5CB8, symBinAddr: 0x100012330, symSize: 0xC0 }
  - { offsetInCU: 0xC871, offset: 0x31E2E, size: 0x8, addend: 0x0, symName: __ZNSt3__110__list_impI4CardNS_9allocatorIS1_EEE5beginB7v160006Ev, symObjAddr: 0x5D78, symBinAddr: 0x1000123F0, symSize: 0x30 }
  - { offsetInCU: 0xC897, offset: 0x31E54, size: 0x8, addend: 0x0, symName: __ZNSt3__115__list_iteratorI4CardPvEC1B7v160006EPNS_16__list_node_baseIS1_S2_EEPKv, symObjAddr: 0x5DA8, symBinAddr: 0x100012420, symSize: 0x3C }
  - { offsetInCU: 0xC8DF, offset: 0x31E9C, size: 0x8, addend: 0x0, symName: __ZNSt3__115__list_iteratorI4CardPvEC2B7v160006EPNS_16__list_node_baseIS1_S2_EEPKv, symObjAddr: 0x5DE4, symBinAddr: 0x10001245C, symSize: 0x24 }
  - { offsetInCU: 0xC927, offset: 0x31EE4, size: 0x8, addend: 0x0, symName: __ZNSt3__110__list_impI4CardNS_9allocatorIS1_EEE3endB7v160006Ev, symObjAddr: 0x5E08, symBinAddr: 0x100012480, symSize: 0x3C }
  - { offsetInCU: 0xC94D, offset: 0x31F0A, size: 0x8, addend: 0x0, symName: __ZNSt3__16vectorI4CardNS_9allocatorIS1_EEEC2B7v160006ESt16initializer_listIS1_E, symObjAddr: 0x5E44, symBinAddr: 0x1000124BC, symSize: 0x124 }
  - { offsetInCU: 0xC99E, offset: 0x31F5B, size: 0x8, addend: 0x0, symName: __ZNKSt16initializer_listI4CardE4sizeB7v160006Ev, symObjAddr: 0x6028, symBinAddr: 0x100012620, symSize: 0x18 }
  - { offsetInCU: 0xC9C4, offset: 0x31F81, size: 0x8, addend: 0x0, symName: __ZNSt3__16vectorI4CardNS_9allocatorIS1_EEE11__vallocateB7v160006Em, symObjAddr: 0x6040, symBinAddr: 0x100012638, symSize: 0xB4 }
  - { offsetInCU: 0xCA08, offset: 0x31FC5, size: 0x8, addend: 0x0, symName: __ZNSt3__16vectorI4CardNS_9allocatorIS1_EEE18__construct_at_endIPKS1_Li0EEEvT_S8_m, symObjAddr: 0x60F4, symBinAddr: 0x1000126EC, symSize: 0x8C }
  - { offsetInCU: 0xCA7C, offset: 0x32039, size: 0x8, addend: 0x0, symName: __ZNKSt16initializer_listI4CardE5beginB7v160006Ev, symObjAddr: 0x6180, symBinAddr: 0x100012778, symSize: 0x18 }
  - { offsetInCU: 0xCAA2, offset: 0x3205F, size: 0x8, addend: 0x0, symName: __ZNKSt16initializer_listI4CardE3endB7v160006Ev, symObjAddr: 0x6198, symBinAddr: 0x100012790, symSize: 0x28 }
  - { offsetInCU: 0xCAC8, offset: 0x32085, size: 0x8, addend: 0x0, symName: __ZNSt3__128__exception_guard_exceptionsINS_6vectorI4CardNS_9allocatorIS2_EEE16__destroy_vectorEE10__completeB7v160006Ev, symObjAddr: 0x61C0, symBinAddr: 0x1000127B8, symSize: 0x1C }
  - { offsetInCU: 0xCAEE, offset: 0x320AB, size: 0x8, addend: 0x0, symName: __ZNSt3__128__exception_guard_exceptionsINS_6vectorI4CardNS_9allocatorIS2_EEE16__destroy_vectorEED1B7v160006Ev, symObjAddr: 0x61DC, symBinAddr: 0x1000127D4, symSize: 0x2C }
  - { offsetInCU: 0xCB18, offset: 0x320D5, size: 0x8, addend: 0x0, symName: __ZNSt3__128__exception_guard_exceptionsINS_6vectorI4CardNS_9allocatorIS2_EEE16__destroy_vectorEEC1B7v160006ES6_, symObjAddr: 0x62D0, symBinAddr: 0x100012800, symSize: 0x34 }
  - { offsetInCU: 0xCB50, offset: 0x3210D, size: 0x8, addend: 0x0, symName: __ZNSt3__128__exception_guard_exceptionsINS_6vectorI4CardNS_9allocatorIS2_EEE16__destroy_vectorEEC2B7v160006ES6_, symObjAddr: 0x6304, symBinAddr: 0x100012834, symSize: 0x24 }
  - { offsetInCU: 0xCBC4, offset: 0x32181, size: 0x8, addend: 0x0, symName: __ZNKSt3__114__copy_trivialclB7v160006IK4CardS2_Li0EEENS_4pairIPT_PT0_EES6_S6_S8_, symObjAddr: 0x6BFC, symBinAddr: 0x100012A6C, symSize: 0x48 }
  - { offsetInCU: 0xCC4B, offset: 0x32208, size: 0x8, addend: 0x0, symName: __ZNSt3__14pairIPK4CardS3_EC1B7v160006IS3_S3_LPv0EEEOT_OT0_, symObjAddr: 0x6D64, symBinAddr: 0x100012BD4, symSize: 0x3C }
  - { offsetInCU: 0xCCA9, offset: 0x32266, size: 0x8, addend: 0x0, symName: __ZNSt3__14pairIPK4CardS3_EC2B7v160006IS3_S3_LPv0EEEOT_OT0_, symObjAddr: 0x6DA0, symBinAddr: 0x100012C10, symSize: 0x34 }
  - { offsetInCU: 0xCD07, offset: 0x322C4, size: 0x8, addend: 0x0, symName: __ZNSt3__118__unwrap_iter_implIPK4CardLb1EE8__unwrapB7v160006ES3_, symObjAddr: 0x6DD4, symBinAddr: 0x100012C44, symSize: 0x24 }
  - { offsetInCU: 0xCD34, offset: 0x322F1, size: 0x8, addend: 0x0, symName: __ZNSt3__14pairIPK4CardPS1_EC1B7v160006IRS3_S4_LPv0EEEOT_OT0_, symObjAddr: 0x6ED0, symBinAddr: 0x100012D40, symSize: 0x3C }
  - { offsetInCU: 0xCD92, offset: 0x3234F, size: 0x8, addend: 0x0, symName: __ZNSt3__14pairIPK4CardPS1_EC2B7v160006IRS3_S4_LPv0EEEOT_OT0_, symObjAddr: 0x6F0C, symBinAddr: 0x100012D7C, symSize: 0x34 }
  - { offsetInCU: 0xCDF0, offset: 0x323AD, size: 0x8, addend: 0x0, symName: __ZNSt3__118__unwrap_iter_implIP4CardLb1EE8__unwrapB7v160006ES2_, symObjAddr: 0x6F40, symBinAddr: 0x100012DB0, symSize: 0x24 }
  - { offsetInCU: 0xCE13, offset: 0x323D0, size: 0x8, addend: 0x0, symName: __ZNSt3__14pairIPK4CardPS1_EC1B7v160006IS3_S4_LPv0EEEOT_OT0_, symObjAddr: 0x6F64, symBinAddr: 0x100012DD4, symSize: 0x3C }
  - { offsetInCU: 0xCE71, offset: 0x3242E, size: 0x8, addend: 0x0, symName: __ZNSt3__14pairIPK4CardPS1_EC2B7v160006IS3_S4_LPv0EEEOT_OT0_, symObjAddr: 0x6FA0, symBinAddr: 0x100012E10, symSize: 0x34 }
  - { offsetInCU: 0xCECF, offset: 0x3248C, size: 0x8, addend: 0x0, symName: __ZNSt3__118__unwrap_iter_implIPK4CardLb1EE8__rewrapB7v160006ES3_S3_, symObjAddr: 0x7010, symBinAddr: 0x100012E80, symSize: 0x58 }
  - { offsetInCU: 0xCF00, offset: 0x324BD, size: 0x8, addend: 0x0, symName: __ZNSt3__118__unwrap_iter_implIP4CardLb1EE8__rewrapB7v160006ES2_S2_, symObjAddr: 0x7068, symBinAddr: 0x100012ED8, symSize: 0x58 }
  - { offsetInCU: 0xCF31, offset: 0x324EE, size: 0x8, addend: 0x0, symName: __ZNSt3__128__exception_guard_exceptionsINS_6vectorI4CardNS_9allocatorIS2_EEE16__destroy_vectorEED2B7v160006Ev, symObjAddr: 0x70E0, symBinAddr: 0x100012F30, symSize: 0x50 }
  - { offsetInCU: 0x3F81, offset: 0x365DA, size: 0x8, addend: 0x0, symName: '__ZNSt3__111__introsortINS_17_ClassicAlgPolicyERZ5equalRK8CardDeckS4_E3$_0P4CardEEvT1_S9_T0_NS_15iterator_traitsIS9_E15difference_typeE', symObjAddr: 0x32DC, symBinAddr: 0x100014070, symSize: 0x6D0 }
  - { offsetInCU: 0x40DE, offset: 0x36737, size: 0x8, addend: 0x0, symName: '__ZNSt3__118__insertion_sort_3B7v160006INS_17_ClassicAlgPolicyERZ5equalRK8CardDeckS4_E3$_0P4CardEEvT1_S9_T0_', symObjAddr: 0x3BC0, symBinAddr: 0x100014938, symSize: 0x15C }
  - { offsetInCU: 0x41B2, offset: 0x3680B, size: 0x8, addend: 0x0, symName: '__ZNSt3__111__sift_downB7v160006INS_17_ClassicAlgPolicyERZ5equalRK8CardDeckS4_E3$_0P4CardEEvT1_OT0_NS_15iterator_traitsIS9_E15difference_typeES9_', symObjAddr: 0x4614, symBinAddr: 0x100015338, symSize: 0x234 }
  - { offsetInCU: 0x4263, offset: 0x368BC, size: 0x8, addend: 0x0, symName: '__ZNSt3__117__floyd_sift_downB7v160006INS_17_ClassicAlgPolicyERZ5equalRK8CardDeckS4_E3$_0P4CardEET1_S9_OT0_NS_15iterator_traitsIS9_E15difference_typeE', symObjAddr: 0x49EC, symBinAddr: 0x100015710, symSize: 0x110 }
  - { offsetInCU: 0x42FF, offset: 0x36958, size: 0x8, addend: 0x0, symName: '__ZNSt3__127__insertion_sort_incompleteIRZ5equalRK8CardDeckS3_E3$_0P4CardEEbT0_S8_T_', symObjAddr: 0x3F48, symBinAddr: 0x100014CC0, symSize: 0x328 }
  - { offsetInCU: 0x4F04, offset: 0x3755D, size: 0x8, addend: 0x0, symName: __ZNSt3__13getB7v160006ILm0EJbm8CardDeckS1_EEERKNS_13tuple_elementIXT_ENS_5tupleIJDpT0_EEEE4typeERKS6_, symObjAddr: 0x3B0, symBinAddr: 0x10001334C, symSize: 0x24 }
  - { offsetInCU: 0x4F56, offset: 0x375AF, size: 0x8, addend: 0x0, symName: __ZNSt3__13getB7v160006ILm1EJbm8CardDeckS1_EEERKNS_13tuple_elementIXT_ENS_5tupleIJDpT0_EEEE4typeERKS6_, symObjAddr: 0x3D4, symBinAddr: 0x100013370, symSize: 0x28 }
  - { offsetInCU: 0x4FA8, offset: 0x37601, size: 0x8, addend: 0x0, symName: __ZNSt3__13getB7v160006ILm2EJbm8CardDeckS1_EEERKNS_13tuple_elementIXT_ENS_5tupleIJDpT0_EEEE4typeERKS6_, symObjAddr: 0x3FC, symBinAddr: 0x100013398, symSize: 0x28 }
  - { offsetInCU: 0x4FFA, offset: 0x37653, size: 0x8, addend: 0x0, symName: __ZNSt3__13getB7v160006ILm3EJbm8CardDeckS1_EEERKNS_13tuple_elementIXT_ENS_5tupleIJDpT0_EEEE4typeERKS6_, symObjAddr: 0x424, symBinAddr: 0x1000133C0, symSize: 0x28 }
  - { offsetInCU: 0x5185, offset: 0x377DE, size: 0x8, addend: 0x0, symName: '__ZNSt3__14sortB7v160006INS_11__wrap_iterIP4CardEEZ5equalRK8CardDeckS7_E3$_0EEvT_S9_T0_', symObjAddr: 0x704, symBinAddr: 0x100013620, symSize: 0x40 }
  - { offsetInCU: 0x51E0, offset: 0x37839, size: 0x8, addend: 0x0, symName: __ZNSt3__18distanceB7v160006INS_21__list_const_iteratorI4CardPvEEEENS_15iterator_traitsIT_E15difference_typeES6_S6_, symObjAddr: 0x1A94, symBinAddr: 0x100013980, symSize: 0x3C }
  - { offsetInCU: 0x5223, offset: 0x3787C, size: 0x8, addend: 0x0, symName: __ZNSt3__110__distanceB7v160006INS_21__list_const_iteratorI4CardPvEEEENS_15iterator_traitsIT_E15difference_typeES6_S6_NS_18input_iterator_tagE, symObjAddr: 0x1DA8, symBinAddr: 0x100013A58, symSize: 0x5C }
  - { offsetInCU: 0x5280, offset: 0x378D9, size: 0x8, addend: 0x0, symName: __ZNSt3__130__uninitialized_allocator_copyB7v160006INS_9allocatorI4CardEENS_21__list_const_iteratorIS2_PvEES6_PS2_EET2_RT_T0_T1_S8_, symObjAddr: 0x25B4, symBinAddr: 0x100013AB4, symSize: 0x10C }
  - { offsetInCU: 0x531E, offset: 0x37977, size: 0x8, addend: 0x0, symName: __ZNSt3__122__make_exception_guardB7v160006INS_29_AllocatorDestroyRangeReverseINS_9allocatorI4CardEEPS3_EEEENS_28__exception_guard_exceptionsIT_EES8_, symObjAddr: 0x2738, symBinAddr: 0x100013BC0, symSize: 0x4C }
  - { offsetInCU: 0x5354, offset: 0x379AD, size: 0x8, addend: 0x0, symName: __ZNSt3__119__allocator_destroyB7v160006INS_9allocatorI4CardEENS_16reverse_iteratorIPS2_EES6_EEvRT_T0_T1_, symObjAddr: 0x2A18, symBinAddr: 0x100013DEC, symSize: 0x70 }
  - { offsetInCU: 0x53B7, offset: 0x37A10, size: 0x8, addend: 0x0, symName: __ZNSt3__112__to_addressB7v160006INS_16reverse_iteratorIP4CardEEvEENS_5decayIDTclsr19__to_address_helperIT_EE6__callclsr3stdE7declvalIRKS6_EEEEE4typeES8_, symObjAddr: 0x2B30, symBinAddr: 0x100013E5C, symSize: 0x24 }
  - { offsetInCU: 0x5417, offset: 0x37A70, size: 0x8, addend: 0x0, symName: '__ZNSt3__111__sort_implB7v160006INS_17_ClassicAlgPolicyENS_11__wrap_iterIP4CardEEZ5equalRK8CardDeckS8_E3$_0EEvT0_SA_RT1_', symObjAddr: 0x3148, symBinAddr: 0x100013EDC, symSize: 0x84 }
  - { offsetInCU: 0x54BF, offset: 0x37B18, size: 0x8, addend: 0x0, symName: __ZNSt3__123__debug_randomize_rangeB7v160006INS_17_ClassicAlgPolicyENS_11__wrap_iterIP4CardEES5_EEvT0_T1_, symObjAddr: 0x31CC, symBinAddr: 0x100013F60, symSize: 0x14 }
  - { offsetInCU: 0x5510, offset: 0x37B69, size: 0x8, addend: 0x0, symName: '__ZNSt3__16__sortIRZ5equalRK8CardDeckS3_E3$_0P4CardEEvT0_S8_T_', symObjAddr: 0x31E0, symBinAddr: 0x100013F74, symSize: 0x68 }
  - { offsetInCU: 0x55A1, offset: 0x37BFA, size: 0x8, addend: 0x0, symName: __ZNSt3__113__unwrap_iterB7v160006INS_11__wrap_iterIP4CardEENS_18__unwrap_iter_implIS4_Lb1EEELi0EEEDTclsrT0_8__unwrapclsr3stdE7declvalIT_EEEES8_, symObjAddr: 0x3248, symBinAddr: 0x100013FDC, symSize: 0x2C }
  - { offsetInCU: 0x55E6, offset: 0x37C3F, size: 0x8, addend: 0x0, symName: __ZNSt3__17__log2iB7v160006IlEET_S1_, symObjAddr: 0x3274, symBinAddr: 0x100014008, symSize: 0x54 }
  - { offsetInCU: 0x56E2, offset: 0x37D3B, size: 0x8, addend: 0x0, symName: '__ZNSt3__124__sort3_maybe_branchlessB7v160006INS_17_ClassicAlgPolicyERZ5equalRK8CardDeckS4_E3$_0P4CardEENS_9enable_ifIXntsr21__use_branchless_sortIT0_T1_EE5valueEvE4typeESB_SB_SB_SA_', symObjAddr: 0x3AF4, symBinAddr: 0x10001486C, symSize: 0x3C }
  - { offsetInCU: 0x5754, offset: 0x37DAD, size: 0x8, addend: 0x0, symName: '__ZNSt3__124__sort4_maybe_branchlessB7v160006INS_17_ClassicAlgPolicyERZ5equalRK8CardDeckS4_E3$_0P4CardEENS_9enable_ifIXntsr21__use_branchless_sortIT0_T1_EE5valueEvE4typeESB_SB_SB_SB_SA_', symObjAddr: 0x3B30, symBinAddr: 0x1000148A8, symSize: 0x44 }
  - { offsetInCU: 0x57DA, offset: 0x37E33, size: 0x8, addend: 0x0, symName: '__ZNSt3__124__sort5_maybe_branchlessB7v160006INS_17_ClassicAlgPolicyERZ5equalRK8CardDeckS4_E3$_0P4CardEENS_9enable_ifIXntsr21__use_branchless_sortIT0_T1_EE5valueEvE4typeESB_SB_SB_SB_SB_SA_', symObjAddr: 0x3B74, symBinAddr: 0x1000148EC, symSize: 0x4C }
  - { offsetInCU: 0x586F, offset: 0x37EC8, size: 0x8, addend: 0x0, symName: '__ZNSt3__114__partial_sortB7v160006INS_17_ClassicAlgPolicyERZ5equalRK8CardDeckS4_E3$_0P4CardS8_EET1_S9_S9_T2_RT0_', symObjAddr: 0x3D1C, symBinAddr: 0x100014A94, symSize: 0x94 }
  - { offsetInCU: 0x58F9, offset: 0x37F52, size: 0x8, addend: 0x0, symName: '__ZNSt3__119__sort5_wrap_policyB7v160006INS_17_ClassicAlgPolicyERZ5equalRK8CardDeckS4_E3$_0P4CardEEjT1_S9_S9_S9_S9_T0_', symObjAddr: 0x3DB0, symBinAddr: 0x100014B28, symSize: 0x54 }
  - { offsetInCU: 0x59A1, offset: 0x37FFA, size: 0x8, addend: 0x0, symName: '__ZNSt3__17__sort3B7v160006INS_17_ClassicAlgPolicyERZ5equalRK8CardDeckS4_E3$_0P4CardEEjT1_S9_S9_T0_', symObjAddr: 0x3E04, symBinAddr: 0x100014B7C, symSize: 0x144 }
  - { offsetInCU: 0x5A22, offset: 0x3807B, size: 0x8, addend: 0x0, symName: __ZNSt3__19iter_swapB7v160006IP4CardS2_EEvT_T0_, symObjAddr: 0x4288, symBinAddr: 0x100015000, symSize: 0x2C }
  - { offsetInCU: 0x5A6B, offset: 0x380C4, size: 0x8, addend: 0x0, symName: '__ZNSt3__17__sort4B7v160006INS_17_ClassicAlgPolicyERZ5equalRK8CardDeckS4_E3$_0P4CardEEjT1_S9_S9_S9_T0_', symObjAddr: 0x4308, symBinAddr: 0x10001502C, symSize: 0xE4 }
  - { offsetInCU: 0x5AFA, offset: 0x38153, size: 0x8, addend: 0x0, symName: __ZNSt3__123__debug_randomize_rangeB7v160006INS_17_ClassicAlgPolicyEP4CardS3_EEvT0_T1_, symObjAddr: 0x4430, symBinAddr: 0x100015154, symSize: 0x14 }
  - { offsetInCU: 0x5B4B, offset: 0x381A4, size: 0x8, addend: 0x0, symName: '__ZNSt3__119__partial_sort_implB7v160006INS_17_ClassicAlgPolicyERZ5equalRK8CardDeckS4_E3$_0P4CardS8_EET1_S9_S9_T2_OT0_', symObjAddr: 0x4444, symBinAddr: 0x100015168, symSize: 0x110 }
  - { offsetInCU: 0x5BE4, offset: 0x3823D, size: 0x8, addend: 0x0, symName: '__ZNSt3__111__make_heapB7v160006INS_17_ClassicAlgPolicyERZ5equalRK8CardDeckS4_E3$_0P4CardEEvT1_S9_OT0_', symObjAddr: 0x4554, symBinAddr: 0x100015278, symSize: 0xC0 }
  - { offsetInCU: 0x5C8A, offset: 0x382E3, size: 0x8, addend: 0x0, symName: '__ZNSt3__111__sort_heapB7v160006INS_17_ClassicAlgPolicyERZ5equalRK8CardDeckS4_E3$_0P4CardEEvT1_S9_OT0_', symObjAddr: 0x4848, symBinAddr: 0x10001556C, symSize: 0x90 }
  - { offsetInCU: 0x5D21, offset: 0x3837A, size: 0x8, addend: 0x0, symName: '__ZNSt3__110__pop_heapB7v160006INS_17_ClassicAlgPolicyEZ5equalRK8CardDeckS4_E3$_0P4CardEEvT1_S8_RT0_NS_15iterator_traitsIS8_E15difference_typeE', symObjAddr: 0x48D8, symBinAddr: 0x1000155FC, symSize: 0x114 }
  - { offsetInCU: 0x5DD5, offset: 0x3842E, size: 0x8, addend: 0x0, symName: '__ZNSt3__19__sift_upB7v160006INS_17_ClassicAlgPolicyERZ5equalRK8CardDeckS4_E3$_0P4CardEEvT1_S9_OT0_NS_15iterator_traitsIS9_E15difference_typeE', symObjAddr: 0x4AFC, symBinAddr: 0x100015820, symSize: 0x144 }
  - { offsetInCU: 0x5E88, offset: 0x384E1, size: 0x8, addend: 0x0, symName: '__ZNSt3__17__sort5IRZ5equalRK8CardDeckS3_E3$_0P4CardEEjT0_S8_S8_S8_S8_T_', symObjAddr: 0x4C40, symBinAddr: 0x100015964, symSize: 0x12C }
  - { offsetInCU: 0x5F8A, offset: 0x385E3, size: 0x8, addend: 0x0, symName: __ZNSt3__112__to_addressB7v160006INS_11__wrap_iterIP4CardEEvEENS_5decayIDTclsr19__to_address_helperIT_EE6__callclsr3stdE7declvalIRKS6_EEEEE4typeES8_, symObjAddr: 0x4D94, symBinAddr: 0x100015AB8, symSize: 0x24 }
  - { offsetInCU: 0x81B6, offset: 0x3A80F, size: 0x8, addend: 0x0, symName: __ZlsRNSt3__113basic_ostreamIcNS_11char_traitsIcEEEE5Color, symObjAddr: 0x0, symBinAddr: 0x10001303C, symSize: 0x58 }
  - { offsetInCU: 0x81F0, offset: 0x3A849, size: 0x8, addend: 0x0, symName: __ZlsRNSt3__113basic_ostreamIcNS_11char_traitsIcEEEE4Suit, symObjAddr: 0xB0, symBinAddr: 0x100013094, symSize: 0x58 }
  - { offsetInCU: 0x822A, offset: 0x3A883, size: 0x8, addend: 0x0, symName: __ZlsRNSt3__113basic_ostreamIcNS_11char_traitsIcEEEE4Rank, symObjAddr: 0x108, symBinAddr: 0x1000130EC, symSize: 0x58 }
  - { offsetInCU: 0x8264, offset: 0x3A8BD, size: 0x8, addend: 0x0, symName: __ZlsRNSt3__113basic_ostreamIcNS_11char_traitsIcEEEERKNS_4pairI8CardDeckS6_EE, symObjAddr: 0x160, symBinAddr: 0x100013144, symSize: 0xC8 }
  - { offsetInCU: 0x829E, offset: 0x3A8F7, size: 0x8, addend: 0x0, symName: __ZlsRNSt3__113basic_ostreamIcNS_11char_traitsIcEEEERKNS_5tupleIJbm8CardDeckS6_EEE, symObjAddr: 0x270, symBinAddr: 0x10001320C, symSize: 0x140 }
  - { offsetInCU: 0x82D8, offset: 0x3A931, size: 0x8, addend: 0x0, symName: __Z5equalRK8CardDeckS1_, symObjAddr: 0x44C, symBinAddr: 0x1000133E8, symSize: 0x1FC }
  - { offsetInCU: 0x83B5, offset: 0x3AA0E, size: 0x8, addend: 0x0, symName: __ZNSt3__16vectorI4CardNS_9allocatorIS1_EEEC1INS_21__list_const_iteratorIS1_PvEELi0EEET_S9_, symObjAddr: 0x6C8, symBinAddr: 0x1000135E4, symSize: 0x3C }
  - { offsetInCU: 0x840E, offset: 0x3AA67, size: 0x8, addend: 0x0, symName: __Z5equalRKNSt3__14pairI8CardDeckS1_EES4_, symObjAddr: 0x824, symBinAddr: 0x100013660, symSize: 0x60 }
  - { offsetInCU: 0x8448, offset: 0x3AAA1, size: 0x8, addend: 0x0, symName: __Z5equalRKNSt3__15tupleIJbm8CardDeckS1_EEES4_, symObjAddr: 0x884, symBinAddr: 0x1000136C0, symSize: 0xE0 }
  - { offsetInCU: 0x8482, offset: 0x3AADB, size: 0x8, addend: 0x0, symName: __Z5equalIbEbRKT_S2_, symObjAddr: 0x964, symBinAddr: 0x1000137A0, symSize: 0x38 }
  - { offsetInCU: 0x84C5, offset: 0x3AB1E, size: 0x8, addend: 0x0, symName: __Z5equalImEbRKT_S2_, symObjAddr: 0x99C, symBinAddr: 0x1000137D8, symSize: 0x30 }
  - { offsetInCU: 0x8513, offset: 0x3AB6C, size: 0x8, addend: 0x0, symName: __ZNKSt3__112__tuple_leafILm0EbLb0EE3getB7v160006Ev, symObjAddr: 0x9CC, symBinAddr: 0x100013808, symSize: 0x14 }
  - { offsetInCU: 0x853E, offset: 0x3AB97, size: 0x8, addend: 0x0, symName: __ZNKSt3__112__tuple_leafILm1EmLb0EE3getB7v160006Ev, symObjAddr: 0x9E0, symBinAddr: 0x10001381C, symSize: 0x14 }
  - { offsetInCU: 0x8573, offset: 0x3ABCC, size: 0x8, addend: 0x0, symName: __ZNKSt3__112__tuple_leafILm2E8CardDeckLb0EE3getB7v160006Ev, symObjAddr: 0x9F4, symBinAddr: 0x100013830, symSize: 0x14 }
  - { offsetInCU: 0x859E, offset: 0x3ABF7, size: 0x8, addend: 0x0, symName: __ZNKSt3__112__tuple_leafILm3E8CardDeckLb0EE3getB7v160006Ev, symObjAddr: 0xA08, symBinAddr: 0x100013844, symSize: 0x14 }
  - { offsetInCU: 0x85E2, offset: 0x3AC3B, size: 0x8, addend: 0x0, symName: __ZNSt3__16vectorI4CardNS_9allocatorIS1_EEEC2INS_21__list_const_iteratorIS1_PvEELi0EEET_S9_, symObjAddr: 0x18AC, symBinAddr: 0x100013858, symSize: 0x128 }
  - { offsetInCU: 0x8661, offset: 0x3ACBA, size: 0x8, addend: 0x0, symName: __ZNSt3__16vectorI4CardNS_9allocatorIS1_EEE18__construct_at_endINS_21__list_const_iteratorIS1_PvEELi0EEEvT_S9_m, symObjAddr: 0x1B84, symBinAddr: 0x1000139BC, symSize: 0x9C }
  - { offsetInCU: 0x86EE, offset: 0x3AD47, size: 0x8, addend: 0x0, symName: __ZNSt3__129_AllocatorDestroyRangeReverseINS_9allocatorI4CardEEPS2_EC1B7v160006ERS3_RS4_S7_, symObjAddr: 0x2784, symBinAddr: 0x100013C0C, symSize: 0x44 }
  - { offsetInCU: 0x8745, offset: 0x3AD9E, size: 0x8, addend: 0x0, symName: __ZNSt3__128__exception_guard_exceptionsINS_29_AllocatorDestroyRangeReverseINS_9allocatorI4CardEEPS3_EEE10__completeB7v160006Ev, symObjAddr: 0x2828, symBinAddr: 0x100013C50, symSize: 0x1C }
  - { offsetInCU: 0x876B, offset: 0x3ADC4, size: 0x8, addend: 0x0, symName: __ZNSt3__128__exception_guard_exceptionsINS_29_AllocatorDestroyRangeReverseINS_9allocatorI4CardEEPS3_EEED1B7v160006Ev, symObjAddr: 0x2844, symBinAddr: 0x100013C6C, symSize: 0x2C }
  - { offsetInCU: 0x8795, offset: 0x3ADEE, size: 0x8, addend: 0x0, symName: __ZNSt3__128__exception_guard_exceptionsINS_29_AllocatorDestroyRangeReverseINS_9allocatorI4CardEEPS3_EEEC1B7v160006ES6_, symObjAddr: 0x2870, symBinAddr: 0x100013C98, symSize: 0x34 }
  - { offsetInCU: 0x87CE, offset: 0x3AE27, size: 0x8, addend: 0x0, symName: __ZNSt3__128__exception_guard_exceptionsINS_29_AllocatorDestroyRangeReverseINS_9allocatorI4CardEEPS3_EEEC2B7v160006ES6_, symObjAddr: 0x28A4, symBinAddr: 0x100013CCC, symSize: 0x30 }
  - { offsetInCU: 0x8807, offset: 0x3AE60, size: 0x8, addend: 0x0, symName: __ZNSt3__129_AllocatorDestroyRangeReverseINS_9allocatorI4CardEEPS2_EC2B7v160006ERS3_RS4_S7_, symObjAddr: 0x28D4, symBinAddr: 0x100013CFC, symSize: 0x38 }
  - { offsetInCU: 0x885E, offset: 0x3AEB7, size: 0x8, addend: 0x0, symName: __ZNSt3__128__exception_guard_exceptionsINS_29_AllocatorDestroyRangeReverseINS_9allocatorI4CardEEPS3_EEED2B7v160006Ev, symObjAddr: 0x2960, symBinAddr: 0x100013D34, symSize: 0x50 }
  - { offsetInCU: 0x8888, offset: 0x3AEE1, size: 0x8, addend: 0x0, symName: __ZNKSt3__129_AllocatorDestroyRangeReverseINS_9allocatorI4CardEEPS2_EclB7v160006Ev, symObjAddr: 0x29B0, symBinAddr: 0x100013D84, symSize: 0x68 }
  - { offsetInCU: 0x88B3, offset: 0x3AF0C, size: 0x8, addend: 0x0, symName: __ZNSt3__119__to_address_helperINS_16reverse_iteratorIP4CardEEvE6__callB7v160006ERKS4_, symObjAddr: 0x2BA0, symBinAddr: 0x100013E80, symSize: 0x38 }
  - { offsetInCU: 0x88D6, offset: 0x3AF2F, size: 0x8, addend: 0x0, symName: __ZNKSt3__116reverse_iteratorIP4CardEptB7v160006Ev, symObjAddr: 0x2BD8, symBinAddr: 0x100013EB8, symSize: 0x24 }
  - { offsetInCU: 0x8901, offset: 0x3AF5A, size: 0x8, addend: 0x0, symName: '__ZNSt3__116_UnwrapAlgPolicyIRZ5equalRK8CardDeckS3_E3$_0E10__get_compB7v160006ES5_', symObjAddr: 0x32C8, symBinAddr: 0x10001405C, symSize: 0x14 }
  - { offsetInCU: 0x892E, offset: 0x3AF87, size: 0x8, addend: 0x0, symName: '__ZZ5equalRK8CardDeckS1_ENK3$_0clERK4CardS5_', symObjAddr: 0x39E0, symBinAddr: 0x100014758, symSize: 0xE0 }
  - { offsetInCU: 0x8974, offset: 0x3AFCD, size: 0x8, addend: 0x0, symName: __ZNSt3__18_IterOpsINS_17_ClassicAlgPolicyEE9iter_swapB7v160006IRP4CardS6_EEvOT_OT0_, symObjAddr: 0x3AC0, symBinAddr: 0x100014838, symSize: 0x34 }
  - { offsetInCU: 0x89B7, offset: 0x3B010, size: 0x8, addend: 0x0, symName: __ZNSt3__18_IterOpsINS_17_ClassicAlgPolicyEE11__iter_moveB7v160006IRP4CardEENS_9enable_ifIXsr12is_referenceIDTdeclsr3stdE7declvalIRT_EEEEE5valueEDTclsr3stdE4movedeclsr3stdE7declvalIS9_EEEEE4typeEOS8_, symObjAddr: 0x43EC, symBinAddr: 0x100015110, symSize: 0x28 }
  - { offsetInCU: 0x89E3, offset: 0x3B03C, size: 0x8, addend: 0x0, symName: __ZNSt3__18_IterOpsINS_17_ClassicAlgPolicyEE25__validate_iter_referenceB7v160006IRP4CardEEvv, symObjAddr: 0x4414, symBinAddr: 0x100015138, symSize: 0x4 }
  - { offsetInCU: 0x8A01, offset: 0x3B05A, size: 0x8, addend: 0x0, symName: __ZNSt3__18_IterOpsINS_17_ClassicAlgPolicyEE4nextB7v160006IP4CardEET_S6_S6_, symObjAddr: 0x4418, symBinAddr: 0x10001513C, symSize: 0x18 }
  - { offsetInCU: 0x8A38, offset: 0x3B091, size: 0x8, addend: 0x0, symName: __ZNSt3__118__unwrap_iter_implINS_11__wrap_iterIP4CardEELb1EE8__unwrapB7v160006ES4_, symObjAddr: 0x4D6C, symBinAddr: 0x100015A90, symSize: 0x28 }
  - { offsetInCU: 0x8A65, offset: 0x3B0BE, size: 0x8, addend: 0x0, symName: __ZNSt3__119__to_address_helperINS_11__wrap_iterIP4CardEEvE6__callB7v160006ERKS4_, symObjAddr: 0x4DB8, symBinAddr: 0x100015ADC, symSize: 0x30 }
  - { offsetInCU: 0x8A88, offset: 0x3B0E1, size: 0x8, addend: 0x0, symName: __ZNSt3__114pointer_traitsINS_11__wrap_iterIP4CardEEE10to_addressB7v160006ES4_, symObjAddr: 0x4DE8, symBinAddr: 0x100015B0C, symSize: 0x2C }
  - { offsetInCU: 0x4D, offset: 0x3B1A6, size: 0x8, addend: 0x0, symName: __ZppR4Suit, symObjAddr: 0xDC, symBinAddr: 0x100015BD4, symSize: 0xA4 }
  - { offsetInCU: 0x2C28, offset: 0x3DD81, size: 0x8, addend: 0x0, symName: __ZmmR4Suit, symObjAddr: 0x1F0, symBinAddr: 0x100015CE8, symSize: 0xA4 }
  - { offsetInCU: 0x2C5F, offset: 0x3DDB8, size: 0x8, addend: 0x0, symName: __ZppR4Rank, symObjAddr: 0x3E8, symBinAddr: 0x100015EE0, symSize: 0xA4 }
  - { offsetInCU: 0x2C96, offset: 0x3DDEF, size: 0x8, addend: 0x0, symName: __ZmmR4Rank, symObjAddr: 0x4C4, symBinAddr: 0x100015FBC, symSize: 0xA4 }
  - { offsetInCU: 0x4A85, offset: 0x3FBDE, size: 0x8, addend: 0x0, symName: __Z9to_string5Color, symObjAddr: 0x0, symBinAddr: 0x100015B38, symSize: 0x9C }
  - { offsetInCU: 0x4BA7, offset: 0x3FD00, size: 0x8, addend: 0x0, symName: __ZNSt14overflow_errorC1B7v160006EPKc, symObjAddr: 0x180, symBinAddr: 0x100015C78, symSize: 0x34 }
  - { offsetInCU: 0x4BDF, offset: 0x3FD38, size: 0x8, addend: 0x0, symName: __ZppR4Suiti, symObjAddr: 0x1B4, symBinAddr: 0x100015CAC, symSize: 0x3C }
  - { offsetInCU: 0x4C34, offset: 0x3FD8D, size: 0x8, addend: 0x0, symName: __ZNSt15underflow_errorC1B7v160006EPKc, symObjAddr: 0x294, symBinAddr: 0x100015D8C, symSize: 0x34 }
  - { offsetInCU: 0x4C6C, offset: 0x3FDC5, size: 0x8, addend: 0x0, symName: __ZmmR4Suiti, symObjAddr: 0x2C8, symBinAddr: 0x100015DC0, symSize: 0x3C }
  - { offsetInCU: 0x4CB2, offset: 0x3FE0B, size: 0x8, addend: 0x0, symName: __Z9to_string4Suit, symObjAddr: 0x304, symBinAddr: 0x100015DFC, symSize: 0xD4 }
  - { offsetInCU: 0x4CDE, offset: 0x3FE37, size: 0x8, addend: 0x0, symName: __ZppR4Ranki, symObjAddr: 0x48C, symBinAddr: 0x100015F84, symSize: 0x38 }
  - { offsetInCU: 0x4D24, offset: 0x3FE7D, size: 0x8, addend: 0x0, symName: __ZmmR4Ranki, symObjAddr: 0x568, symBinAddr: 0x100016060, symSize: 0x38 }
  - { offsetInCU: 0x4D6A, offset: 0x3FEC3, size: 0x8, addend: 0x0, symName: __Z9to_string4Rank, symObjAddr: 0x5A0, symBinAddr: 0x100016098, symSize: 0x1AC }
  - { offsetInCU: 0x4D96, offset: 0x3FEEF, size: 0x8, addend: 0x0, symName: __ZNSt14overflow_errorC2B7v160006EPKc, symObjAddr: 0x780, symBinAddr: 0x100016278, symSize: 0x4C }
  - { offsetInCU: 0x4DCE, offset: 0x3FF27, size: 0x8, addend: 0x0, symName: __ZNSt15underflow_errorC2B7v160006EPKc, symObjAddr: 0x7CC, symBinAddr: 0x1000162C4, symSize: 0x4C }
...
