---
triple:          'arm64-apple-darwin'
binary-path:     'test/bin/GameTest'
relocations:
  - { offsetInCU: 0x3223, offset: 0x3223, size: 0x8, addend: 0x0, symName: __ZNSt3__124__put_character_sequenceB7v160006IcNS_11char_traitsIcEEEERNS_13basic_ostreamIT_T0_EES7_PKS4_m, symObjAddr: 0x6878, symBinAddr: 0x100007A24, symSize: 0x1EC }
  - { offsetInCU: 0x5E49, offset: 0x5E49, size: 0x8, addend: 0x0, symName: __ZNSt3__19boolalphaB7v160006ERNS_8ios_baseE, symObjAddr: 0x4098, symBinAddr: 0x100005244, symSize: 0x2C }
  - { offsetInCU: 0x5E77, offset: 0x5E77, size: 0x8, addend: 0x0, symName: __ZNSt3__1lsB7v160006INS_11char_traitsIcEEEERNS_13basic_ostreamIcT_EES6_PKc, symObjAddr: 0x40C4, symBinAddr: 0x100005270, symSize: 0x48 }
  - { offsetInCU: 0x7763, offset: 0x7763, size: 0x8, addend: 0x0, symName: __ZNSt3__19make_pairB7v160006IR8CardDeckS2_EENS_4pairINS_18__unwrap_ref_decayIT_E4typeENS4_IT0_E4typeEEEOS5_OS8_, symObjAddr: 0x44F4, symBinAddr: 0x1000056A0, symSize: 0x40 }
  - { offsetInCU: 0x78C0, offset: 0x78C0, size: 0x8, addend: 0x0, symName: __ZNSt3__19make_pairB7v160006I8CardDeckRS1_EENS_4pairINS_18__unwrap_ref_decayIT_E4typeENS4_IT0_E4typeEEEOS5_OS8_, symObjAddr: 0x4800, symBinAddr: 0x1000059AC, symSize: 0x40 }
  - { offsetInCU: 0x790F, offset: 0x790F, size: 0x8, addend: 0x0, symName: __ZNSt3__110make_tupleB7v160006IJbmR8CardDeckS2_EEENS_5tupleIJDpNS_18__unwrap_ref_decayIT_E4typeEEEEDpOS5_, symObjAddr: 0x4840, symBinAddr: 0x1000059EC, symSize: 0x50 }
  - { offsetInCU: 0x8119, offset: 0x8119, size: 0x8, addend: 0x0, symName: __ZNSt3__110make_tupleB7v160006IJbmR8CardDeckS1_EEENS_5tupleIJDpNS_18__unwrap_ref_decayIT_E4typeEEEEDpOS5_, symObjAddr: 0x49A0, symBinAddr: 0x100005B4C, symSize: 0x50 }
  - { offsetInCU: 0x818E, offset: 0x818E, size: 0x8, addend: 0x0, symName: __ZNSt3__118__debug_db_erase_cB7v160006INS_10__list_impI4CardNS_9allocatorIS2_EEEEEEvPT_, symObjAddr: 0x4BA4, symBinAddr: 0x100005D50, symSize: 0x10 }
  - { offsetInCU: 0x81BF, offset: 0x81BF, size: 0x8, addend: 0x0, symName: __ZNSt3__125__debug_db_invalidate_allB7v160006INS_10__list_impI4CardNS_9allocatorIS2_EEEEEEvPT_, symObjAddr: 0x4D30, symBinAddr: 0x100005EDC, symSize: 0x10 }
  - { offsetInCU: 0x8223, offset: 0x8223, size: 0x8, addend: 0x0, symName: __ZNSt3__119__libcpp_deallocateB7v160006EPvmm, symObjAddr: 0x4E9C, symBinAddr: 0x100006048, symSize: 0x60 }
  - { offsetInCU: 0x8288, offset: 0x8288, size: 0x8, addend: 0x0, symName: __ZNSt3__124__is_overaligned_for_newB7v160006Em, symObjAddr: 0x4EFC, symBinAddr: 0x1000060A8, symSize: 0x20 }
  - { offsetInCU: 0x82B6, offset: 0x82B6, size: 0x8, addend: 0x0, symName: __ZNSt3__127__do_deallocate_handle_sizeB7v160006IJSt11align_val_tEEEvPvmDpT_, symObjAddr: 0x4F1C, symBinAddr: 0x1000060C8, symSize: 0x30 }
  - { offsetInCU: 0x8309, offset: 0x8309, size: 0x8, addend: 0x0, symName: __ZNSt3__127__do_deallocate_handle_sizeB7v160006IJEEEvPvmDpT_, symObjAddr: 0x4F4C, symBinAddr: 0x1000060F8, symSize: 0x28 }
  - { offsetInCU: 0x8347, offset: 0x8347, size: 0x8, addend: 0x0, symName: __ZNSt3__124__libcpp_operator_deleteB7v160006IJPvSt11align_val_tEEEvDpT_, symObjAddr: 0x4F74, symBinAddr: 0x100006120, symSize: 0x2C }
  - { offsetInCU: 0x8390, offset: 0x8390, size: 0x8, addend: 0x0, symName: __ZNSt3__124__libcpp_operator_deleteB7v160006IJPvEEEvDpT_, symObjAddr: 0x4FA0, symBinAddr: 0x10000614C, symSize: 0x24 }
  - { offsetInCU: 0x83C5, offset: 0x83C5, size: 0x8, addend: 0x0, symName: __ZNSt3__119__debug_db_insert_cB7v160006INS_4listI4CardNS_9allocatorIS2_EEEEEEvPT_, symObjAddr: 0x5118, symBinAddr: 0x1000062C4, symSize: 0x10 }
  - { offsetInCU: 0x8414, offset: 0x8414, size: 0x8, addend: 0x0, symName: __ZNSt3__117__libcpp_allocateB7v160006Emm, symObjAddr: 0x571C, symBinAddr: 0x1000068C8, symSize: 0x60 }
  - { offsetInCU: 0x846E, offset: 0x846E, size: 0x8, addend: 0x0, symName: __ZNSt3__121__libcpp_operator_newB7v160006IJmSt11align_val_tEEEPvDpT_, symObjAddr: 0x5790, symBinAddr: 0x10000693C, symSize: 0x2C }
  - { offsetInCU: 0x84BB, offset: 0x84BB, size: 0x8, addend: 0x0, symName: __ZNSt3__121__libcpp_operator_newB7v160006IJmEEEPvDpT_, symObjAddr: 0x57BC, symBinAddr: 0x100006968, symSize: 0x24 }
  - { offsetInCU: 0x84F4, offset: 0x84F4, size: 0x8, addend: 0x0, symName: __ZNSt3__1neB7v160006ERKNS_21__list_const_iteratorI4CardPvEES5_, symObjAddr: 0x5DB8, symBinAddr: 0x100006F64, symSize: 0x34 }
  - { offsetInCU: 0x8531, offset: 0x8531, size: 0x8, addend: 0x0, symName: __ZNSt3__1eqB7v160006ERKNS_21__list_const_iteratorI4CardPvEES5_, symObjAddr: 0x5FD4, symBinAddr: 0x100007180, symSize: 0x30 }
  - { offsetInCU: 0x85AC, offset: 0x85AC, size: 0x8, addend: 0x0, symName: __ZNSt3__116__pad_and_outputB7v160006IcNS_11char_traitsIcEEEENS_19ostreambuf_iteratorIT_T0_EES6_PKS4_S8_S8_RNS_8ios_baseES4_, symObjAddr: 0x6AB4, symBinAddr: 0x100007C60, symSize: 0x240 }
  - { offsetInCU: 0x867B, offset: 0x867B, size: 0x8, addend: 0x0, symName: __ZNSt3__119__debug_db_insert_cB7v160006INS_12basic_stringIcNS_11char_traitsIcEENS_9allocatorIcEEEEEEvPT_, symObjAddr: 0x6F68, symBinAddr: 0x100008114, symSize: 0x10 }
  - { offsetInCU: 0x86AC, offset: 0x86AC, size: 0x8, addend: 0x0, symName: __ZNSt3__112__to_addressB7v160006IcEEPT_S2_, symObjAddr: 0x7034, symBinAddr: 0x1000081E0, symSize: 0x14 }
  - { offsetInCU: 0x8714, offset: 0x8714, size: 0x8, addend: 0x0, symName: __ZNSt3__19use_facetB7v160006INS_5ctypeIcEEEERKT_RKNS_6localeE, symObjAddr: 0x72EC, symBinAddr: 0x100008498, symSize: 0x2C }
  - { offsetInCU: 0x8BE3, offset: 0x8BE3, size: 0x8, addend: 0x0, symName: __ZNSt3__118__constexpr_strlenB7v160006EPKc, symObjAddr: 0x7384, symBinAddr: 0x100008530, symSize: 0x24 }
  - { offsetInCU: 0x8C0F, offset: 0x8C0F, size: 0x8, addend: 0x0, symName: __ZNSt3__14endlB7v160006IcNS_11char_traitsIcEEEERNS_13basic_ostreamIT_T0_EES7_, symObjAddr: 0x7404, symBinAddr: 0x1000085B0, symSize: 0x58 }
  - { offsetInCU: 0x8C4F, offset: 0x8C4F, size: 0x8, addend: 0x0, symName: __ZNSt3__1lsB7v160006IcNS_11char_traitsIcEENS_9allocatorIcEEEERNS_13basic_ostreamIT_T0_EES9_RKNS_12basic_stringIS6_S7_T1_EE, symObjAddr: 0x74F4, symBinAddr: 0x1000086A0, symSize: 0x4C }
  - { offsetInCU: 0x8CA7, offset: 0x8CA7, size: 0x8, addend: 0x0, symName: __ZNSt3__1eqB7v160006INS_9allocatorIcEEEEbRKNS_12basic_stringIcNS_11char_traitsIcEET_EES9_, symObjAddr: 0x7540, symBinAddr: 0x1000086EC, symSize: 0x148 }
  - { offsetInCU: 0x8D1A, offset: 0x8D1A, size: 0x8, addend: 0x0, symName: __ZNSt3__112__to_addressB7v160006IKcEEPT_S3_, symObjAddr: 0x77CC, symBinAddr: 0x100008978, symSize: 0x14 }
  - { offsetInCU: 0x8D82, offset: 0x8D82, size: 0x8, addend: 0x0, symName: __ZNSt3__118__constexpr_memcmpB7v160006IcEEiPKT_S3_m, symObjAddr: 0x7898, symBinAddr: 0x100008A44, symSize: 0x34 }
  - { offsetInCU: 0x8DD3, offset: 0x8DD3, size: 0x8, addend: 0x0, symName: __ZNSt3__122__make_exception_guardB7v160006INS_6vectorIiNS_9allocatorIiEEE16__destroy_vectorEEENS_28__exception_guard_exceptionsIT_EES7_, symObjAddr: 0x7A2C, symBinAddr: 0x100008BD8, symSize: 0x40 }
  - { offsetInCU: 0x8E08, offset: 0x8E08, size: 0x8, addend: 0x0, symName: __ZNSt3__119__debug_db_insert_cB7v160006INS_6vectorIiNS_9allocatorIiEEEEEEvPT_, symObjAddr: 0x7AA0, symBinAddr: 0x100008C4C, symSize: 0x10 }
  - { offsetInCU: 0x8E39, offset: 0x8E39, size: 0x8, addend: 0x0, symName: __ZNSt3__119__allocate_at_leastB7v160006INS_9allocatorIiEEEENS_19__allocation_resultINS_16allocator_traitsIT_E7pointerEEERS5_m, symObjAddr: 0x7E3C, symBinAddr: 0x100008FE8, symSize: 0x40 }
  - { offsetInCU: 0x8E7C, offset: 0x8E7C, size: 0x8, addend: 0x0, symName: __ZNSt3__13minB7v160006ImEERKT_S3_S3_, symObjAddr: 0x7F78, symBinAddr: 0x100009124, symSize: 0x2C }
  - { offsetInCU: 0x90A9, offset: 0x90A9, size: 0x8, addend: 0x0, symName: __ZNSt3__13minB7v160006ImNS_6__lessImmEEEERKT_S5_S5_T0_, symObjAddr: 0x8004, symBinAddr: 0x1000091B0, symSize: 0x54 }
  - { offsetInCU: 0x913E, offset: 0x913E, size: 0x8, addend: 0x0, symName: __ZNSt3__120__throw_length_errorB7v160006EPKc, symObjAddr: 0x80E0, symBinAddr: 0x10000928C, symSize: 0x64 }
  - { offsetInCU: 0x9166, offset: 0x9166, size: 0x8, addend: 0x0, symName: __ZNSt3__112__to_addressB7v160006IiEEPT_S2_, symObjAddr: 0x8314, symBinAddr: 0x1000094C0, symSize: 0x14 }
  - { offsetInCU: 0x919B, offset: 0x919B, size: 0x8, addend: 0x0, symName: __ZNSt3__130__uninitialized_allocator_copyB7v160006INS_9allocatorIiEEiiLPv0EEEPT0_RT_PKS4_S9_S5_, symObjAddr: 0x83C4, symBinAddr: 0x100009570, symSize: 0x38 }
  - { offsetInCU: 0x9213, offset: 0x9213, size: 0x8, addend: 0x0, symName: __ZNSt3__14copyB7v160006IPKiPiEET0_T_S5_S4_, symObjAddr: 0x846C, symBinAddr: 0x100009618, symSize: 0x40 }
  - { offsetInCU: 0x926D, offset: 0x926D, size: 0x8, addend: 0x0, symName: __ZNSt3__16__copyB7v160006INS_17_ClassicAlgPolicyEPKiS3_PiEENS_4pairIT0_T2_EES6_T1_S7_, symObjAddr: 0x84AC, symBinAddr: 0x100009658, symSize: 0x44 }
  - { offsetInCU: 0x92D9, offset: 0x92D9, size: 0x8, addend: 0x0, symName: __ZNSt3__123__dispatch_copy_or_moveB7v160006INS_17_ClassicAlgPolicyENS_11__copy_loopIS1_EENS_14__copy_trivialEPKiS6_PiEENS_4pairIT2_T4_EES9_T3_SA_, symObjAddr: 0x84F0, symBinAddr: 0x10000969C, symSize: 0x44 }
  - { offsetInCU: 0x9357, offset: 0x9357, size: 0x8, addend: 0x0, symName: __ZNSt3__121__unwrap_and_dispatchB7v160006INS_10__overloadINS_11__copy_loopINS_17_ClassicAlgPolicyEEENS_14__copy_trivialEEEPKiS8_PiLi0EEENS_4pairIT0_T2_EESB_T1_SC_, symObjAddr: 0x8534, symBinAddr: 0x1000096E0, symSize: 0xB4 }
  - { offsetInCU: 0x93E5, offset: 0x93E5, size: 0x8, addend: 0x0, symName: __ZNSt3__114__unwrap_rangeB7v160006IPKiS2_EENS_4pairIT0_S4_EET_S6_, symObjAddr: 0x85E8, symBinAddr: 0x100009794, symSize: 0x60 }
  - { offsetInCU: 0x957A, offset: 0x957A, size: 0x8, addend: 0x0, symName: __ZNSt3__113__unwrap_iterB7v160006IPiNS_18__unwrap_iter_implIS1_Lb1EEELi0EEEDTclsrT0_8__unwrapclsr3stdE7declvalIT_EEEES5_, symObjAddr: 0x8690, symBinAddr: 0x10000983C, symSize: 0x24 }
  - { offsetInCU: 0x95BE, offset: 0x95BE, size: 0x8, addend: 0x0, symName: __ZNSt3__19make_pairB7v160006IPKiPiEENS_4pairINS_18__unwrap_ref_decayIT_E4typeENS5_IT0_E4typeEEEOS6_OS9_, symObjAddr: 0x86B4, symBinAddr: 0x100009860, symSize: 0x38 }
  - { offsetInCU: 0x960D, offset: 0x960D, size: 0x8, addend: 0x0, symName: __ZNSt3__114__rewrap_rangeB7v160006IPKiS2_EET_S3_T0_, symObjAddr: 0x86EC, symBinAddr: 0x100009898, symSize: 0x2C }
  - { offsetInCU: 0x9659, offset: 0x9659, size: 0x8, addend: 0x0, symName: __ZNSt3__113__rewrap_iterB7v160006IPiS1_NS_18__unwrap_iter_implIS1_Lb1EEEEET_S4_T0_, symObjAddr: 0x8718, symBinAddr: 0x1000098C4, symSize: 0x3C }
  - { offsetInCU: 0x96AE, offset: 0x96AE, size: 0x8, addend: 0x0, symName: __ZNSt3__19make_pairB7v160006IPKiS2_EENS_4pairINS_18__unwrap_ref_decayIT_E4typeENS4_IT0_E4typeEEEOS5_OS8_, symObjAddr: 0x8754, symBinAddr: 0x100009900, symSize: 0x38 }
  - { offsetInCU: 0x96FD, offset: 0x96FD, size: 0x8, addend: 0x0, symName: __ZNSt3__113__unwrap_iterB7v160006IPKiNS_18__unwrap_iter_implIS2_Lb1EEELi0EEEDTclsrT0_8__unwrapclsr3stdE7declvalIT_EEEES6_, symObjAddr: 0x878C, symBinAddr: 0x100009938, symSize: 0x24 }
  - { offsetInCU: 0x9868, offset: 0x9868, size: 0x8, addend: 0x0, symName: __ZNSt3__112__to_addressB7v160006IKiEEPT_S3_, symObjAddr: 0x8844, symBinAddr: 0x1000099F0, symSize: 0x14 }
  - { offsetInCU: 0x989D, offset: 0x989D, size: 0x8, addend: 0x0, symName: __ZNSt3__119__copy_trivial_implB7v160006IKiiEENS_4pairIPT_PT0_EES4_S4_S6_, symObjAddr: 0x8858, symBinAddr: 0x100009A04, symSize: 0x84 }
  - { offsetInCU: 0x9905, offset: 0x9905, size: 0x8, addend: 0x0, symName: __ZNSt3__19make_pairB7v160006IRPKiPiEENS_4pairINS_18__unwrap_ref_decayIT_E4typeENS6_IT0_E4typeEEEOS7_OSA_, symObjAddr: 0x88DC, symBinAddr: 0x100009A88, symSize: 0x38 }
  - { offsetInCU: 0x99A7, offset: 0x99A7, size: 0x8, addend: 0x0, symName: __ZNSt3__113__rewrap_iterB7v160006IPKiS2_NS_18__unwrap_iter_implIS2_Lb1EEEEET_S5_T0_, symObjAddr: 0x8A18, symBinAddr: 0x100009BC4, symSize: 0x3C }
  - { offsetInCU: 0x99FC, offset: 0x99FC, size: 0x8, addend: 0x0, symName: __ZNSt3__118__debug_db_erase_cB7v160006INS_6vectorIiNS_9allocatorIiEEEEEEvPT_, symObjAddr: 0x8CB8, symBinAddr: 0x100009E64, symSize: 0x10 }
  - { offsetInCU: 0x9A2D, offset: 0x9A2D, size: 0x8, addend: 0x0, symName: __ZNSt3__1eqB7v160006IJbm8CardDeckS1_EJbmS1_S1_EEEbRKNS_5tupleIJDpT_EEERKNS2_IJDpT0_EEE, symObjAddr: 0x8EDC, symBinAddr: 0x10000A088, symSize: 0x34 }
  - { offsetInCU: 0x9B2C, offset: 0x9B2C, size: 0x8, addend: 0x0, symName: __ZNSt3__1eqB7v160006I4CardNS_9allocatorIS1_EEEEbRKNS_4listIT_T0_EES9_, symObjAddr: 0x8FF8, symBinAddr: 0x10000A1A4, symSize: 0x98 }
  - { offsetInCU: 0x9B7B, offset: 0x9B7B, size: 0x8, addend: 0x0, symName: __ZNSt3__13getB7v160006ILm3EJbm8CardDeckS1_EEERKNS_13tuple_elementIXT_ENS_5tupleIJDpT0_EEEE4typeERKS6_, symObjAddr: 0x9090, symBinAddr: 0x10000A23C, symSize: 0x28 }
  - { offsetInCU: 0x9C14, offset: 0x9C14, size: 0x8, addend: 0x0, symName: __ZNSt3__13getB7v160006ILm2EJbm8CardDeckS1_EEERKNS_13tuple_elementIXT_ENS_5tupleIJDpT0_EEEE4typeERKS6_, symObjAddr: 0x9134, symBinAddr: 0x10000A2E0, symSize: 0x28 }
  - { offsetInCU: 0x9CAD, offset: 0x9CAD, size: 0x8, addend: 0x0, symName: __ZNSt3__13getB7v160006ILm1EJbm8CardDeckS1_EEERKNS_13tuple_elementIXT_ENS_5tupleIJDpT0_EEEE4typeERKS6_, symObjAddr: 0x91E0, symBinAddr: 0x10000A38C, symSize: 0x28 }
  - { offsetInCU: 0x9D46, offset: 0x9D46, size: 0x8, addend: 0x0, symName: __ZNSt3__13getB7v160006ILm0EJbm8CardDeckS1_EEERKNS_13tuple_elementIXT_ENS_5tupleIJDpT0_EEEE4typeERKS6_, symObjAddr: 0x9228, symBinAddr: 0x10000A3D4, symSize: 0x24 }
  - { offsetInCU: 0x9D98, offset: 0x9D98, size: 0x8, addend: 0x0, symName: __ZNSt3__15equalB7v160006INS_21__list_const_iteratorI4CardPvEES4_EEbT_S5_T0_, symObjAddr: 0x92B0, symBinAddr: 0x10000A45C, symSize: 0x50 }
  - { offsetInCU: 0x9DF2, offset: 0x9DF2, size: 0x8, addend: 0x0, symName: __ZNSt3__15equalB7v160006INS_21__list_const_iteratorI4CardPvEES4_NS_10__equal_toEEEbT_S6_T0_T1_, symObjAddr: 0x9300, symBinAddr: 0x10000A4AC, symSize: 0xB0 }
  - { offsetInCU: 0xA256, offset: 0xA256, size: 0x8, addend: 0x0, symName: __ZSt28__throw_bad_array_new_lengthB7v160006v, symObjAddr: 0x56E8, symBinAddr: 0x100006894, symSize: 0x34 }
  - { offsetInCU: 0xCADF, offset: 0xCADF, size: 0x8, addend: 0x0, symName: _main, symObjAddr: 0x0, symBinAddr: 0x1000011AC, symSize: 0x4058 }
  - { offsetInCU: 0xCF32, offset: 0xCF32, size: 0x8, addend: 0x0, symName: __ZNSt3__113basic_ostreamIcNS_11char_traitsIcEEElsB7v160006EPFRNS_8ios_baseES5_E, symObjAddr: 0x4058, symBinAddr: 0x100005204, symSize: 0x40 }
  - { offsetInCU: 0xCF66, offset: 0xCF66, size: 0x8, addend: 0x0, symName: __Z12assert_equalI5ColorEvRKT_S3_, symObjAddr: 0x410C, symBinAddr: 0x1000052B8, symSize: 0xEC }
  - { offsetInCU: 0xCFA6, offset: 0xCFA6, size: 0x8, addend: 0x0, symName: __Z12assert_equalIiEvRKT_S2_, symObjAddr: 0x41F8, symBinAddr: 0x1000053A4, symSize: 0x104 }
  - { offsetInCU: 0xCFE6, offset: 0xCFE6, size: 0x8, addend: 0x0, symName: __Z12assert_equalIbEvRKT_S2_, symObjAddr: 0x42FC, symBinAddr: 0x1000054A8, symSize: 0x10C }
  - { offsetInCU: 0xD318, offset: 0xD318, size: 0x8, addend: 0x0, symName: __ZN8CardDeckD1Ev, symObjAddr: 0x4408, symBinAddr: 0x1000055B4, symSize: 0x2C }
  - { offsetInCU: 0xD344, offset: 0xD344, size: 0x8, addend: 0x0, symName: __ZN8CardDeckCI1NSt3__14listI4CardNS0_9allocatorIS2_EEEEESt16initializer_listIS2_E, symObjAddr: 0x4434, symBinAddr: 0x1000055E0, symSize: 0x3C }
  - { offsetInCU: 0xD379, offset: 0xD379, size: 0x8, addend: 0x0, symName: __ZNSt3__14listI4CardNS_9allocatorIS1_EEE9pop_frontEv, symObjAddr: 0x4470, symBinAddr: 0x10000561C, symSize: 0x84 }
  - { offsetInCU: 0xD3CE, offset: 0xD3CE, size: 0x8, addend: 0x0, symName: __Z12assert_equalINSt3__14pairI8CardDeckS2_EEEvRKT_S6_, symObjAddr: 0x4534, symBinAddr: 0x1000056E0, symSize: 0xE4 }
  - { offsetInCU: 0xD427, offset: 0xD427, size: 0x8, addend: 0x0, symName: __ZNSt3__14pairI8CardDeckS1_ED1Ev, symObjAddr: 0x4618, symBinAddr: 0x1000057C4, symSize: 0x2C }
  - { offsetInCU: 0xD45D, offset: 0xD45D, size: 0x8, addend: 0x0, symName: __ZN8CardDeckC1ERKS_, symObjAddr: 0x4644, symBinAddr: 0x1000057F0, symSize: 0x34 }
  - { offsetInCU: 0xD492, offset: 0xD492, size: 0x8, addend: 0x0, symName: __Z12assert_equalINSt3__112basic_stringIcNS0_11char_traitsIcEENS0_9allocatorIcEEEEEvRKT_S9_, symObjAddr: 0x4678, symBinAddr: 0x100005824, symSize: 0xFC }
  - { offsetInCU: 0xD4D2, offset: 0xD4D2, size: 0x8, addend: 0x0, symName: __ZNSt3__16vectorIiNS_9allocatorIiEEEC1B7v160006ESt16initializer_listIiE, symObjAddr: 0x4774, symBinAddr: 0x100005920, symSize: 0x3C }
  - { offsetInCU: 0xD50D, offset: 0xD50D, size: 0x8, addend: 0x0, symName: __ZNSt3__16vectorIiNS_9allocatorIiEEEixB7v160006Em, symObjAddr: 0x47B0, symBinAddr: 0x10000595C, symSize: 0x24 }
  - { offsetInCU: 0xD544, offset: 0xD544, size: 0x8, addend: 0x0, symName: __ZNSt3__16vectorIiNS_9allocatorIiEEED1B7v160006Ev, symObjAddr: 0x47D4, symBinAddr: 0x100005980, symSize: 0x2C }
  - { offsetInCU: 0xD56E, offset: 0xD56E, size: 0x8, addend: 0x0, symName: __Z12assert_equalINSt3__15tupleIJbm8CardDeckS2_EEEEvRKT_S6_, symObjAddr: 0x4890, symBinAddr: 0x100005A3C, symSize: 0xE4 }
  - { offsetInCU: 0xD66C, offset: 0xD66C, size: 0x8, addend: 0x0, symName: __ZNSt3__15tupleIJbm8CardDeckS1_EED1Ev, symObjAddr: 0x4974, symBinAddr: 0x100005B20, symSize: 0x2C }
  - { offsetInCU: 0xD699, offset: 0xD699, size: 0x8, addend: 0x0, symName: __ZNSt3__18ios_base4setfB7v160006Ej, symObjAddr: 0x49F0, symBinAddr: 0x100005B9C, symSize: 0x34 }
  - { offsetInCU: 0xD6DF, offset: 0xD6DF, size: 0x8, addend: 0x0, symName: __ZN8CardDeckD2Ev, symObjAddr: 0x4A24, symBinAddr: 0x100005BD0, symSize: 0x2C }
  - { offsetInCU: 0xD70B, offset: 0xD70B, size: 0x8, addend: 0x0, symName: __ZNSt3__14listI4CardNS_9allocatorIS1_EEED2Ev, symObjAddr: 0x4A50, symBinAddr: 0x100005BFC, symSize: 0x2C }
  - { offsetInCU: 0xD738, offset: 0xD738, size: 0x8, addend: 0x0, symName: __ZNSt3__110__list_impI4CardNS_9allocatorIS1_EEED2Ev, symObjAddr: 0x4A7C, symBinAddr: 0x100005C28, symSize: 0x3C }
  - { offsetInCU: 0xD764, offset: 0xD764, size: 0x8, addend: 0x0, symName: __ZNSt3__110__list_impI4CardNS_9allocatorIS1_EEE5clearEv, symObjAddr: 0x4AB8, symBinAddr: 0x100005C64, symSize: 0xEC }
  - { offsetInCU: 0xD7D4, offset: 0xD7D4, size: 0x8, addend: 0x0, symName: __ZNKSt3__110__list_impI4CardNS_9allocatorIS1_EEE5emptyB7v160006Ev, symObjAddr: 0x4BC0, symBinAddr: 0x100005D6C, symSize: 0x34 }
  - { offsetInCU: 0xD7FA, offset: 0xD7FA, size: 0x8, addend: 0x0, symName: __ZNSt3__110__list_impI4CardNS_9allocatorIS1_EEE12__node_allocB7v160006Ev, symObjAddr: 0x4BF4, symBinAddr: 0x100005DA0, symSize: 0x28 }
  - { offsetInCU: 0xD820, offset: 0xD820, size: 0x8, addend: 0x0, symName: __ZNKSt3__110__list_impI4CardNS_9allocatorIS1_EEE13__end_as_linkB7v160006Ev, symObjAddr: 0x4C1C, symBinAddr: 0x100005DC8, symSize: 0x44 }
  - { offsetInCU: 0xD846, offset: 0xD846, size: 0x8, addend: 0x0, symName: __ZNSt3__110__list_impI4CardNS_9allocatorIS1_EEE14__unlink_nodesEPNS_16__list_node_baseIS1_PvEES8_, symObjAddr: 0x4C60, symBinAddr: 0x100005E0C, symSize: 0x3C }
  - { offsetInCU: 0xD87B, offset: 0xD87B, size: 0x8, addend: 0x0, symName: __ZNSt3__110__list_impI4CardNS_9allocatorIS1_EEE4__szB7v160006Ev, symObjAddr: 0x4C9C, symBinAddr: 0x100005E48, symSize: 0x28 }
  - { offsetInCU: 0xD8A1, offset: 0xD8A1, size: 0x8, addend: 0x0, symName: __ZNSt3__116__list_node_baseI4CardPvE9__as_nodeB7v160006Ev, symObjAddr: 0x4CC4, symBinAddr: 0x100005E70, symSize: 0x24 }
  - { offsetInCU: 0xD8C7, offset: 0xD8C7, size: 0x8, addend: 0x0, symName: __ZNSt3__116allocator_traitsINS_9allocatorINS_11__list_nodeI4CardPvEEEEE7destroyB7v160006IS3_vvEEvRS6_PT_, symObjAddr: 0x4CE8, symBinAddr: 0x100005E94, symSize: 0x14 }
  - { offsetInCU: 0xD901, offset: 0xD901, size: 0x8, addend: 0x0, symName: __ZNSt3__116allocator_traitsINS_9allocatorINS_11__list_nodeI4CardPvEEEEE10deallocateB7v160006ERS6_PS5_m, symObjAddr: 0x4CFC, symBinAddr: 0x100005EA8, symSize: 0x34 }
  - { offsetInCU: 0xD943, offset: 0xD943, size: 0x8, addend: 0x0, symName: __ZNKSt3__110__list_impI4CardNS_9allocatorIS1_EEE4__szB7v160006Ev, symObjAddr: 0x4D40, symBinAddr: 0x100005EEC, symSize: 0x28 }
  - { offsetInCU: 0xD969, offset: 0xD969, size: 0x8, addend: 0x0, symName: __ZNKSt3__117__compressed_pairImNS_9allocatorINS_11__list_nodeI4CardPvEEEEE5firstB7v160006Ev, symObjAddr: 0x4D68, symBinAddr: 0x100005F14, symSize: 0x24 }
  - { offsetInCU: 0xD98F, offset: 0xD98F, size: 0x8, addend: 0x0, symName: __ZNKSt3__122__compressed_pair_elemImLi0ELb0EE5__getB7v160006Ev, symObjAddr: 0x4D8C, symBinAddr: 0x100005F38, symSize: 0x14 }
  - { offsetInCU: 0xD9B5, offset: 0xD9B5, size: 0x8, addend: 0x0, symName: __ZNSt3__117__compressed_pairImNS_9allocatorINS_11__list_nodeI4CardPvEEEEE6secondB7v160006Ev, symObjAddr: 0x4DA0, symBinAddr: 0x100005F4C, symSize: 0x24 }
  - { offsetInCU: 0xD9DB, offset: 0xD9DB, size: 0x8, addend: 0x0, symName: __ZNSt3__122__compressed_pair_elemINS_9allocatorINS_11__list_nodeI4CardPvEEEELi1ELb1EE5__getB7v160006Ev, symObjAddr: 0x4DC4, symBinAddr: 0x100005F70, symSize: 0x14 }
  - { offsetInCU: 0xDA01, offset: 0xDA01, size: 0x8, addend: 0x0, symName: __ZNSt3__126__list_node_pointer_traitsI4CardPvE26__unsafe_link_pointer_castB7v160006EPNS_16__list_node_baseIS1_S2_EE, symObjAddr: 0x4DD8, symBinAddr: 0x100005F84, symSize: 0x14 }
  - { offsetInCU: 0xDA25, offset: 0xDA25, size: 0x8, addend: 0x0, symName: __ZNSt3__116__list_node_baseI4CardPvE6__selfB7v160006Ev, symObjAddr: 0x4DEC, symBinAddr: 0x100005F98, symSize: 0x24 }
  - { offsetInCU: 0xDA50, offset: 0xDA50, size: 0x8, addend: 0x0, symName: __ZNSt3__114pointer_traitsIPNS_16__list_node_baseI4CardPvEEE10pointer_toB7v160006ERS4_, symObjAddr: 0x4E10, symBinAddr: 0x100005FBC, symSize: 0x14 }
  - { offsetInCU: 0xDA73, offset: 0xDA73, size: 0x8, addend: 0x0, symName: __ZNSt3__117__compressed_pairImNS_9allocatorINS_11__list_nodeI4CardPvEEEEE5firstB7v160006Ev, symObjAddr: 0x4E24, symBinAddr: 0x100005FD0, symSize: 0x24 }
  - { offsetInCU: 0xDA99, offset: 0xDA99, size: 0x8, addend: 0x0, symName: __ZNSt3__122__compressed_pair_elemImLi0ELb0EE5__getB7v160006Ev, symObjAddr: 0x4E48, symBinAddr: 0x100005FF4, symSize: 0x14 }
  - { offsetInCU: 0xDABF, offset: 0xDABF, size: 0x8, addend: 0x0, symName: __ZNSt3__19allocatorINS_11__list_nodeI4CardPvEEE10deallocateB7v160006EPS4_m, symObjAddr: 0x4E5C, symBinAddr: 0x100006008, symSize: 0x40 }
  - { offsetInCU: 0xDB01, offset: 0xDB01, size: 0x8, addend: 0x0, symName: __ZN8CardDeckCI2NSt3__14listI4CardNS0_9allocatorIS2_EEEEESt16initializer_listIS2_E, symObjAddr: 0x4FC4, symBinAddr: 0x100006170, symSize: 0x3C }
  - { offsetInCU: 0xDB36, offset: 0xDB36, size: 0x8, addend: 0x0, symName: __ZNSt3__14listI4CardNS_9allocatorIS1_EEEC2ESt16initializer_listIS1_E, symObjAddr: 0x5000, symBinAddr: 0x1000061AC, symSize: 0xC8 }
  - { offsetInCU: 0xDB9D, offset: 0xDB9D, size: 0x8, addend: 0x0, symName: __ZNSt3__110__list_impI4CardNS_9allocatorIS1_EEEC2Ev, symObjAddr: 0x50C8, symBinAddr: 0x100006274, symSize: 0x50 }
  - { offsetInCU: 0xDBC9, offset: 0xDBC9, size: 0x8, addend: 0x0, symName: __ZNKSt16initializer_listI4CardE5beginB7v160006Ev, symObjAddr: 0x5128, symBinAddr: 0x1000062D4, symSize: 0x18 }
  - { offsetInCU: 0xDBEF, offset: 0xDBEF, size: 0x8, addend: 0x0, symName: __ZNKSt16initializer_listI4CardE3endB7v160006Ev, symObjAddr: 0x5140, symBinAddr: 0x1000062EC, symSize: 0x28 }
  - { offsetInCU: 0xDC15, offset: 0xDC15, size: 0x8, addend: 0x0, symName: __ZNSt3__14listI4CardNS_9allocatorIS1_EEE9push_backERKS1_, symObjAddr: 0x5168, symBinAddr: 0x100006314, symSize: 0xF4 }
  - { offsetInCU: 0xDC6A, offset: 0xDC6A, size: 0x8, addend: 0x0, symName: __ZNSt3__116__list_node_baseI4CardPvEC1B7v160006Ev, symObjAddr: 0x525C, symBinAddr: 0x100006408, symSize: 0x2C }
  - { offsetInCU: 0xDC9E, offset: 0xDC9E, size: 0x8, addend: 0x0, symName: __ZNSt3__117__compressed_pairImNS_9allocatorINS_11__list_nodeI4CardPvEEEEEC1B7v160006IiNS_18__default_init_tagEEEOT_OT0_, symObjAddr: 0x5288, symBinAddr: 0x100006434, symSize: 0x3C }
  - { offsetInCU: 0xDCF6, offset: 0xDCF6, size: 0x8, addend: 0x0, symName: __ZNSt3__116__list_node_baseI4CardPvEC2B7v160006Ev, symObjAddr: 0x52C4, symBinAddr: 0x100006470, symSize: 0x4C }
  - { offsetInCU: 0xDD20, offset: 0xDD20, size: 0x8, addend: 0x0, symName: __ZNSt3__117__compressed_pairImNS_9allocatorINS_11__list_nodeI4CardPvEEEEEC2B7v160006IiNS_18__default_init_tagEEEOT_OT0_, symObjAddr: 0x5310, symBinAddr: 0x1000064BC, symSize: 0x40 }
  - { offsetInCU: 0xDD78, offset: 0xDD78, size: 0x8, addend: 0x0, symName: __ZNSt3__122__compressed_pair_elemImLi0ELb0EEC2B7v160006IivEEOT_, symObjAddr: 0x5350, symBinAddr: 0x1000064FC, symSize: 0x24 }
  - { offsetInCU: 0xDDBA, offset: 0xDDBA, size: 0x8, addend: 0x0, symName: __ZNSt3__122__compressed_pair_elemINS_9allocatorINS_11__list_nodeI4CardPvEEEELi1ELb1EEC2B7v160006ENS_18__default_init_tagE, symObjAddr: 0x5374, symBinAddr: 0x100006520, symSize: 0x2C }
  - { offsetInCU: 0xDDEF, offset: 0xDDEF, size: 0x8, addend: 0x0, symName: __ZNSt3__19allocatorINS_11__list_nodeI4CardPvEEEC2B7v160006Ev, symObjAddr: 0x53A0, symBinAddr: 0x10000654C, symSize: 0x2C }
  - { offsetInCU: 0xDE19, offset: 0xDE19, size: 0x8, addend: 0x0, symName: __ZNSt3__116__non_trivial_ifILb1ENS_9allocatorINS_11__list_nodeI4CardPvEEEEEC2B7v160006Ev, symObjAddr: 0x53CC, symBinAddr: 0x100006578, symSize: 0x14 }
  - { offsetInCU: 0xDE43, offset: 0xDE43, size: 0x8, addend: 0x0, symName: __ZNSt3__14listI4CardNS_9allocatorIS1_EEE15__allocate_nodeB7v160006ERNS2_INS_11__list_nodeIS1_PvEEEE, symObjAddr: 0x53E0, symBinAddr: 0x10000658C, symSize: 0x70 }
  - { offsetInCU: 0xDE87, offset: 0xDE87, size: 0x8, addend: 0x0, symName: __ZNSt3__116allocator_traitsINS_9allocatorINS_11__list_nodeI4CardPvEEEEE9constructB7v160006IS3_JRKS3_EvEEvRS6_PT_DpOT0_, symObjAddr: 0x5450, symBinAddr: 0x1000065FC, symSize: 0x34 }
  - { offsetInCU: 0xDEDE, offset: 0xDEDE, size: 0x8, addend: 0x0, symName: __ZNKSt3__110unique_ptrINS_11__list_nodeI4CardPvEENS_22__allocator_destructorINS_9allocatorIS4_EEEEEptB7v160006Ev, symObjAddr: 0x5484, symBinAddr: 0x100006630, symSize: 0x28 }
  - { offsetInCU: 0xDF04, offset: 0xDF04, size: 0x8, addend: 0x0, symName: __ZNSt3__14listI4CardNS_9allocatorIS1_EEE20__link_nodes_at_backEPNS_16__list_node_baseIS1_PvEES8_, symObjAddr: 0x54AC, symBinAddr: 0x100006658, symSize: 0x60 }
  - { offsetInCU: 0xDF4A, offset: 0xDF4A, size: 0x8, addend: 0x0, symName: __ZNKSt3__110unique_ptrINS_11__list_nodeI4CardPvEENS_22__allocator_destructorINS_9allocatorIS4_EEEEE3getB7v160006Ev, symObjAddr: 0x550C, symBinAddr: 0x1000066B8, symSize: 0x28 }
  - { offsetInCU: 0xDF70, offset: 0xDF70, size: 0x8, addend: 0x0, symName: __ZNSt3__111__list_nodeI4CardPvE9__as_linkB7v160006Ev, symObjAddr: 0x5534, symBinAddr: 0x1000066E0, symSize: 0x24 }
  - { offsetInCU: 0xDF96, offset: 0xDF96, size: 0x8, addend: 0x0, symName: __ZNSt3__110unique_ptrINS_11__list_nodeI4CardPvEENS_22__allocator_destructorINS_9allocatorIS4_EEEEE7releaseB7v160006Ev, symObjAddr: 0x5558, symBinAddr: 0x100006704, symSize: 0x44 }
  - { offsetInCU: 0xDFCB, offset: 0xDFCB, size: 0x8, addend: 0x0, symName: __ZNSt3__110unique_ptrINS_11__list_nodeI4CardPvEENS_22__allocator_destructorINS_9allocatorIS4_EEEEED1B7v160006Ev, symObjAddr: 0x559C, symBinAddr: 0x100006748, symSize: 0x2C }
  - { offsetInCU: 0xDFF5, offset: 0xDFF5, size: 0x8, addend: 0x0, symName: __ZNSt3__116allocator_traitsINS_9allocatorINS_11__list_nodeI4CardPvEEEEE8allocateB7v160006ERS6_m, symObjAddr: 0x55C8, symBinAddr: 0x100006774, symSize: 0x2C }
  - { offsetInCU: 0xE028, offset: 0xE028, size: 0x8, addend: 0x0, symName: __ZNSt3__122__allocator_destructorINS_9allocatorINS_11__list_nodeI4CardPvEEEEEC1B7v160006ERS6_m, symObjAddr: 0x55F4, symBinAddr: 0x1000067A0, symSize: 0x3C }
  - { offsetInCU: 0xE073, offset: 0xE073, size: 0x8, addend: 0x0, symName: __ZNSt3__110unique_ptrINS_11__list_nodeI4CardPvEENS_22__allocator_destructorINS_9allocatorIS4_EEEEEC1B7v160006ILb1EvEEPS4_NS_16__dependent_typeINS_27__unique_ptr_deleter_sfinaeIS8_EEXT_EE20__good_rval_ref_typeE, symObjAddr: 0x5630, symBinAddr: 0x1000067DC, symSize: 0x3C }
  - { offsetInCU: 0xE0C4, offset: 0xE0C4, size: 0x8, addend: 0x0, symName: __ZNSt3__19allocatorINS_11__list_nodeI4CardPvEEE8allocateB7v160006Em, symObjAddr: 0x566C, symBinAddr: 0x100006818, symSize: 0x58 }
  - { offsetInCU: 0xE102, offset: 0xE102, size: 0x8, addend: 0x0, symName: __ZNSt3__116allocator_traitsINS_9allocatorINS_11__list_nodeI4CardPvEEEEE8max_sizeB7v160006IS6_vEEmRKS6_, symObjAddr: 0x56C4, symBinAddr: 0x100006870, symSize: 0x24 }
  - { offsetInCU: 0xE130, offset: 0xE130, size: 0x8, addend: 0x0, symName: __ZNKSt3__19allocatorINS_11__list_nodeI4CardPvEEE8max_sizeB7v160006Ev, symObjAddr: 0x577C, symBinAddr: 0x100006928, symSize: 0x14 }
  - { offsetInCU: 0xE156, offset: 0xE156, size: 0x8, addend: 0x0, symName: __ZNSt3__122__allocator_destructorINS_9allocatorINS_11__list_nodeI4CardPvEEEEEC2B7v160006ERS6_m, symObjAddr: 0x57E0, symBinAddr: 0x10000698C, symSize: 0x2C }
  - { offsetInCU: 0xE19C, offset: 0xE19C, size: 0x8, addend: 0x0, symName: __ZNSt3__110unique_ptrINS_11__list_nodeI4CardPvEENS_22__allocator_destructorINS_9allocatorIS4_EEEEEC2B7v160006ILb1EvEEPS4_NS_16__dependent_typeINS_27__unique_ptr_deleter_sfinaeIS8_EEXT_EE20__good_rval_ref_typeE, symObjAddr: 0x580C, symBinAddr: 0x1000069B8, symSize: 0x48 }
  - { offsetInCU: 0xE1ED, offset: 0xE1ED, size: 0x8, addend: 0x0, symName: __ZNSt3__117__compressed_pairIPNS_11__list_nodeI4CardPvEENS_22__allocator_destructorINS_9allocatorIS4_EEEEEC1B7v160006IRS5_S9_EEOT_OT0_, symObjAddr: 0x5854, symBinAddr: 0x100006A00, symSize: 0x3C }
  - { offsetInCU: 0xE245, offset: 0xE245, size: 0x8, addend: 0x0, symName: __ZNSt3__117__compressed_pairIPNS_11__list_nodeI4CardPvEENS_22__allocator_destructorINS_9allocatorIS4_EEEEEC2B7v160006IRS5_S9_EEOT_OT0_, symObjAddr: 0x5890, symBinAddr: 0x100006A3C, symSize: 0x48 }
  - { offsetInCU: 0xE29D, offset: 0xE29D, size: 0x8, addend: 0x0, symName: __ZNSt3__122__compressed_pair_elemIPNS_11__list_nodeI4CardPvEELi0ELb0EEC2B7v160006IRS5_vEEOT_, symObjAddr: 0x58D8, symBinAddr: 0x100006A84, symSize: 0x24 }
  - { offsetInCU: 0xE2DF, offset: 0xE2DF, size: 0x8, addend: 0x0, symName: __ZNSt3__122__compressed_pair_elemINS_22__allocator_destructorINS_9allocatorINS_11__list_nodeI4CardPvEEEEEELi1ELb0EEC2B7v160006IS8_vEEOT_, symObjAddr: 0x58FC, symBinAddr: 0x100006AA8, symSize: 0x24 }
  - { offsetInCU: 0xE321, offset: 0xE321, size: 0x8, addend: 0x0, symName: __ZNSt3__19allocatorINS_11__list_nodeI4CardPvEEE9constructB7v160006IS2_JRKS2_EEEvPT_DpOT0_, symObjAddr: 0x5920, symBinAddr: 0x100006ACC, symSize: 0x30 }
  - { offsetInCU: 0xE377, offset: 0xE377, size: 0x8, addend: 0x0, symName: __ZNKSt3__117__compressed_pairIPNS_11__list_nodeI4CardPvEENS_22__allocator_destructorINS_9allocatorIS4_EEEEE5firstB7v160006Ev, symObjAddr: 0x5950, symBinAddr: 0x100006AFC, symSize: 0x24 }
  - { offsetInCU: 0xE39D, offset: 0xE39D, size: 0x8, addend: 0x0, symName: __ZNKSt3__122__compressed_pair_elemIPNS_11__list_nodeI4CardPvEELi0ELb0EE5__getB7v160006Ev, symObjAddr: 0x5974, symBinAddr: 0x100006B20, symSize: 0x14 }
  - { offsetInCU: 0xE3C3, offset: 0xE3C3, size: 0x8, addend: 0x0, symName: __ZNSt3__117__compressed_pairIPNS_11__list_nodeI4CardPvEENS_22__allocator_destructorINS_9allocatorIS4_EEEEE5firstB7v160006Ev, symObjAddr: 0x5988, symBinAddr: 0x100006B34, symSize: 0x24 }
  - { offsetInCU: 0xE3E9, offset: 0xE3E9, size: 0x8, addend: 0x0, symName: __ZNSt3__122__compressed_pair_elemIPNS_11__list_nodeI4CardPvEELi0ELb0EE5__getB7v160006Ev, symObjAddr: 0x59AC, symBinAddr: 0x100006B58, symSize: 0x14 }
  - { offsetInCU: 0xE40F, offset: 0xE40F, size: 0x8, addend: 0x0, symName: __ZNSt3__110unique_ptrINS_11__list_nodeI4CardPvEENS_22__allocator_destructorINS_9allocatorIS4_EEEEED2B7v160006Ev, symObjAddr: 0x59C0, symBinAddr: 0x100006B6C, symSize: 0x30 }
  - { offsetInCU: 0xE439, offset: 0xE439, size: 0x8, addend: 0x0, symName: __ZNSt3__110unique_ptrINS_11__list_nodeI4CardPvEENS_22__allocator_destructorINS_9allocatorIS4_EEEEE5resetB7v160006EPS4_, symObjAddr: 0x59F0, symBinAddr: 0x100006B9C, symSize: 0x78 }
  - { offsetInCU: 0xE47D, offset: 0xE47D, size: 0x8, addend: 0x0, symName: __ZNSt3__117__compressed_pairIPNS_11__list_nodeI4CardPvEENS_22__allocator_destructorINS_9allocatorIS4_EEEEE6secondB7v160006Ev, symObjAddr: 0x5A68, symBinAddr: 0x100006C14, symSize: 0x28 }
  - { offsetInCU: 0xE4A3, offset: 0xE4A3, size: 0x8, addend: 0x0, symName: __ZNSt3__122__allocator_destructorINS_9allocatorINS_11__list_nodeI4CardPvEEEEEclB7v160006EPS5_, symObjAddr: 0x5A90, symBinAddr: 0x100006C3C, symSize: 0x34 }
  - { offsetInCU: 0xE4D7, offset: 0xE4D7, size: 0x8, addend: 0x0, symName: __ZNSt3__122__compressed_pair_elemINS_22__allocator_destructorINS_9allocatorINS_11__list_nodeI4CardPvEEEEEELi1ELb0EE5__getB7v160006Ev, symObjAddr: 0x5AC4, symBinAddr: 0x100006C70, symSize: 0x14 }
  - { offsetInCU: 0xE4FD, offset: 0xE4FD, size: 0x8, addend: 0x0, symName: __ZNSt3__14pairI8CardDeckS1_EC1B7v160006IRS1_S4_LPv0EEEOT_OT0_, symObjAddr: 0x5AD8, symBinAddr: 0x100006C84, symSize: 0x3C }
  - { offsetInCU: 0xE55B, offset: 0xE55B, size: 0x8, addend: 0x0, symName: __ZNSt3__14pairI8CardDeckS1_EC2B7v160006IRS1_S4_LPv0EEEOT_OT0_, symObjAddr: 0x5B14, symBinAddr: 0x100006CC0, symSize: 0x70 }
  - { offsetInCU: 0xE5B9, offset: 0xE5B9, size: 0x8, addend: 0x0, symName: __ZNSt3__14pairI8CardDeckS1_ED2Ev, symObjAddr: 0x5B84, symBinAddr: 0x100006D30, symSize: 0x38 }
  - { offsetInCU: 0xE5E5, offset: 0xE5E5, size: 0x8, addend: 0x0, symName: __ZN8CardDeckC2ERKS_, symObjAddr: 0x5BBC, symBinAddr: 0x100006D68, symSize: 0x34 }
  - { offsetInCU: 0xE61A, offset: 0xE61A, size: 0x8, addend: 0x0, symName: __ZNSt3__14listI4CardNS_9allocatorIS1_EEEC2ERKS4_, symObjAddr: 0x5BF0, symBinAddr: 0x100006D9C, symSize: 0xE4 }
  - { offsetInCU: 0xE681, offset: 0xE681, size: 0x8, addend: 0x0, symName: __ZNSt3__116allocator_traitsINS_9allocatorINS_11__list_nodeI4CardPvEEEEE37select_on_container_copy_constructionB7v160006IS6_vvEES6_RKS6_, symObjAddr: 0x5CD4, symBinAddr: 0x100006E80, symSize: 0x10 }
  - { offsetInCU: 0xE6B0, offset: 0xE6B0, size: 0x8, addend: 0x0, symName: __ZNKSt3__110__list_impI4CardNS_9allocatorIS1_EEE12__node_allocB7v160006Ev, symObjAddr: 0x5CE4, symBinAddr: 0x100006E90, symSize: 0x28 }
  - { offsetInCU: 0xE6D6, offset: 0xE6D6, size: 0x8, addend: 0x0, symName: __ZNSt3__110__list_impI4CardNS_9allocatorIS1_EEEC2EONS2_INS_11__list_nodeIS1_PvEEEE, symObjAddr: 0x5D0C, symBinAddr: 0x100006EB8, symSize: 0x54 }
  - { offsetInCU: 0xE711, offset: 0xE711, size: 0x8, addend: 0x0, symName: __ZNKSt3__14listI4CardNS_9allocatorIS1_EEE5beginB7v160006Ev, symObjAddr: 0x5D60, symBinAddr: 0x100006F0C, symSize: 0x2C }
  - { offsetInCU: 0xE737, offset: 0xE737, size: 0x8, addend: 0x0, symName: __ZNKSt3__14listI4CardNS_9allocatorIS1_EEE3endB7v160006Ev, symObjAddr: 0x5D8C, symBinAddr: 0x100006F38, symSize: 0x2C }
  - { offsetInCU: 0xE75D, offset: 0xE75D, size: 0x8, addend: 0x0, symName: __ZNKSt3__121__list_const_iteratorI4CardPvEdeB7v160006Ev, symObjAddr: 0x5DEC, symBinAddr: 0x100006F98, symSize: 0x2C }
  - { offsetInCU: 0xE783, offset: 0xE783, size: 0x8, addend: 0x0, symName: __ZNSt3__121__list_const_iteratorI4CardPvEppB7v160006Ev, symObjAddr: 0x5E18, symBinAddr: 0x100006FC4, symSize: 0x20 }
  - { offsetInCU: 0xE7A9, offset: 0xE7A9, size: 0x8, addend: 0x0, symName: __ZNKSt3__117__compressed_pairImNS_9allocatorINS_11__list_nodeI4CardPvEEEEE6secondB7v160006Ev, symObjAddr: 0x5E38, symBinAddr: 0x100006FE4, symSize: 0x24 }
  - { offsetInCU: 0xE7CF, offset: 0xE7CF, size: 0x8, addend: 0x0, symName: __ZNKSt3__122__compressed_pair_elemINS_9allocatorINS_11__list_nodeI4CardPvEEEELi1ELb1EE5__getB7v160006Ev, symObjAddr: 0x5E5C, symBinAddr: 0x100007008, symSize: 0x14 }
  - { offsetInCU: 0xE7FA, offset: 0xE7FA, size: 0x8, addend: 0x0, symName: __ZNSt3__117__compressed_pairImNS_9allocatorINS_11__list_nodeI4CardPvEEEEEC1B7v160006IiS6_EEOT_OT0_, symObjAddr: 0x5E70, symBinAddr: 0x10000701C, symSize: 0x3C }
  - { offsetInCU: 0xE852, offset: 0xE852, size: 0x8, addend: 0x0, symName: __ZNSt3__117__compressed_pairImNS_9allocatorINS_11__list_nodeI4CardPvEEEEEC2B7v160006IiS6_EEOT_OT0_, symObjAddr: 0x5EAC, symBinAddr: 0x100007058, symSize: 0x44 }
  - { offsetInCU: 0xE8AA, offset: 0xE8AA, size: 0x8, addend: 0x0, symName: __ZNSt3__122__compressed_pair_elemINS_9allocatorINS_11__list_nodeI4CardPvEEEELi1ELb1EEC2B7v160006IS6_vEEOT_, symObjAddr: 0x5EF0, symBinAddr: 0x10000709C, symSize: 0x18 }
  - { offsetInCU: 0xE8EC, offset: 0xE8EC, size: 0x8, addend: 0x0, symName: __ZNKSt3__110__list_impI4CardNS_9allocatorIS1_EEE5beginB7v160006Ev, symObjAddr: 0x5F08, symBinAddr: 0x1000070B4, symSize: 0x30 }
  - { offsetInCU: 0xE912, offset: 0xE912, size: 0x8, addend: 0x0, symName: __ZNSt3__121__list_const_iteratorI4CardPvEC1B7v160006EPNS_16__list_node_baseIS1_S2_EEPKv, symObjAddr: 0x5F38, symBinAddr: 0x1000070E4, symSize: 0x3C }
  - { offsetInCU: 0xE95A, offset: 0xE95A, size: 0x8, addend: 0x0, symName: __ZNSt3__121__list_const_iteratorI4CardPvEC2B7v160006EPNS_16__list_node_baseIS1_S2_EEPKv, symObjAddr: 0x5F74, symBinAddr: 0x100007120, symSize: 0x24 }
  - { offsetInCU: 0xE9A2, offset: 0xE9A2, size: 0x8, addend: 0x0, symName: __ZNKSt3__110__list_impI4CardNS_9allocatorIS1_EEE3endB7v160006Ev, symObjAddr: 0x5F98, symBinAddr: 0x100007144, symSize: 0x3C }
  - { offsetInCU: 0xE9CD, offset: 0xE9CD, size: 0x8, addend: 0x0, symName: __ZNSt3__14pairI8CardDeckS1_EC1B7v160006IS1_RS1_LPv0EEEOT_OT0_, symObjAddr: 0x6004, symBinAddr: 0x1000071B0, symSize: 0x3C }
  - { offsetInCU: 0xEA2B, offset: 0xEA2B, size: 0x8, addend: 0x0, symName: __ZNSt3__14pairI8CardDeckS1_EC2B7v160006IS1_RS1_LPv0EEEOT_OT0_, symObjAddr: 0x6040, symBinAddr: 0x1000071EC, symSize: 0x70 }
  - { offsetInCU: 0xEA89, offset: 0xEA89, size: 0x8, addend: 0x0, symName: __ZN8CardDeckC1EOS_, symObjAddr: 0x60B0, symBinAddr: 0x10000725C, symSize: 0x34 }
  - { offsetInCU: 0xEABE, offset: 0xEABE, size: 0x8, addend: 0x0, symName: __ZN8CardDeckC2EOS_, symObjAddr: 0x60E4, symBinAddr: 0x100007290, symSize: 0x34 }
  - { offsetInCU: 0xEAF3, offset: 0xEAF3, size: 0x8, addend: 0x0, symName: __ZNSt3__14listI4CardNS_9allocatorIS1_EEEC2EOS4_, symObjAddr: 0x6118, symBinAddr: 0x1000072C4, symSize: 0x78 }
  - { offsetInCU: 0xEB2E, offset: 0xEB2E, size: 0x8, addend: 0x0, symName: __ZNSt3__14listI4CardNS_9allocatorIS1_EEE6spliceENS_21__list_const_iteratorIS1_PvEERS4_, symObjAddr: 0x6190, symBinAddr: 0x10000733C, symSize: 0xAC }
  - { offsetInCU: 0xEBA0, offset: 0xEBA0, size: 0x8, addend: 0x0, symName: __ZNSt3__14listI4CardNS_9allocatorIS1_EEE3endB7v160006Ev, symObjAddr: 0x623C, symBinAddr: 0x1000073E8, symSize: 0x2C }
  - { offsetInCU: 0xEBC6, offset: 0xEBC6, size: 0x8, addend: 0x0, symName: __ZNSt3__121__list_const_iteratorI4CardPvEC1B7v160006ERKNS_15__list_iteratorIS1_S2_EE, symObjAddr: 0x6268, symBinAddr: 0x100007414, symSize: 0x34 }
  - { offsetInCU: 0xEBFF, offset: 0xEBFF, size: 0x8, addend: 0x0, symName: __ZNKSt3__14listI4CardNS_9allocatorIS1_EEE5emptyB7v160006Ev, symObjAddr: 0x629C, symBinAddr: 0x100007448, symSize: 0x28 }
  - { offsetInCU: 0xEC25, offset: 0xEC25, size: 0x8, addend: 0x0, symName: __ZNSt3__14listI4CardNS_9allocatorIS1_EEE12__link_nodesEPNS_16__list_node_baseIS1_PvEES8_S8_, symObjAddr: 0x62C4, symBinAddr: 0x100007470, symSize: 0x50 }
  - { offsetInCU: 0xEC69, offset: 0xEC69, size: 0x8, addend: 0x0, symName: __ZNSt3__110__list_impI4CardNS_9allocatorIS1_EEE3endB7v160006Ev, symObjAddr: 0x6314, symBinAddr: 0x1000074C0, symSize: 0x3C }
  - { offsetInCU: 0xEC8F, offset: 0xEC8F, size: 0x8, addend: 0x0, symName: __ZNSt3__115__list_iteratorI4CardPvEC1B7v160006EPNS_16__list_node_baseIS1_S2_EEPKv, symObjAddr: 0x6350, symBinAddr: 0x1000074FC, symSize: 0x3C }
  - { offsetInCU: 0xECD7, offset: 0xECD7, size: 0x8, addend: 0x0, symName: __ZNSt3__115__list_iteratorI4CardPvEC2B7v160006EPNS_16__list_node_baseIS1_S2_EEPKv, symObjAddr: 0x638C, symBinAddr: 0x100007538, symSize: 0x24 }
  - { offsetInCU: 0xED1F, offset: 0xED1F, size: 0x8, addend: 0x0, symName: __ZNSt3__121__list_const_iteratorI4CardPvEC2B7v160006ERKNS_15__list_iteratorIS1_S2_EE, symObjAddr: 0x63B0, symBinAddr: 0x10000755C, symSize: 0x24 }
  - { offsetInCU: 0xED62, offset: 0xED62, size: 0x8, addend: 0x0, symName: __ZNSt3__15tupleIJbm8CardDeckS1_EEC1B7v160006IJbmRS1_S4_ELi0EEEDpOT_, symObjAddr: 0x63D4, symBinAddr: 0x100007580, symSize: 0x4C }
  - { offsetInCU: 0xEDE8, offset: 0xEDE8, size: 0x8, addend: 0x0, symName: __ZNSt3__15tupleIJbm8CardDeckS1_EEC2B7v160006IJbmRS1_S4_ELi0EEEDpOT_, symObjAddr: 0x6420, symBinAddr: 0x1000075CC, symSize: 0x4C }
  - { offsetInCU: 0xEE6E, offset: 0xEE6E, size: 0x8, addend: 0x0, symName: __ZNSt3__112__tuple_implINS_15__tuple_indicesIJLm0ELm1ELm2ELm3EEEEJbm8CardDeckS3_EEC1B7v160006IJLm0ELm1ELm2ELm3EEJbmS3_S3_EJEJEJbmRS3_S6_EEENS1_IJXspT_EEEENS_13__tuple_typesIJDpT0_EEENS1_IJXspT1_EEEENS8_IJDpT2_EEEDpOT3_, symObjAddr: 0x646C, symBinAddr: 0x100007618, symSize: 0x4C }
  - { offsetInCU: 0xEF5C, offset: 0xEF5C, size: 0x8, addend: 0x0, symName: __ZNSt3__112__tuple_implINS_15__tuple_indicesIJLm0ELm1ELm2ELm3EEEEJbm8CardDeckS3_EEC2B7v160006IJLm0ELm1ELm2ELm3EEJbmS3_S3_EJEJEJbmRS3_S6_EEENS1_IJXspT_EEEENS_13__tuple_typesIJDpT0_EEENS1_IJXspT1_EEEENS8_IJDpT2_EEEDpOT3_, symObjAddr: 0x64B8, symBinAddr: 0x100007664, symSize: 0x98 }
  - { offsetInCU: 0xF04A, offset: 0xF04A, size: 0x8, addend: 0x0, symName: __ZNSt3__112__tuple_leafILm0EbLb0EEC2B7v160006IbvEEOT_, symObjAddr: 0x6550, symBinAddr: 0x1000076FC, symSize: 0x28 }
  - { offsetInCU: 0xF08D, offset: 0xF08D, size: 0x8, addend: 0x0, symName: __ZNSt3__112__tuple_leafILm1EmLb0EEC2B7v160006ImvEEOT_, symObjAddr: 0x6578, symBinAddr: 0x100007724, symSize: 0x24 }
  - { offsetInCU: 0xF0D0, offset: 0xF0D0, size: 0x8, addend: 0x0, symName: __ZNSt3__112__tuple_leafILm2E8CardDeckLb0EEC2B7v160006IRS1_vEEOT_, symObjAddr: 0x659C, symBinAddr: 0x100007748, symSize: 0x34 }
  - { offsetInCU: 0xF113, offset: 0xF113, size: 0x8, addend: 0x0, symName: __ZNSt3__112__tuple_leafILm3E8CardDeckLb0EEC2B7v160006IRS1_vEEOT_, symObjAddr: 0x65D0, symBinAddr: 0x10000777C, symSize: 0x34 }
  - { offsetInCU: 0xF156, offset: 0xF156, size: 0x8, addend: 0x0, symName: __ZNSt3__112__tuple_leafILm2E8CardDeckLb0EED2Ev, symObjAddr: 0x6604, symBinAddr: 0x1000077B0, symSize: 0x2C }
  - { offsetInCU: 0xF183, offset: 0xF183, size: 0x8, addend: 0x0, symName: __ZNSt3__15tupleIJbm8CardDeckS1_EED2Ev, symObjAddr: 0x6630, symBinAddr: 0x1000077DC, symSize: 0x2C }
  - { offsetInCU: 0xF1B0, offset: 0xF1B0, size: 0x8, addend: 0x0, symName: __ZNSt3__112__tuple_implINS_15__tuple_indicesIJLm0ELm1ELm2ELm3EEEEJbm8CardDeckS3_EED1Ev, symObjAddr: 0x665C, symBinAddr: 0x100007808, symSize: 0x2C }
  - { offsetInCU: 0xF1DD, offset: 0xF1DD, size: 0x8, addend: 0x0, symName: __ZNSt3__112__tuple_implINS_15__tuple_indicesIJLm0ELm1ELm2ELm3EEEEJbm8CardDeckS3_EED2Ev, symObjAddr: 0x6688, symBinAddr: 0x100007834, symSize: 0x3C }
  - { offsetInCU: 0xF20A, offset: 0xF20A, size: 0x8, addend: 0x0, symName: __ZNSt3__112__tuple_leafILm3E8CardDeckLb0EED2Ev, symObjAddr: 0x66C4, symBinAddr: 0x100007870, symSize: 0x2C }
  - { offsetInCU: 0xF237, offset: 0xF237, size: 0x8, addend: 0x0, symName: __ZNSt3__15tupleIJbm8CardDeckS1_EEC1B7v160006IJbmRS1_S1_ELi0EEEDpOT_, symObjAddr: 0x66F0, symBinAddr: 0x10000789C, symSize: 0x4C }
  - { offsetInCU: 0xF2BD, offset: 0xF2BD, size: 0x8, addend: 0x0, symName: __ZNSt3__15tupleIJbm8CardDeckS1_EEC2B7v160006IJbmRS1_S1_ELi0EEEDpOT_, symObjAddr: 0x673C, symBinAddr: 0x1000078E8, symSize: 0x4C }
  - { offsetInCU: 0xF343, offset: 0xF343, size: 0x8, addend: 0x0, symName: __ZNSt3__112__tuple_implINS_15__tuple_indicesIJLm0ELm1ELm2ELm3EEEEJbm8CardDeckS3_EEC1B7v160006IJLm0ELm1ELm2ELm3EEJbmS3_S3_EJEJEJbmRS3_S3_EEENS1_IJXspT_EEEENS_13__tuple_typesIJDpT0_EEENS1_IJXspT1_EEEENS8_IJDpT2_EEEDpOT3_, symObjAddr: 0x6788, symBinAddr: 0x100007934, symSize: 0x4C }
  - { offsetInCU: 0xF431, offset: 0xF431, size: 0x8, addend: 0x0, symName: __ZNSt3__112__tuple_implINS_15__tuple_indicesIJLm0ELm1ELm2ELm3EEEEJbm8CardDeckS3_EEC2B7v160006IJLm0ELm1ELm2ELm3EEJbmS3_S3_EJEJEJbmRS3_S3_EEENS1_IJXspT_EEEENS_13__tuple_typesIJDpT0_EEENS1_IJXspT1_EEEENS8_IJDpT2_EEEDpOT3_, symObjAddr: 0x67D4, symBinAddr: 0x100007980, symSize: 0x70 }
  - { offsetInCU: 0xF51F, offset: 0xF51F, size: 0x8, addend: 0x0, symName: __ZNSt3__112__tuple_leafILm3E8CardDeckLb0EEC2B7v160006IS1_vEEOT_, symObjAddr: 0x6844, symBinAddr: 0x1000079F0, symSize: 0x34 }
  - { offsetInCU: 0xF562, offset: 0xF562, size: 0x8, addend: 0x0, symName: __ZNSt3__111char_traitsIcE6lengthEPKc, symObjAddr: 0x6A64, symBinAddr: 0x100007C10, symSize: 0x34 }
  - { offsetInCU: 0xF5A3, offset: 0xF5A3, size: 0x8, addend: 0x0, symName: __ZNKSt3__113basic_ostreamIcNS_11char_traitsIcEEE6sentrycvbB7v160006Ev, symObjAddr: 0x6A98, symBinAddr: 0x100007C44, symSize: 0x1C }
  - { offsetInCU: 0xF5C9, offset: 0xF5C9, size: 0x8, addend: 0x0, symName: __ZNSt3__119ostreambuf_iteratorIcNS_11char_traitsIcEEEC1B7v160006ERNS_13basic_ostreamIcS2_EE, symObjAddr: 0x6CF4, symBinAddr: 0x100007EA0, symSize: 0x34 }
  - { offsetInCU: 0xF601, offset: 0xF601, size: 0x8, addend: 0x0, symName: __ZNKSt3__18ios_base5flagsB7v160006Ev, symObjAddr: 0x6D28, symBinAddr: 0x100007ED4, symSize: 0x18 }
  - { offsetInCU: 0xF629, offset: 0xF629, size: 0x8, addend: 0x0, symName: __ZNKSt3__19basic_iosIcNS_11char_traitsIcEEE4fillB7v160006Ev, symObjAddr: 0x6D40, symBinAddr: 0x100007EEC, symSize: 0x64 }
  - { offsetInCU: 0xF651, offset: 0xF651, size: 0x8, addend: 0x0, symName: __ZNKSt3__119ostreambuf_iteratorIcNS_11char_traitsIcEEE6failedB7v160006Ev, symObjAddr: 0x6DA4, symBinAddr: 0x100007F50, symSize: 0x24 }
  - { offsetInCU: 0xF677, offset: 0xF677, size: 0x8, addend: 0x0, symName: __ZNSt3__19basic_iosIcNS_11char_traitsIcEEE8setstateB7v160006Ej, symObjAddr: 0x6DC8, symBinAddr: 0x100007F74, symSize: 0x2C }
  - { offsetInCU: 0xF6AC, offset: 0xF6AC, size: 0x8, addend: 0x0, symName: __ZNKSt3__18ios_base5widthB7v160006Ev, symObjAddr: 0x6DF4, symBinAddr: 0x100007FA0, symSize: 0x18 }
  - { offsetInCU: 0xF6D4, offset: 0xF6D4, size: 0x8, addend: 0x0, symName: __ZNSt3__115basic_streambufIcNS_11char_traitsIcEEE5sputnB7v160006EPKcl, symObjAddr: 0x6E0C, symBinAddr: 0x100007FB8, symSize: 0x3C }
  - { offsetInCU: 0xF716, offset: 0xF716, size: 0x8, addend: 0x0, symName: __ZNSt3__112basic_stringIcNS_11char_traitsIcEENS_9allocatorIcEEEC1B7v160006Emc, symObjAddr: 0x6E48, symBinAddr: 0x100007FF4, symSize: 0x3C }
  - { offsetInCU: 0xF75E, offset: 0xF75E, size: 0x8, addend: 0x0, symName: __ZNSt3__112basic_stringIcNS_11char_traitsIcEENS_9allocatorIcEEE4dataB7v160006Ev, symObjAddr: 0x6E84, symBinAddr: 0x100008030, symSize: 0x28 }
  - { offsetInCU: 0xF784, offset: 0xF784, size: 0x8, addend: 0x0, symName: __ZNSt3__18ios_base5widthB7v160006El, symObjAddr: 0x6EAC, symBinAddr: 0x100008058, symSize: 0x2C }
  - { offsetInCU: 0xF7CA, offset: 0xF7CA, size: 0x8, addend: 0x0, symName: __ZNSt3__112basic_stringIcNS_11char_traitsIcEENS_9allocatorIcEEEC2B7v160006Emc, symObjAddr: 0x6ED8, symBinAddr: 0x100008084, symSize: 0x54 }
  - { offsetInCU: 0xF812, offset: 0xF812, size: 0x8, addend: 0x0, symName: __ZNSt3__117__compressed_pairINS_12basic_stringIcNS_11char_traitsIcEENS_9allocatorIcEEE5__repES5_EC1B7v160006INS_18__default_init_tagESA_EEOT_OT0_, symObjAddr: 0x6F2C, symBinAddr: 0x1000080D8, symSize: 0x3C }
  - { offsetInCU: 0xF86A, offset: 0xF86A, size: 0x8, addend: 0x0, symName: __ZNSt3__117__compressed_pairINS_12basic_stringIcNS_11char_traitsIcEENS_9allocatorIcEEE5__repES5_EC2B7v160006INS_18__default_init_tagESA_EEOT_OT0_, symObjAddr: 0x6F78, symBinAddr: 0x100008124, symSize: 0x3C }
  - { offsetInCU: 0xF8C2, offset: 0xF8C2, size: 0x8, addend: 0x0, symName: __ZNSt3__122__compressed_pair_elemINS_12basic_stringIcNS_11char_traitsIcEENS_9allocatorIcEEE5__repELi0ELb0EEC2B7v160006ENS_18__default_init_tagE, symObjAddr: 0x6FB4, symBinAddr: 0x100008160, symSize: 0x14 }
  - { offsetInCU: 0xF8F7, offset: 0xF8F7, size: 0x8, addend: 0x0, symName: __ZNSt3__122__compressed_pair_elemINS_9allocatorIcEELi1ELb1EEC2B7v160006ENS_18__default_init_tagE, symObjAddr: 0x6FC8, symBinAddr: 0x100008174, symSize: 0x2C }
  - { offsetInCU: 0xF92C, offset: 0xF92C, size: 0x8, addend: 0x0, symName: __ZNSt3__19allocatorIcEC2B7v160006Ev, symObjAddr: 0x6FF4, symBinAddr: 0x1000081A0, symSize: 0x2C }
  - { offsetInCU: 0xF956, offset: 0xF956, size: 0x8, addend: 0x0, symName: __ZNSt3__116__non_trivial_ifILb1ENS_9allocatorIcEEEC2B7v160006Ev, symObjAddr: 0x7020, symBinAddr: 0x1000081CC, symSize: 0x14 }
  - { offsetInCU: 0xF980, offset: 0xF980, size: 0x8, addend: 0x0, symName: __ZNSt3__112basic_stringIcNS_11char_traitsIcEENS_9allocatorIcEEE13__get_pointerB7v160006Ev, symObjAddr: 0x7048, symBinAddr: 0x1000081F4, symSize: 0x54 }
  - { offsetInCU: 0xF9A6, offset: 0xF9A6, size: 0x8, addend: 0x0, symName: __ZNKSt3__112basic_stringIcNS_11char_traitsIcEENS_9allocatorIcEEE9__is_longB7v160006Ev, symObjAddr: 0x709C, symBinAddr: 0x100008248, symSize: 0x38 }
  - { offsetInCU: 0xF9CC, offset: 0xF9CC, size: 0x8, addend: 0x0, symName: __ZNSt3__112basic_stringIcNS_11char_traitsIcEENS_9allocatorIcEEE18__get_long_pointerB7v160006Ev, symObjAddr: 0x70D4, symBinAddr: 0x100008280, symSize: 0x28 }
  - { offsetInCU: 0xF9F2, offset: 0xF9F2, size: 0x8, addend: 0x0, symName: __ZNSt3__112basic_stringIcNS_11char_traitsIcEENS_9allocatorIcEEE19__get_short_pointerB7v160006Ev, symObjAddr: 0x70FC, symBinAddr: 0x1000082A8, symSize: 0x28 }
  - { offsetInCU: 0xFA18, offset: 0xFA18, size: 0x8, addend: 0x0, symName: __ZNKSt3__117__compressed_pairINS_12basic_stringIcNS_11char_traitsIcEENS_9allocatorIcEEE5__repES5_E5firstB7v160006Ev, symObjAddr: 0x7124, symBinAddr: 0x1000082D0, symSize: 0x24 }
  - { offsetInCU: 0xFA3E, offset: 0xFA3E, size: 0x8, addend: 0x0, symName: __ZNKSt3__122__compressed_pair_elemINS_12basic_stringIcNS_11char_traitsIcEENS_9allocatorIcEEE5__repELi0ELb0EE5__getB7v160006Ev, symObjAddr: 0x7148, symBinAddr: 0x1000082F4, symSize: 0x14 }
  - { offsetInCU: 0xFA64, offset: 0xFA64, size: 0x8, addend: 0x0, symName: __ZNSt3__117__compressed_pairINS_12basic_stringIcNS_11char_traitsIcEENS_9allocatorIcEEE5__repES5_E5firstB7v160006Ev, symObjAddr: 0x715C, symBinAddr: 0x100008308, symSize: 0x24 }
  - { offsetInCU: 0xFA8A, offset: 0xFA8A, size: 0x8, addend: 0x0, symName: __ZNSt3__122__compressed_pair_elemINS_12basic_stringIcNS_11char_traitsIcEENS_9allocatorIcEEE5__repELi0ELb0EE5__getB7v160006Ev, symObjAddr: 0x7180, symBinAddr: 0x10000832C, symSize: 0x14 }
  - { offsetInCU: 0xFAB0, offset: 0xFAB0, size: 0x8, addend: 0x0, symName: __ZNSt3__114pointer_traitsIPcE10pointer_toB7v160006ERc, symObjAddr: 0x7194, symBinAddr: 0x100008340, symSize: 0x14 }
  - { offsetInCU: 0xFAD3, offset: 0xFAD3, size: 0x8, addend: 0x0, symName: __ZNSt3__119ostreambuf_iteratorIcNS_11char_traitsIcEEEC2B7v160006ERNS_13basic_ostreamIcS2_EE, symObjAddr: 0x71A8, symBinAddr: 0x100008354, symSize: 0x54 }
  - { offsetInCU: 0xFB0B, offset: 0xFB0B, size: 0x8, addend: 0x0, symName: __ZNKSt3__19basic_iosIcNS_11char_traitsIcEEE5rdbufB7v160006Ev, symObjAddr: 0x71FC, symBinAddr: 0x1000083A8, symSize: 0x24 }
  - { offsetInCU: 0xFB33, offset: 0xFB33, size: 0x8, addend: 0x0, symName: __ZNKSt3__18ios_base5rdbufB7v160006Ev, symObjAddr: 0x7220, symBinAddr: 0x1000083CC, symSize: 0x18 }
  - { offsetInCU: 0xFB59, offset: 0xFB59, size: 0x8, addend: 0x0, symName: __ZNSt3__111char_traitsIcE11eq_int_typeEii, symObjAddr: 0x7238, symBinAddr: 0x1000083E4, symSize: 0x28 }
  - { offsetInCU: 0xFB8A, offset: 0xFB8A, size: 0x8, addend: 0x0, symName: __ZNSt3__111char_traitsIcE3eofEv, symObjAddr: 0x7260, symBinAddr: 0x10000840C, symSize: 0x8 }
  - { offsetInCU: 0xFB9E, offset: 0xFB9E, size: 0x8, addend: 0x0, symName: __ZNKSt3__19basic_iosIcNS_11char_traitsIcEEE5widenB7v160006Ec, symObjAddr: 0x7268, symBinAddr: 0x100008414, symSize: 0x84 }
  - { offsetInCU: 0xFC0C, offset: 0xFC0C, size: 0x8, addend: 0x0, symName: __ZNKSt3__15ctypeIcE5widenB7v160006Ec, symObjAddr: 0x7318, symBinAddr: 0x1000084C4, symSize: 0x38 }
  - { offsetInCU: 0xFC41, offset: 0xFC41, size: 0x8, addend: 0x0, symName: __ZNSt3__18ios_base8setstateB7v160006Ej, symObjAddr: 0x7350, symBinAddr: 0x1000084FC, symSize: 0x34 }
  - { offsetInCU: 0xFC77, offset: 0xFC77, size: 0x8, addend: 0x0, symName: __Z5equalI5ColorEbRKT_S3_, symObjAddr: 0x73A8, symBinAddr: 0x100008554, symSize: 0x30 }
  - { offsetInCU: 0xFCBB, offset: 0xFCBB, size: 0x8, addend: 0x0, symName: __ZNSt3__113basic_ostreamIcNS_11char_traitsIcEEElsB7v160006EPFRS3_S4_E, symObjAddr: 0x73D8, symBinAddr: 0x100008584, symSize: 0x2C }
  - { offsetInCU: 0xFCEE, offset: 0xFCEE, size: 0x8, addend: 0x0, symName: __Z5equalIiEbRKT_S2_, symObjAddr: 0x745C, symBinAddr: 0x100008608, symSize: 0x30 }
  - { offsetInCU: 0xFD31, offset: 0xFD31, size: 0x8, addend: 0x0, symName: __Z5equalIbEbRKT_S2_, symObjAddr: 0x748C, symBinAddr: 0x100008638, symSize: 0x38 }
  - { offsetInCU: 0xFD74, offset: 0xFD74, size: 0x8, addend: 0x0, symName: __Z5equalINSt3__112basic_stringIcNS0_11char_traitsIcEENS0_9allocatorIcEEEEEbRKT_S9_, symObjAddr: 0x74C4, symBinAddr: 0x100008670, symSize: 0x30 }
  - { offsetInCU: 0xFDB8, offset: 0xFDB8, size: 0x8, addend: 0x0, symName: __ZNKSt3__112basic_stringIcNS_11char_traitsIcEENS_9allocatorIcEEE4sizeB7v160006Ev, symObjAddr: 0x7688, symBinAddr: 0x100008834, symSize: 0x54 }
  - { offsetInCU: 0xFDDE, offset: 0xFDDE, size: 0x8, addend: 0x0, symName: __ZNKSt3__112basic_stringIcNS_11char_traitsIcEENS_9allocatorIcEEE4dataB7v160006Ev, symObjAddr: 0x76DC, symBinAddr: 0x100008888, symSize: 0x28 }
  - { offsetInCU: 0xFE04, offset: 0xFE04, size: 0x8, addend: 0x0, symName: __ZNSt3__111char_traitsIcE7compareEPKcS3_m, symObjAddr: 0x7704, symBinAddr: 0x1000088B0, symSize: 0x6C }
  - { offsetInCU: 0xFE43, offset: 0xFE43, size: 0x8, addend: 0x0, symName: __ZNKSt3__112basic_stringIcNS_11char_traitsIcEENS_9allocatorIcEEE15__get_long_sizeB7v160006Ev, symObjAddr: 0x7770, symBinAddr: 0x10000891C, symSize: 0x28 }
  - { offsetInCU: 0xFE69, offset: 0xFE69, size: 0x8, addend: 0x0, symName: __ZNKSt3__112basic_stringIcNS_11char_traitsIcEENS_9allocatorIcEEE16__get_short_sizeB7v160006Ev, symObjAddr: 0x7798, symBinAddr: 0x100008944, symSize: 0x34 }
  - { offsetInCU: 0xFE8F, offset: 0xFE8F, size: 0x8, addend: 0x0, symName: __ZNKSt3__112basic_stringIcNS_11char_traitsIcEENS_9allocatorIcEEE13__get_pointerB7v160006Ev, symObjAddr: 0x77E0, symBinAddr: 0x10000898C, symSize: 0x54 }
  - { offsetInCU: 0xFEB5, offset: 0xFEB5, size: 0x8, addend: 0x0, symName: __ZNKSt3__112basic_stringIcNS_11char_traitsIcEENS_9allocatorIcEEE18__get_long_pointerB7v160006Ev, symObjAddr: 0x7834, symBinAddr: 0x1000089E0, symSize: 0x28 }
  - { offsetInCU: 0xFEDB, offset: 0xFEDB, size: 0x8, addend: 0x0, symName: __ZNKSt3__112basic_stringIcNS_11char_traitsIcEENS_9allocatorIcEEE19__get_short_pointerB7v160006Ev, symObjAddr: 0x785C, symBinAddr: 0x100008A08, symSize: 0x28 }
  - { offsetInCU: 0xFF01, offset: 0xFF01, size: 0x8, addend: 0x0, symName: __ZNSt3__114pointer_traitsIPKcE10pointer_toB7v160006ERS1_, symObjAddr: 0x7884, symBinAddr: 0x100008A30, symSize: 0x14 }
  - { offsetInCU: 0xFF24, offset: 0xFF24, size: 0x8, addend: 0x0, symName: __ZNSt3__16vectorIiNS_9allocatorIiEEEC2B7v160006ESt16initializer_listIiE, symObjAddr: 0x78CC, symBinAddr: 0x100008A78, symSize: 0x124 }
  - { offsetInCU: 0xFF7A, offset: 0xFF7A, size: 0x8, addend: 0x0, symName: __ZNSt3__117__compressed_pairIPiNS_9allocatorIiEEEC1B7v160006IDnNS_18__default_init_tagEEEOT_OT0_, symObjAddr: 0x79F0, symBinAddr: 0x100008B9C, symSize: 0x3C }
  - { offsetInCU: 0xFFD2, offset: 0xFFD2, size: 0x8, addend: 0x0, symName: __ZNSt3__16vectorIiNS_9allocatorIiEEE16__destroy_vectorC1ERS3_, symObjAddr: 0x7A6C, symBinAddr: 0x100008C18, symSize: 0x34 }
  - { offsetInCU: 0x1000B, offset: 0x1000B, size: 0x8, addend: 0x0, symName: __ZNKSt16initializer_listIiE4sizeB7v160006Ev, symObjAddr: 0x7AB0, symBinAddr: 0x100008C5C, symSize: 0x18 }
  - { offsetInCU: 0x10031, offset: 0x10031, size: 0x8, addend: 0x0, symName: __ZNSt3__16vectorIiNS_9allocatorIiEEE11__vallocateB7v160006Em, symObjAddr: 0x7AC8, symBinAddr: 0x100008C74, symSize: 0xAC }
  - { offsetInCU: 0x10075, offset: 0x10075, size: 0x8, addend: 0x0, symName: __ZNSt3__16vectorIiNS_9allocatorIiEEE18__construct_at_endIPKiLi0EEEvT_S7_m, symObjAddr: 0x7B74, symBinAddr: 0x100008D20, symSize: 0x8C }
  - { offsetInCU: 0x100E8, offset: 0x100E8, size: 0x8, addend: 0x0, symName: __ZNKSt16initializer_listIiE5beginB7v160006Ev, symObjAddr: 0x7C00, symBinAddr: 0x100008DAC, symSize: 0x18 }
  - { offsetInCU: 0x1010E, offset: 0x1010E, size: 0x8, addend: 0x0, symName: __ZNKSt16initializer_listIiE3endB7v160006Ev, symObjAddr: 0x7C18, symBinAddr: 0x100008DC4, symSize: 0x20 }
  - { offsetInCU: 0x10134, offset: 0x10134, size: 0x8, addend: 0x0, symName: __ZNSt3__128__exception_guard_exceptionsINS_6vectorIiNS_9allocatorIiEEE16__destroy_vectorEE10__completeB7v160006Ev, symObjAddr: 0x7C38, symBinAddr: 0x100008DE4, symSize: 0x1C }
  - { offsetInCU: 0x1015A, offset: 0x1015A, size: 0x8, addend: 0x0, symName: __ZNSt3__128__exception_guard_exceptionsINS_6vectorIiNS_9allocatorIiEEE16__destroy_vectorEED1B7v160006Ev, symObjAddr: 0x7C54, symBinAddr: 0x100008E00, symSize: 0x2C }
  - { offsetInCU: 0x10184, offset: 0x10184, size: 0x8, addend: 0x0, symName: __ZNSt3__117__compressed_pairIPiNS_9allocatorIiEEEC2B7v160006IDnNS_18__default_init_tagEEEOT_OT0_, symObjAddr: 0x7C80, symBinAddr: 0x100008E2C, symSize: 0x40 }
  - { offsetInCU: 0x101DC, offset: 0x101DC, size: 0x8, addend: 0x0, symName: __ZNSt3__122__compressed_pair_elemIPiLi0ELb0EEC2B7v160006IDnvEEOT_, symObjAddr: 0x7CC0, symBinAddr: 0x100008E6C, symSize: 0x1C }
  - { offsetInCU: 0x1021E, offset: 0x1021E, size: 0x8, addend: 0x0, symName: __ZNSt3__122__compressed_pair_elemINS_9allocatorIiEELi1ELb1EEC2B7v160006ENS_18__default_init_tagE, symObjAddr: 0x7CDC, symBinAddr: 0x100008E88, symSize: 0x2C }
  - { offsetInCU: 0x10253, offset: 0x10253, size: 0x8, addend: 0x0, symName: __ZNSt3__19allocatorIiEC2B7v160006Ev, symObjAddr: 0x7D08, symBinAddr: 0x100008EB4, symSize: 0x2C }
  - { offsetInCU: 0x1027D, offset: 0x1027D, size: 0x8, addend: 0x0, symName: __ZNSt3__116__non_trivial_ifILb1ENS_9allocatorIiEEEC2B7v160006Ev, symObjAddr: 0x7D34, symBinAddr: 0x100008EE0, symSize: 0x14 }
  - { offsetInCU: 0x102A7, offset: 0x102A7, size: 0x8, addend: 0x0, symName: __ZNSt3__128__exception_guard_exceptionsINS_6vectorIiNS_9allocatorIiEEE16__destroy_vectorEEC1B7v160006ES5_, symObjAddr: 0x7D48, symBinAddr: 0x100008EF4, symSize: 0x34 }
  - { offsetInCU: 0x102DF, offset: 0x102DF, size: 0x8, addend: 0x0, symName: __ZNSt3__128__exception_guard_exceptionsINS_6vectorIiNS_9allocatorIiEEE16__destroy_vectorEEC2B7v160006ES5_, symObjAddr: 0x7D7C, symBinAddr: 0x100008F28, symSize: 0x24 }
  - { offsetInCU: 0x10317, offset: 0x10317, size: 0x8, addend: 0x0, symName: __ZNSt3__16vectorIiNS_9allocatorIiEEE16__destroy_vectorC2ERS3_, symObjAddr: 0x7DA0, symBinAddr: 0x100008F4C, symSize: 0x20 }
  - { offsetInCU: 0x10350, offset: 0x10350, size: 0x8, addend: 0x0, symName: __ZNKSt3__16vectorIiNS_9allocatorIiEEE8max_sizeEv, symObjAddr: 0x7DC0, symBinAddr: 0x100008F6C, symSize: 0x60 }
  - { offsetInCU: 0x10378, offset: 0x10378, size: 0x8, addend: 0x0, symName: __ZNKSt3__16vectorIiNS_9allocatorIiEEE20__throw_length_errorB7v160006Ev, symObjAddr: 0x7E20, symBinAddr: 0x100008FCC, symSize: 0x1C }
  - { offsetInCU: 0x1039E, offset: 0x1039E, size: 0x8, addend: 0x0, symName: __ZNSt3__16vectorIiNS_9allocatorIiEEE7__allocB7v160006Ev, symObjAddr: 0x7E7C, symBinAddr: 0x100009028, symSize: 0x28 }
  - { offsetInCU: 0x103C4, offset: 0x103C4, size: 0x8, addend: 0x0, symName: __ZNSt3__16vectorIiNS_9allocatorIiEEE9__end_capB7v160006Ev, symObjAddr: 0x7EA4, symBinAddr: 0x100009050, symSize: 0x28 }
  - { offsetInCU: 0x103EA, offset: 0x103EA, size: 0x8, addend: 0x0, symName: __ZNKSt3__16vectorIiNS_9allocatorIiEEE14__annotate_newB7v160006Em, symObjAddr: 0x7ECC, symBinAddr: 0x100009078, symSize: 0xAC }
  - { offsetInCU: 0x10429, offset: 0x10429, size: 0x8, addend: 0x0, symName: __ZNSt3__116allocator_traitsINS_9allocatorIiEEE8max_sizeB7v160006IS2_vEEmRKS2_, symObjAddr: 0x7FA4, symBinAddr: 0x100009150, symSize: 0x24 }
  - { offsetInCU: 0x10457, offset: 0x10457, size: 0x8, addend: 0x0, symName: __ZNKSt3__16vectorIiNS_9allocatorIiEEE7__allocB7v160006Ev, symObjAddr: 0x7FC8, symBinAddr: 0x100009174, symSize: 0x28 }
  - { offsetInCU: 0x1047D, offset: 0x1047D, size: 0x8, addend: 0x0, symName: __ZNSt3__114numeric_limitsIlE3maxB7v160006Ev, symObjAddr: 0x7FF0, symBinAddr: 0x10000919C, symSize: 0x14 }
  - { offsetInCU: 0x1049B, offset: 0x1049B, size: 0x8, addend: 0x0, symName: __ZNKSt3__16__lessImmEclB7v160006ERKmS3_, symObjAddr: 0x8058, symBinAddr: 0x100009204, symSize: 0x34 }
  - { offsetInCU: 0x104DD, offset: 0x104DD, size: 0x8, addend: 0x0, symName: __ZNKSt3__19allocatorIiE8max_sizeB7v160006Ev, symObjAddr: 0x808C, symBinAddr: 0x100009238, symSize: 0x14 }
  - { offsetInCU: 0x10503, offset: 0x10503, size: 0x8, addend: 0x0, symName: __ZNKSt3__117__compressed_pairIPiNS_9allocatorIiEEE6secondB7v160006Ev, symObjAddr: 0x80A0, symBinAddr: 0x10000924C, symSize: 0x24 }
  - { offsetInCU: 0x10529, offset: 0x10529, size: 0x8, addend: 0x0, symName: __ZNKSt3__122__compressed_pair_elemINS_9allocatorIiEELi1ELb1EE5__getB7v160006Ev, symObjAddr: 0x80C4, symBinAddr: 0x100009270, symSize: 0x14 }
  - { offsetInCU: 0x1054F, offset: 0x1054F, size: 0x8, addend: 0x0, symName: __ZNSt3__123__libcpp_numeric_limitsIlLb1EE3maxB7v160006Ev, symObjAddr: 0x80D8, symBinAddr: 0x100009284, symSize: 0x8 }
  - { offsetInCU: 0x10563, offset: 0x10563, size: 0x8, addend: 0x0, symName: __ZNSt12length_errorC1B7v160006EPKc, symObjAddr: 0x8144, symBinAddr: 0x1000092F0, symSize: 0x34 }
  - { offsetInCU: 0x1059B, offset: 0x1059B, size: 0x8, addend: 0x0, symName: __ZNSt12length_errorC2B7v160006EPKc, symObjAddr: 0x8178, symBinAddr: 0x100009324, symSize: 0x4C }
  - { offsetInCU: 0x105D3, offset: 0x105D3, size: 0x8, addend: 0x0, symName: __ZNSt3__19allocatorIiE8allocateB7v160006Em, symObjAddr: 0x81C4, symBinAddr: 0x100009370, symSize: 0x58 }
  - { offsetInCU: 0x10607, offset: 0x10607, size: 0x8, addend: 0x0, symName: __ZNSt3__117__compressed_pairIPiNS_9allocatorIiEEE6secondB7v160006Ev, symObjAddr: 0x821C, symBinAddr: 0x1000093C8, symSize: 0x24 }
  - { offsetInCU: 0x1062D, offset: 0x1062D, size: 0x8, addend: 0x0, symName: __ZNSt3__122__compressed_pair_elemINS_9allocatorIiEELi1ELb1EE5__getB7v160006Ev, symObjAddr: 0x8240, symBinAddr: 0x1000093EC, symSize: 0x14 }
  - { offsetInCU: 0x10653, offset: 0x10653, size: 0x8, addend: 0x0, symName: __ZNSt3__117__compressed_pairIPiNS_9allocatorIiEEE5firstB7v160006Ev, symObjAddr: 0x8254, symBinAddr: 0x100009400, symSize: 0x24 }
  - { offsetInCU: 0x10679, offset: 0x10679, size: 0x8, addend: 0x0, symName: __ZNSt3__122__compressed_pair_elemIPiLi0ELb0EE5__getB7v160006Ev, symObjAddr: 0x8278, symBinAddr: 0x100009424, symSize: 0x14 }
  - { offsetInCU: 0x1069F, offset: 0x1069F, size: 0x8, addend: 0x0, symName: __ZNKSt3__16vectorIiNS_9allocatorIiEEE31__annotate_contiguous_containerB7v160006EPKvS5_S5_S5_, symObjAddr: 0x828C, symBinAddr: 0x100009438, symSize: 0x20 }
  - { offsetInCU: 0x106F1, offset: 0x106F1, size: 0x8, addend: 0x0, symName: __ZNKSt3__16vectorIiNS_9allocatorIiEEE4dataB7v160006Ev, symObjAddr: 0x82AC, symBinAddr: 0x100009458, symSize: 0x28 }
  - { offsetInCU: 0x10717, offset: 0x10717, size: 0x8, addend: 0x0, symName: __ZNKSt3__16vectorIiNS_9allocatorIiEEE8capacityB7v160006Ev, symObjAddr: 0x82D4, symBinAddr: 0x100009480, symSize: 0x40 }
  - { offsetInCU: 0x1073D, offset: 0x1073D, size: 0x8, addend: 0x0, symName: __ZNKSt3__16vectorIiNS_9allocatorIiEEE9__end_capB7v160006Ev, symObjAddr: 0x8328, symBinAddr: 0x1000094D4, symSize: 0x28 }
  - { offsetInCU: 0x10763, offset: 0x10763, size: 0x8, addend: 0x0, symName: __ZNKSt3__117__compressed_pairIPiNS_9allocatorIiEEE5firstB7v160006Ev, symObjAddr: 0x8350, symBinAddr: 0x1000094FC, symSize: 0x24 }
  - { offsetInCU: 0x10789, offset: 0x10789, size: 0x8, addend: 0x0, symName: __ZNKSt3__122__compressed_pair_elemIPiLi0ELb0EE5__getB7v160006Ev, symObjAddr: 0x8374, symBinAddr: 0x100009520, symSize: 0x14 }
  - { offsetInCU: 0x107C8, offset: 0x107C8, size: 0x8, addend: 0x0, symName: __ZNSt3__16vectorIiNS_9allocatorIiEEE21_ConstructTransactionC1B7v160006ERS3_m, symObjAddr: 0x8388, symBinAddr: 0x100009534, symSize: 0x3C }
  - { offsetInCU: 0x10810, offset: 0x10810, size: 0x8, addend: 0x0, symName: __ZNSt3__16vectorIiNS_9allocatorIiEEE21_ConstructTransactionD1B7v160006Ev, symObjAddr: 0x83FC, symBinAddr: 0x1000095A8, symSize: 0x2C }
  - { offsetInCU: 0x1083A, offset: 0x1083A, size: 0x8, addend: 0x0, symName: __ZNSt3__16vectorIiNS_9allocatorIiEEE21_ConstructTransactionC2B7v160006ERS3_m, symObjAddr: 0x8428, symBinAddr: 0x1000095D4, symSize: 0x44 }
  - { offsetInCU: 0x108A5, offset: 0x108A5, size: 0x8, addend: 0x0, symName: __ZNKSt3__114__copy_trivialclB7v160006IKiiLi0EEENS_4pairIPT_PT0_EES5_S5_S7_, symObjAddr: 0x8648, symBinAddr: 0x1000097F4, symSize: 0x48 }
  - { offsetInCU: 0x1092B, offset: 0x1092B, size: 0x8, addend: 0x0, symName: __ZNSt3__14pairIPKiS2_EC1B7v160006IS2_S2_LPv0EEEOT_OT0_, symObjAddr: 0x87B0, symBinAddr: 0x10000995C, symSize: 0x3C }
  - { offsetInCU: 0x10989, offset: 0x10989, size: 0x8, addend: 0x0, symName: __ZNSt3__14pairIPKiS2_EC2B7v160006IS2_S2_LPv0EEEOT_OT0_, symObjAddr: 0x87EC, symBinAddr: 0x100009998, symSize: 0x34 }
  - { offsetInCU: 0x109E7, offset: 0x109E7, size: 0x8, addend: 0x0, symName: __ZNSt3__118__unwrap_iter_implIPKiLb1EE8__unwrapB7v160006ES2_, symObjAddr: 0x8820, symBinAddr: 0x1000099CC, symSize: 0x24 }
  - { offsetInCU: 0x10A14, offset: 0x10A14, size: 0x8, addend: 0x0, symName: __ZNSt3__14pairIPKiPiEC1B7v160006IRS2_S3_LPv0EEEOT_OT0_, symObjAddr: 0x8914, symBinAddr: 0x100009AC0, symSize: 0x3C }
  - { offsetInCU: 0x10A72, offset: 0x10A72, size: 0x8, addend: 0x0, symName: __ZNSt3__14pairIPKiPiEC2B7v160006IRS2_S3_LPv0EEEOT_OT0_, symObjAddr: 0x8950, symBinAddr: 0x100009AFC, symSize: 0x34 }
  - { offsetInCU: 0x10AD0, offset: 0x10AD0, size: 0x8, addend: 0x0, symName: __ZNSt3__118__unwrap_iter_implIPiLb1EE8__unwrapB7v160006ES1_, symObjAddr: 0x8984, symBinAddr: 0x100009B30, symSize: 0x24 }
  - { offsetInCU: 0x10AF3, offset: 0x10AF3, size: 0x8, addend: 0x0, symName: __ZNSt3__14pairIPKiPiEC1B7v160006IS2_S3_LPv0EEEOT_OT0_, symObjAddr: 0x89A8, symBinAddr: 0x100009B54, symSize: 0x3C }
  - { offsetInCU: 0x10B51, offset: 0x10B51, size: 0x8, addend: 0x0, symName: __ZNSt3__14pairIPKiPiEC2B7v160006IS2_S3_LPv0EEEOT_OT0_, symObjAddr: 0x89E4, symBinAddr: 0x100009B90, symSize: 0x34 }
  - { offsetInCU: 0x10BAF, offset: 0x10BAF, size: 0x8, addend: 0x0, symName: __ZNSt3__118__unwrap_iter_implIPKiLb1EE8__rewrapB7v160006ES2_S2_, symObjAddr: 0x8A54, symBinAddr: 0x100009C00, symSize: 0x50 }
  - { offsetInCU: 0x10BE0, offset: 0x10BE0, size: 0x8, addend: 0x0, symName: __ZNSt3__118__unwrap_iter_implIPiLb1EE8__rewrapB7v160006ES1_S1_, symObjAddr: 0x8AA4, symBinAddr: 0x100009C50, symSize: 0x50 }
  - { offsetInCU: 0x10C11, offset: 0x10C11, size: 0x8, addend: 0x0, symName: __ZNSt3__16vectorIiNS_9allocatorIiEEE21_ConstructTransactionD2B7v160006Ev, symObjAddr: 0x8AF4, symBinAddr: 0x100009CA0, symSize: 0x20 }
  - { offsetInCU: 0x10C3B, offset: 0x10C3B, size: 0x8, addend: 0x0, symName: __ZNSt3__128__exception_guard_exceptionsINS_6vectorIiNS_9allocatorIiEEE16__destroy_vectorEED2B7v160006Ev, symObjAddr: 0x8B14, symBinAddr: 0x100009CC0, symSize: 0x50 }
  - { offsetInCU: 0x10C65, offset: 0x10C65, size: 0x8, addend: 0x0, symName: __ZNSt3__16vectorIiNS_9allocatorIiEEE16__destroy_vectorclB7v160006Ev, symObjAddr: 0x8B64, symBinAddr: 0x100009D10, symSize: 0x9C }
  - { offsetInCU: 0x10C8B, offset: 0x10C8B, size: 0x8, addend: 0x0, symName: __ZNKSt3__16vectorIiNS_9allocatorIiEEE17__annotate_deleteB7v160006Ev, symObjAddr: 0x8C00, symBinAddr: 0x100009DAC, symSize: 0xB8 }
  - { offsetInCU: 0x10CB1, offset: 0x10CB1, size: 0x8, addend: 0x0, symName: __ZNSt3__16vectorIiNS_9allocatorIiEEE7__clearB7v160006Ev, symObjAddr: 0x8CC8, symBinAddr: 0x100009E74, symSize: 0x28 }
  - { offsetInCU: 0x10CD7, offset: 0x10CD7, size: 0x8, addend: 0x0, symName: __ZNSt3__116allocator_traitsINS_9allocatorIiEEE10deallocateB7v160006ERS2_Pim, symObjAddr: 0x8CF0, symBinAddr: 0x100009E9C, symSize: 0x34 }
  - { offsetInCU: 0x10D19, offset: 0x10D19, size: 0x8, addend: 0x0, symName: __ZNKSt3__16vectorIiNS_9allocatorIiEEE4sizeB7v160006Ev, symObjAddr: 0x8D24, symBinAddr: 0x100009ED0, symSize: 0x28 }
  - { offsetInCU: 0x10D3F, offset: 0x10D3F, size: 0x8, addend: 0x0, symName: __ZNSt3__16vectorIiNS_9allocatorIiEEE22__base_destruct_at_endB7v160006EPi, symObjAddr: 0x8D4C, symBinAddr: 0x100009EF8, symSize: 0x8C }
  - { offsetInCU: 0x10D83, offset: 0x10D83, size: 0x8, addend: 0x0, symName: __ZNSt3__116allocator_traitsINS_9allocatorIiEEE7destroyB7v160006IivEEvRS2_PT_, symObjAddr: 0x8DD8, symBinAddr: 0x100009F84, symSize: 0x2C }
  - { offsetInCU: 0x10DC0, offset: 0x10DC0, size: 0x8, addend: 0x0, symName: __ZNSt3__19allocatorIiE7destroyB7v160006EPi, symObjAddr: 0x8E04, symBinAddr: 0x100009FB0, symSize: 0x14 }
  - { offsetInCU: 0x10DF4, offset: 0x10DF4, size: 0x8, addend: 0x0, symName: __ZNSt3__19allocatorIiE10deallocateB7v160006EPim, symObjAddr: 0x8E18, symBinAddr: 0x100009FC4, symSize: 0x40 }
  - { offsetInCU: 0x10E36, offset: 0x10E36, size: 0x8, addend: 0x0, symName: __ZNSt3__16vectorIiNS_9allocatorIiEEED2B7v160006Ev, symObjAddr: 0x8E58, symBinAddr: 0x10000A004, symSize: 0x44 }
  - { offsetInCU: 0x10E5F, offset: 0x10E5F, size: 0x8, addend: 0x0, symName: __Z5equalINSt3__15tupleIJbm8CardDeckS2_EEEEbRKT_S6_, symObjAddr: 0x8E9C, symBinAddr: 0x10000A048, symSize: 0x40 }
  - { offsetInCU: 0x10EA8, offset: 0x10EA8, size: 0x8, addend: 0x0, symName: __ZNSt3__113__tuple_equalILm4EEclB7v160006INS_5tupleIJbm8CardDeckS4_EEES5_EEbRKT_RKT0_, symObjAddr: 0x8F10, symBinAddr: 0x10000A0BC, symSize: 0x74 }
  - { offsetInCU: 0x10F03, offset: 0x10F03, size: 0x8, addend: 0x0, symName: __ZNSt3__113__tuple_equalILm3EEclB7v160006INS_5tupleIJbm8CardDeckS4_EEES5_EEbRKT_RKT0_, symObjAddr: 0x8F84, symBinAddr: 0x10000A130, symSize: 0x74 }
  - { offsetInCU: 0x10F5E, offset: 0x10F5E, size: 0x8, addend: 0x0, symName: __ZNSt3__113__tuple_equalILm2EEclB7v160006INS_5tupleIJbm8CardDeckS4_EEES5_EEbRKT_RKT0_, symObjAddr: 0x90B8, symBinAddr: 0x10000A264, symSize: 0x7C }
  - { offsetInCU: 0x10FB9, offset: 0x10FB9, size: 0x8, addend: 0x0, symName: __ZNSt3__113__tuple_equalILm1EEclB7v160006INS_5tupleIJbm8CardDeckS4_EEES5_EEbRKT_RKT0_, symObjAddr: 0x915C, symBinAddr: 0x10000A308, symSize: 0x84 }
  - { offsetInCU: 0x11014, offset: 0x11014, size: 0x8, addend: 0x0, symName: __ZNSt3__113__tuple_equalILm0EEclB7v160006INS_5tupleIJbm8CardDeckS4_EEES5_EEbRKT_RKT0_, symObjAddr: 0x9208, symBinAddr: 0x10000A3B4, symSize: 0x20 }
  - { offsetInCU: 0x11062, offset: 0x11062, size: 0x8, addend: 0x0, symName: __ZNKSt3__112__tuple_leafILm0EbLb0EE3getB7v160006Ev, symObjAddr: 0x924C, symBinAddr: 0x10000A3F8, symSize: 0x14 }
  - { offsetInCU: 0x11088, offset: 0x11088, size: 0x8, addend: 0x0, symName: __ZNKSt3__112__tuple_leafILm1EmLb0EE3getB7v160006Ev, symObjAddr: 0x9260, symBinAddr: 0x10000A40C, symSize: 0x14 }
  - { offsetInCU: 0x110AE, offset: 0x110AE, size: 0x8, addend: 0x0, symName: __ZNKSt3__112__tuple_leafILm2E8CardDeckLb0EE3getB7v160006Ev, symObjAddr: 0x9274, symBinAddr: 0x10000A420, symSize: 0x14 }
  - { offsetInCU: 0x110D4, offset: 0x110D4, size: 0x8, addend: 0x0, symName: __ZNKSt3__14listI4CardNS_9allocatorIS1_EEE4sizeB7v160006Ev, symObjAddr: 0x9288, symBinAddr: 0x10000A434, symSize: 0x28 }
  - { offsetInCU: 0x11104, offset: 0x11104, size: 0x8, addend: 0x0, symName: __ZNKSt3__110__equal_toclB7v160006I4CardS2_EEbRKT_RKT0_, symObjAddr: 0x93B0, symBinAddr: 0x10000A55C, symSize: 0x34 }
  - { offsetInCU: 0x11158, offset: 0x11158, size: 0x8, addend: 0x0, symName: __ZNKSt3__112__tuple_leafILm3E8CardDeckLb0EE3getB7v160006Ev, symObjAddr: 0x93E4, symBinAddr: 0x10000A590, symSize: 0x14 }
  - { offsetInCU: 0x5102, offset: 0x163F1, size: 0x8, addend: 0x0, symName: __ZNSt3__113__countl_zeroB7v160006IjEEiT_, symObjAddr: 0xAF4, symBinAddr: 0x10000AFF8, symSize: 0x54 }
  - { offsetInCU: 0x515B, offset: 0x1644A, size: 0x8, addend: 0x0, symName: __ZNSt3__112__libcpp_clzB7v160006Ej, symObjAddr: 0xF8C, symBinAddr: 0x10000B490, symSize: 0x18 }
  - { offsetInCU: 0x538E, offset: 0x1667D, size: 0x8, addend: 0x0, symName: __ZN4Card18create_random_cardERNSt3__123mersenne_twister_engineIjLm32ELm624ELm397ELm31ELj2567483615ELm11ELj4294967295ELm7ELj2636928640ELm15ELj4022730752ELm18ELj1812433253EEEb, symObjAddr: 0x0, symBinAddr: 0x10000A5A4, symSize: 0xF0 }
  - { offsetInCU: 0x541B, offset: 0x1670A, size: 0x8, addend: 0x0, symName: __ZNSt3__124uniform_int_distributionIiEclINS_23mersenne_twister_engineIjLm32ELm624ELm397ELm31ELj2567483615ELm11ELj4294967295ELm7ELj2636928640ELm15ELj4022730752ELm18ELj1812433253EEEEEiRT_RKNS1_10param_typeE, symObjAddr: 0x8DC, symBinAddr: 0x10000ADE0, symSize: 0x188 }
  - { offsetInCU: 0x73F1, offset: 0x186E0, size: 0x8, addend: 0x0, symName: __ZNSt3__124uniform_int_distributionIiEC1Eii, symObjAddr: 0xF0, symBinAddr: 0x10000A694, symSize: 0x3C }
  - { offsetInCU: 0x7437, offset: 0x18726, size: 0x8, addend: 0x0, symName: __ZNSt3__124uniform_int_distributionIiEclINS_23mersenne_twister_engineIjLm32ELm624ELm397ELm31ELj2567483615ELm11ELj4294967295ELm7ELj2636928640ELm15ELj4022730752ELm18ELj1812433253EEEEEiRT_, symObjAddr: 0x138, symBinAddr: 0x10000A6D0, symSize: 0x30 }
  - { offsetInCU: 0x7474, offset: 0x18763, size: 0x8, addend: 0x0, symName: __ZN4CardC1E4Suit4Rankb, symObjAddr: 0x168, symBinAddr: 0x10000A700, symSize: 0x50 }
  - { offsetInCU: 0x74CA, offset: 0x187B9, size: 0x8, addend: 0x0, symName: __ZN4CardC2E4Suit4Rankb, symObjAddr: 0x1B8, symBinAddr: 0x10000A750, symSize: 0x44 }
  - { offsetInCU: 0x7520, offset: 0x1880F, size: 0x8, addend: 0x0, symName: __ZNK4Card8get_suitEv, symObjAddr: 0x1FC, symBinAddr: 0x10000A794, symSize: 0x18 }
  - { offsetInCU: 0x7548, offset: 0x18837, size: 0x8, addend: 0x0, symName: __ZNK4Card8get_rankEv, symObjAddr: 0x214, symBinAddr: 0x10000A7AC, symSize: 0x18 }
  - { offsetInCU: 0x7570, offset: 0x1885F, size: 0x8, addend: 0x0, symName: __ZNK4Card10is_visibleEv, symObjAddr: 0x22C, symBinAddr: 0x10000A7C4, symSize: 0x1C }
  - { offsetInCU: 0x7598, offset: 0x18887, size: 0x8, addend: 0x0, symName: __ZN4Card4flipEv, symObjAddr: 0x248, symBinAddr: 0x10000A7E0, symSize: 0x28 }
  - { offsetInCU: 0x75C0, offset: 0x188AF, size: 0x8, addend: 0x0, symName: __ZNK4CardeqERKS_, symObjAddr: 0x270, symBinAddr: 0x10000A808, symSize: 0x68 }
  - { offsetInCU: 0x75F6, offset: 0x188E5, size: 0x8, addend: 0x0, symName: __ZNK4CardneERKS_, symObjAddr: 0x2D8, symBinAddr: 0x10000A870, symSize: 0x68 }
  - { offsetInCU: 0x762B, offset: 0x1891A, size: 0x8, addend: 0x0, symName: __Z9to_stringRK4Card, symObjAddr: 0x340, symBinAddr: 0x10000A8D8, symSize: 0xFC }
  - { offsetInCU: 0x774F, offset: 0x18A3E, size: 0x8, addend: 0x0, symName: __ZNSt3__118basic_stringstreamIcNS_11char_traitsIcEENS_9allocatorIcEEEC1B7v160006Ev, symObjAddr: 0x43C, symBinAddr: 0x10000A9D4, symSize: 0x104 }
  - { offsetInCU: 0x7779, offset: 0x18A68, size: 0x8, addend: 0x0, symName: __ZNKSt3__118basic_stringstreamIcNS_11char_traitsIcEENS_9allocatorIcEEE3strB7v160006Ev, symObjAddr: 0x5D4, symBinAddr: 0x10000AAD8, symSize: 0x30 }
  - { offsetInCU: 0x77A4, offset: 0x18A93, size: 0x8, addend: 0x0, symName: __ZNSt3__118basic_stringstreamIcNS_11char_traitsIcEENS_9allocatorIcEEED1Ev, symObjAddr: 0x604, symBinAddr: 0x10000AB08, symSize: 0x40 }
  - { offsetInCU: 0x77FF, offset: 0x18AEE, size: 0x8, addend: 0x0, symName: __ZNK8CardHashclERK4Card, symObjAddr: 0x644, symBinAddr: 0x10000AB48, symSize: 0xB8 }
  - { offsetInCU: 0x7869, offset: 0x18B58, size: 0x8, addend: 0x0, symName: __ZNKSt3__14hashImEclB7v160006Em, symObjAddr: 0x6FC, symBinAddr: 0x10000AC00, symSize: 0x18 }
  - { offsetInCU: 0x789E, offset: 0x18B8D, size: 0x8, addend: 0x0, symName: __ZNSt3__118basic_stringstreamIcNS_11char_traitsIcEENS_9allocatorIcEEED2Ev, symObjAddr: 0x714, symBinAddr: 0x10000AC18, symSize: 0x6C }
  - { offsetInCU: 0x78D8, offset: 0x18BC7, size: 0x8, addend: 0x0, symName: __ZThn16_NSt3__118basic_stringstreamIcNS_11char_traitsIcEENS_9allocatorIcEEED1Ev, symObjAddr: 0x780, symBinAddr: 0x10000AC84, symSize: 0x1C }
  - { offsetInCU: 0x78EF, offset: 0x18BDE, size: 0x8, addend: 0x0, symName: __ZTv0_n24_NSt3__118basic_stringstreamIcNS_11char_traitsIcEENS_9allocatorIcEEED1Ev, symObjAddr: 0x79C, symBinAddr: 0x10000ACA0, symSize: 0x28 }
  - { offsetInCU: 0x790B, offset: 0x18BFA, size: 0x8, addend: 0x0, symName: __ZNSt3__115basic_stringbufIcNS_11char_traitsIcEENS_9allocatorIcEEED1Ev, symObjAddr: 0x7C4, symBinAddr: 0x10000ACC8, symSize: 0x2C }
  - { offsetInCU: 0x7938, offset: 0x18C27, size: 0x8, addend: 0x0, symName: __ZNSt3__115basic_stringbufIcNS_11char_traitsIcEENS_9allocatorIcEEED2Ev, symObjAddr: 0x7F0, symBinAddr: 0x10000ACF4, symSize: 0x48 }
  - { offsetInCU: 0x7965, offset: 0x18C54, size: 0x8, addend: 0x0, symName: __ZNSt3__124uniform_int_distributionIiEC2Eii, symObjAddr: 0x838, symBinAddr: 0x10000AD3C, symSize: 0x3C }
  - { offsetInCU: 0x79AB, offset: 0x18C9A, size: 0x8, addend: 0x0, symName: __ZNSt3__124uniform_int_distributionIiE10param_typeC1Eii, symObjAddr: 0x874, symBinAddr: 0x10000AD78, symSize: 0x3C }
  - { offsetInCU: 0x79F1, offset: 0x18CE0, size: 0x8, addend: 0x0, symName: __ZNSt3__124uniform_int_distributionIiE10param_typeC2Eii, symObjAddr: 0x8B0, symBinAddr: 0x10000ADB4, symSize: 0x2C }
  - { offsetInCU: 0x7A37, offset: 0x18D26, size: 0x8, addend: 0x0, symName: __ZNKSt3__124uniform_int_distributionIiE10param_type1bEv, symObjAddr: 0xA64, symBinAddr: 0x10000AF68, symSize: 0x18 }
  - { offsetInCU: 0x7A5D, offset: 0x18D4C, size: 0x8, addend: 0x0, symName: __ZNKSt3__124uniform_int_distributionIiE10param_type1aEv, symObjAddr: 0xA7C, symBinAddr: 0x10000AF80, symSize: 0x18 }
  - { offsetInCU: 0x7A83, offset: 0x18D72, size: 0x8, addend: 0x0, symName: __ZNSt3__125__independent_bits_engineINS_23mersenne_twister_engineIjLm32ELm624ELm397ELm31ELj2567483615ELm11ELj4294967295ELm7ELj2636928640ELm15ELj4022730752ELm18ELj1812433253EEEjEC1ERS2_m, symObjAddr: 0xA94, symBinAddr: 0x10000AF98, symSize: 0x3C }
  - { offsetInCU: 0x7ACA, offset: 0x18DB9, size: 0x8, addend: 0x0, symName: __ZNSt3__125__independent_bits_engineINS_23mersenne_twister_engineIjLm32ELm624ELm397ELm31ELj2567483615ELm11ELj4294967295ELm7ELj2636928640ELm15ELj4022730752ELm18ELj1812433253EEEjEclEv, symObjAddr: 0xAD0, symBinAddr: 0x10000AFD4, symSize: 0x24 }
  - { offsetInCU: 0x7AF0, offset: 0x18DDF, size: 0x8, addend: 0x0, symName: __ZNSt3__114numeric_limitsIjE3maxB7v160006Ev, symObjAddr: 0xB48, symBinAddr: 0x10000B04C, symSize: 0x14 }
  - { offsetInCU: 0x7B04, offset: 0x18DF3, size: 0x8, addend: 0x0, symName: __ZNSt3__125__independent_bits_engineINS_23mersenne_twister_engineIjLm32ELm624ELm397ELm31ELj2567483615ELm11ELj4294967295ELm7ELj2636928640ELm15ELj4022730752ELm18ELj1812433253EEEjEC2ERS2_m, symObjAddr: 0xB5C, symBinAddr: 0x10000B060, symSize: 0x22C }
  - { offsetInCU: 0x7B4A, offset: 0x18E39, size: 0x8, addend: 0x0, symName: __ZNSt3__125__independent_bits_engineINS_23mersenne_twister_engineIjLm32ELm624ELm397ELm31ELj2567483615ELm11ELj4294967295ELm7ELj2636928640ELm15ELj4022730752ELm18ELj1812433253EEEjE6__evalENS_17integral_constantIbLb0EEE, symObjAddr: 0xD88, symBinAddr: 0x10000B28C, symSize: 0x38 }
  - { offsetInCU: 0x7B7D, offset: 0x18E6C, size: 0x8, addend: 0x0, symName: __ZNSt3__123mersenne_twister_engineIjLm32ELm624ELm397ELm31ELj2567483615ELm11ELj4294967295ELm7ELj2636928640ELm15ELj4022730752ELm18ELj1812433253EEclEv, symObjAddr: 0xDC0, symBinAddr: 0x10000B2C4, symSize: 0x14C }
  - { offsetInCU: 0x7BF0, offset: 0x18EDF, size: 0x8, addend: 0x0, symName: __ZNSt3__123mersenne_twister_engineIjLm32ELm624ELm397ELm31ELj2567483615ELm11ELj4294967295ELm7ELj2636928640ELm15ELj4022730752ELm18ELj1812433253EE8__rshiftB7v160006ILm1EEENS_9enable_ifIXltT_L_ZNS1_3_DtEEEjE4typeEj, symObjAddr: 0xF0C, symBinAddr: 0x10000B410, symSize: 0x18 }
  - { offsetInCU: 0x7C1D, offset: 0x18F0C, size: 0x8, addend: 0x0, symName: __ZNSt3__123mersenne_twister_engineIjLm32ELm624ELm397ELm31ELj2567483615ELm11ELj4294967295ELm7ELj2636928640ELm15ELj4022730752ELm18ELj1812433253EE8__rshiftB7v160006ILm11EEENS_9enable_ifIXltT_L_ZNS1_3_DtEEEjE4typeEj, symObjAddr: 0xF24, symBinAddr: 0x10000B428, symSize: 0x18 }
  - { offsetInCU: 0x7C4A, offset: 0x18F39, size: 0x8, addend: 0x0, symName: __ZNSt3__123mersenne_twister_engineIjLm32ELm624ELm397ELm31ELj2567483615ELm11ELj4294967295ELm7ELj2636928640ELm15ELj4022730752ELm18ELj1812433253EE8__lshiftB7v160006ILm7EEENS_9enable_ifIXltT_Lm32EEjE4typeEj, symObjAddr: 0xF3C, symBinAddr: 0x10000B440, symSize: 0x1C }
  - { offsetInCU: 0x7C77, offset: 0x18F66, size: 0x8, addend: 0x0, symName: __ZNSt3__123mersenne_twister_engineIjLm32ELm624ELm397ELm31ELj2567483615ELm11ELj4294967295ELm7ELj2636928640ELm15ELj4022730752ELm18ELj1812433253EE8__lshiftB7v160006ILm15EEENS_9enable_ifIXltT_Lm32EEjE4typeEj, symObjAddr: 0xF58, symBinAddr: 0x10000B45C, symSize: 0x1C }
  - { offsetInCU: 0x7CA4, offset: 0x18F93, size: 0x8, addend: 0x0, symName: __ZNSt3__123mersenne_twister_engineIjLm32ELm624ELm397ELm31ELj2567483615ELm11ELj4294967295ELm7ELj2636928640ELm15ELj4022730752ELm18ELj1812433253EE8__rshiftB7v160006ILm18EEENS_9enable_ifIXltT_L_ZNS1_3_DtEEEjE4typeEj, symObjAddr: 0xF74, symBinAddr: 0x10000B478, symSize: 0x18 }
  - { offsetInCU: 0x7CD1, offset: 0x18FC0, size: 0x8, addend: 0x0, symName: __ZNSt3__123__libcpp_numeric_limitsIjLb1EE3maxB7v160006Ev, symObjAddr: 0xFA4, symBinAddr: 0x10000B4A8, symSize: 0x8 }
  - { offsetInCU: 0x7CE5, offset: 0x18FD4, size: 0x8, addend: 0x0, symName: __ZNSt3__19basic_iosIcNS_11char_traitsIcEEEC2B7v160006Ev, symObjAddr: 0xFAC, symBinAddr: 0x10000B4B0, symSize: 0x44 }
  - { offsetInCU: 0x7D0F, offset: 0x18FFE, size: 0x8, addend: 0x0, symName: __ZNSt3__114basic_iostreamIcNS_11char_traitsIcEEEC2B7v160006EPNS_15basic_streambufIcS2_EE, symObjAddr: 0xFF0, symBinAddr: 0x10000B4F4, symSize: 0xAC }
  - { offsetInCU: 0x7D55, offset: 0x19044, size: 0x8, addend: 0x0, symName: __ZNSt3__115basic_stringbufIcNS_11char_traitsIcEENS_9allocatorIcEEEC1B7v160006Ej, symObjAddr: 0x109C, symBinAddr: 0x10000B5A0, symSize: 0x34 }
  - { offsetInCU: 0x7D8D, offset: 0x1907C, size: 0x8, addend: 0x0, symName: __ZNSt3__18ios_baseC2B7v160006Ev, symObjAddr: 0x10D0, symBinAddr: 0x10000B5D4, symSize: 0x24 }
  - { offsetInCU: 0x7DB7, offset: 0x190A6, size: 0x8, addend: 0x0, symName: __ZNSt3__113basic_istreamIcNS_11char_traitsIcEEEC2B7v160006EPNS_15basic_streambufIcS2_EE, symObjAddr: 0x10F4, symBinAddr: 0x10000B5F8, symSize: 0x64 }
  - { offsetInCU: 0x7DFC, offset: 0x190EB, size: 0x8, addend: 0x0, symName: __ZNSt3__113basic_ostreamIcNS_11char_traitsIcEEEC2B7v160006Ev, symObjAddr: 0x1158, symBinAddr: 0x10000B65C, symSize: 0x34 }
  - { offsetInCU: 0x7E33, offset: 0x19122, size: 0x8, addend: 0x0, symName: __ZNSt3__19basic_iosIcNS_11char_traitsIcEEE4initB7v160006EPNS_15basic_streambufIcS2_EE, symObjAddr: 0x118C, symBinAddr: 0x10000B690, symSize: 0x44 }
  - { offsetInCU: 0x7E6A, offset: 0x19159, size: 0x8, addend: 0x0, symName: __ZNSt3__115basic_stringbufIcNS_11char_traitsIcEENS_9allocatorIcEEEC2B7v160006Ej, symObjAddr: 0x11D8, symBinAddr: 0x10000B6D4, symSize: 0x60 }
  - { offsetInCU: 0x7EA2, offset: 0x19191, size: 0x8, addend: 0x0, symName: __ZNSt3__112basic_stringIcNS_11char_traitsIcEENS_9allocatorIcEEEC1B7v160006Ev, symObjAddr: 0x1238, symBinAddr: 0x10000B734, symSize: 0x2C }
  - { offsetInCU: 0x7ECC, offset: 0x191BB, size: 0x8, addend: 0x0, symName: __ZNSt3__112basic_stringIcNS_11char_traitsIcEENS_9allocatorIcEEEC2B7v160006Ev, symObjAddr: 0x1264, symBinAddr: 0x10000B760, symSize: 0x54 }
  - { offsetInCU: 0x7EF6, offset: 0x191E5, size: 0x8, addend: 0x0, symName: __ZNSt3__112basic_stringIcNS_11char_traitsIcEENS_9allocatorIcEEE14__default_initB7v160006Ev, symObjAddr: 0x1304, symBinAddr: 0x10000B7B4, symSize: 0x40 }
  - { offsetInCU: 0x65E0, offset: 0x1F85D, size: 0x8, addend: 0x0, symName: __ZNSt3__19__shuffleB7v160006INS_17_ClassicAlgPolicyENS_11__wrap_iterIP4CardEES5_RNS_23mersenne_twister_engineIjLm32ELm624ELm397ELm31ELj2567483615ELm11ELj4294967295ELm7ELj2636928640ELm15ELj4022730752ELm18ELj1812433253EEEEET0_S9_T1_OT2_, symObjAddr: 0x63DC, symBinAddr: 0x100010678, symSize: 0x13C }
  - { offsetInCU: 0x979F, offset: 0x22A1C, size: 0x8, addend: 0x0, symName: __ZNSt3__17shuffleB7v160006INS_11__wrap_iterIP4CardEERNS_23mersenne_twister_engineIjLm32ELm624ELm397ELm31ELj2567483615ELm11ELj4294967295ELm7ELj2636928640ELm15ELj4022730752ELm18ELj1812433253EEEEEvT_S8_OT0_, symObjAddr: 0x91C, symBinAddr: 0x10000C084, symSize: 0x48 }
  - { offsetInCU: 0x97F6, offset: 0x22A73, size: 0x8, addend: 0x0, symName: __ZNSt3__1neB7v160006IP4CardEEbRKNS_11__wrap_iterIT_EES7_, symObjAddr: 0x9C4, symBinAddr: 0x10000C12C, symSize: 0x34 }
  - { offsetInCU: 0xA09C, offset: 0x23319, size: 0x8, addend: 0x0, symName: __ZNSt3__1neB7v160006ERKNS_21__hash_const_iteratorIPNS_11__hash_nodeI4CardPvEEEES8_, symObjAddr: 0x192C, symBinAddr: 0x10000C4E4, symSize: 0x34 }
  - { offsetInCU: 0xA0D9, offset: 0x23356, size: 0x8, addend: 0x0, symName: __ZNSt3__1eqB7v160006ERKNS_21__hash_const_iteratorIPNS_11__hash_nodeI4CardPvEEEES8_, symObjAddr: 0x19D8, symBinAddr: 0x10000C590, symSize: 0x30 }
  - { offsetInCU: 0xA149, offset: 0x233C6, size: 0x8, addend: 0x0, symName: __ZNSt3__1eqB7v160006IP4CardEEbRKNS_11__wrap_iterIT_EES7_, symObjAddr: 0x2208, symBinAddr: 0x10000C6F0, symSize: 0x48 }
  - { offsetInCU: 0xA18C, offset: 0x23409, size: 0x8, addend: 0x0, symName: __ZNSt3__119__debug_db_insert_cB7v160006INS_13unordered_setI4Card8CardHashNS_8equal_toIS2_EENS_9allocatorIS2_EEEEEEvPT_, symObjAddr: 0x2480, symBinAddr: 0x10000C81C, symSize: 0x10 }
  - { offsetInCU: 0xA1BD, offset: 0x2343A, size: 0x8, addend: 0x0, symName: __ZNSt3__118__debug_db_erase_cB7v160006INS_12__hash_tableI4Card8CardHashNS_8equal_toIS2_EENS_9allocatorIS2_EEEEEEvPT_, symObjAddr: 0x2B84, symBinAddr: 0x10000CF20, symSize: 0x10 }
  - { offsetInCU: 0xA1EE, offset: 0x2346B, size: 0x8, addend: 0x0, symName: __ZNSt3__116__constrain_hashB7v160006Emm, symObjAddr: 0x34F8, symBinAddr: 0x10000D894, symSize: 0x98 }
  - { offsetInCU: 0xA228, offset: 0x234A5, size: 0x8, addend: 0x0, symName: __ZNSt3__13maxB7v160006ImEERKT_S3_S3_, symObjAddr: 0x37EC, symBinAddr: 0x10000DB88, symSize: 0x2C }
  - { offsetInCU: 0xA26B, offset: 0x234E8, size: 0x8, addend: 0x0, symName: __ZNSt3__116__is_hash_power2B7v160006Em, symObjAddr: 0x3818, symBinAddr: 0x10000DBB4, symSize: 0x50 }
  - { offsetInCU: 0xA2B5, offset: 0x23532, size: 0x8, addend: 0x0, symName: __ZNSt3__116__next_hash_pow2B7v160006Em, symObjAddr: 0x4314, symBinAddr: 0x10000E6B0, symSize: 0x6C }
  - { offsetInCU: 0xA2E1, offset: 0x2355E, size: 0x8, addend: 0x0, symName: __ZNSt3__125__debug_db_invalidate_allB7v160006INS_12__hash_tableI4Card8CardHashNS_8equal_toIS2_EENS_9allocatorIS2_EEEEEEvPT_, symObjAddr: 0x4380, symBinAddr: 0x10000E71C, symSize: 0x10 }
  - { offsetInCU: 0xA312, offset: 0x2358F, size: 0x8, addend: 0x0, symName: __ZNSt3__112__libcpp_clzB7v160006Em, symObjAddr: 0x44E8, symBinAddr: 0x10000E884, symSize: 0x1C }
  - { offsetInCU: 0xA33E, offset: 0x235BB, size: 0x8, addend: 0x0, symName: __ZNSt3__13maxB7v160006ImNS_6__lessImmEEEERKT_S5_S5_T0_, symObjAddr: 0x4504, symBinAddr: 0x10000E8A0, symSize: 0x54 }
  - { offsetInCU: 0xA398, offset: 0x23615, size: 0x8, addend: 0x0, symName: __ZNSt3__119__debug_db_insert_cB7v160006INS_6vectorI4CardNS_9allocatorIS2_EEEEEEvPT_, symObjAddr: 0x48F4, symBinAddr: 0x10000EC90, symSize: 0x10 }
  - { offsetInCU: 0xA3C9, offset: 0x23646, size: 0x8, addend: 0x0, symName: __ZNSt3__118__debug_db_erase_cB7v160006INS_6vectorI4CardNS_9allocatorIS2_EEEEEEvPT_, symObjAddr: 0x4BD4, symBinAddr: 0x10000EF70, symSize: 0x10 }
  - { offsetInCU: 0xA3FA, offset: 0x23677, size: 0x8, addend: 0x0, symName: __ZNSt3__112__to_addressB7v160006I4CardEEPT_S3_, symObjAddr: 0x4D18, symBinAddr: 0x10000F0B4, symSize: 0x14 }
  - { offsetInCU: 0xA42F, offset: 0x236AC, size: 0x8, addend: 0x0, symName: __ZNSt3__119__allocate_at_leastB7v160006INS_9allocatorI4CardEEEENS_19__allocation_resultINS_16allocator_traitsIT_E7pointerEEERS6_m, symObjAddr: 0x5744, symBinAddr: 0x10000F9E0, symSize: 0x40 }
  - { offsetInCU: 0xA472, offset: 0x236EF, size: 0x8, addend: 0x0, symName: __ZNSt3__142__uninitialized_allocator_move_if_noexceptB7v160006INS_9allocatorI4CardEENS_16reverse_iteratorIPS2_EES6_S2_vEET1_RT_T0_SA_S7_, symObjAddr: 0x58FC, symBinAddr: 0x10000FB98, symSize: 0x78 }
  - { offsetInCU: 0xA4EF, offset: 0x2376C, size: 0x8, addend: 0x0, symName: __ZNSt3__14swapB7v160006IP4CardEENS_9enable_ifIXaasr21is_move_constructibleIT_EE5valuesr18is_move_assignableIS4_EE5valueEvE4typeERS4_S7_, symObjAddr: 0x59C0, symBinAddr: 0x10000FC5C, symSize: 0x3C }
  - { offsetInCU: 0xA540, offset: 0x237BD, size: 0x8, addend: 0x0, symName: __ZNSt3__125__debug_db_invalidate_allB7v160006INS_6vectorI4CardNS_9allocatorIS2_EEEEEEvPT_, symObjAddr: 0x5AC4, symBinAddr: 0x10000FD60, symSize: 0x10 }
  - { offsetInCU: 0xA571, offset: 0x237EE, size: 0x8, addend: 0x0, symName: __ZNSt3__14moveB7v160006INS_16reverse_iteratorIP4CardEES4_EET0_T_S6_S5_, symObjAddr: 0x5AD4, symBinAddr: 0x10000FD70, symSize: 0x78 }
  - { offsetInCU: 0xA5CB, offset: 0x23848, size: 0x8, addend: 0x0, symName: __ZNSt3__16__moveB7v160006INS_17_ClassicAlgPolicyENS_16reverse_iteratorIP4CardEES5_S5_EENS_4pairIT0_T2_EES7_T1_S8_, symObjAddr: 0x5B4C, symBinAddr: 0x10000FDE8, symSize: 0x64 }
  - { offsetInCU: 0xA637, offset: 0x238B4, size: 0x8, addend: 0x0, symName: __ZNSt3__123__dispatch_copy_or_moveB7v160006INS_17_ClassicAlgPolicyENS_11__move_loopIS1_EENS_14__move_trivialENS_16reverse_iteratorIP4CardEES8_S8_EENS_4pairIT2_T4_EESA_T3_SB_, symObjAddr: 0x5BB0, symBinAddr: 0x10000FE4C, symSize: 0x64 }
  - { offsetInCU: 0xA6B5, offset: 0x23932, size: 0x8, addend: 0x0, symName: __ZNSt3__121__unwrap_and_dispatchB7v160006INS_10__overloadINS_11__move_loopINS_17_ClassicAlgPolicyEEENS_14__move_trivialEEENS_16reverse_iteratorIP4CardEESA_SA_Li0EEENS_4pairIT0_T2_EESC_T1_SD_, symObjAddr: 0x5C14, symBinAddr: 0x10000FEB0, symSize: 0x12C }
  - { offsetInCU: 0xA745, offset: 0x239C2, size: 0x8, addend: 0x0, symName: __ZNSt3__114__unwrap_rangeB7v160006INS_16reverse_iteratorIP4CardEES4_EENS_4pairIT0_S6_EET_S8_, symObjAddr: 0x5D40, symBinAddr: 0x10000FFDC, symSize: 0x84 }
  - { offsetInCU: 0xA8B7, offset: 0x23B34, size: 0x8, addend: 0x0, symName: __ZNSt3__113__unwrap_iterB7v160006INS_16reverse_iteratorIP4CardEENS_18__unwrap_iter_implIS4_Lb0EEELi0EEEDTclsrT0_8__unwrapclsr3stdE7declvalIT_EEEES8_, symObjAddr: 0x5E6C, symBinAddr: 0x100010108, symSize: 0x44 }
  - { offsetInCU: 0xA8FB, offset: 0x23B78, size: 0x8, addend: 0x0, symName: __ZNSt3__19make_pairB7v160006INS_16reverse_iteratorIP4CardEES4_EENS_4pairINS_18__unwrap_ref_decayIT_E4typeENS6_IT0_E4typeEEEOS7_OSA_, symObjAddr: 0x5EB0, symBinAddr: 0x10001014C, symSize: 0x38 }
  - { offsetInCU: 0xA94A, offset: 0x23BC7, size: 0x8, addend: 0x0, symName: __ZNSt3__114__rewrap_rangeB7v160006INS_16reverse_iteratorIP4CardEES4_EET_S5_T0_, symObjAddr: 0x5EE8, symBinAddr: 0x100010184, symSize: 0x5C }
  - { offsetInCU: 0xA996, offset: 0x23C13, size: 0x8, addend: 0x0, symName: __ZNSt3__113__rewrap_iterB7v160006INS_16reverse_iteratorIP4CardEES4_NS_18__unwrap_iter_implIS4_Lb0EEEEET_S7_T0_, symObjAddr: 0x5F44, symBinAddr: 0x1000101E0, symSize: 0x74 }
  - { offsetInCU: 0xA9EB, offset: 0x23C68, size: 0x8, addend: 0x0, symName: __ZNSt3__1neB7v160006IP4CardS2_EEbRKNS_16reverse_iteratorIT_EERKNS3_IT0_EE, symObjAddr: 0x5FB8, symBinAddr: 0x100010254, symSize: 0x48 }
  - { offsetInCU: 0xAB34, offset: 0x23DB1, size: 0x8, addend: 0x0, symName: __ZNSt3__1miB7v160006IP4CardS2_EEDTmicldtfp_4baseEcldtfp0_4baseEERKNS_11__wrap_iterIT_EERKNS4_IT0_EE, symObjAddr: 0x6538, symBinAddr: 0x1000107D4, symSize: 0x48 }
  - { offsetInCU: 0xAB80, offset: 0x23DFD, size: 0x8, addend: 0x0, symName: __ZNSt3__1ltB7v160006IP4CardEEbRKNS_11__wrap_iterIT_EES7_, symObjAddr: 0x65DC, symBinAddr: 0x100010878, symSize: 0x48 }
  - { offsetInCU: 0xABC3, offset: 0x23E40, size: 0x8, addend: 0x0, symName: __ZNSt3__113__countl_zeroB7v160006ImEEiT_, symObjAddr: 0x695C, symBinAddr: 0x100010BF8, symSize: 0x54 }
  - { offsetInCU: 0xABF8, offset: 0x23E75, size: 0x8, addend: 0x0, symName: __ZNSt3__19iter_swapB7v160006INS_11__wrap_iterIP4CardEES4_EEvT_T0_, symObjAddr: 0x7020, symBinAddr: 0x1000110F0, symSize: 0x50 }
  - { offsetInCU: 0xAC41, offset: 0x23EBE, size: 0x8, addend: 0x0, symName: __ZNSt3__14swapB7v160006I4CardEENS_9enable_ifIXaasr21is_move_constructibleIT_EE5valuesr18is_move_assignableIS3_EE5valueEvE4typeERS3_S6_, symObjAddr: 0x7070, symBinAddr: 0x100011140, symSize: 0x54 }
  - { offsetInCU: 0xB47A, offset: 0x246F7, size: 0x8, addend: 0x0, symName: __ZNSt3__16vectorI4CardNS_9allocatorIS1_EEE26__swap_out_circular_bufferERNS_14__split_bufferIS1_RS3_EE, symObjAddr: 0x52CC, symBinAddr: 0x10000F668, symSize: 0x118 }
  - { offsetInCU: 0xB4F9, offset: 0x24776, size: 0x8, addend: 0x0, symName: __ZNSt3__124uniform_int_distributionIlEclINS_23mersenne_twister_engineIjLm32ELm624ELm397ELm31ELj2567483615ELm11ELj4294967295ELm7ELj2636928640ELm15ELj4022730752ELm18ELj1812433253EEEEElRT_RKNS1_10param_typeE, symObjAddr: 0x6624, symBinAddr: 0x1000108C0, symSize: 0x174 }
  - { offsetInCU: 0xD5A9, offset: 0x26826, size: 0x8, addend: 0x0, symName: __ZN8CardDeck16create_full_deckEb, symObjAddr: 0x0, symBinAddr: 0x10000B7F4, symSize: 0x11C }
  - { offsetInCU: 0xD605, offset: 0x26882, size: 0x8, addend: 0x0, symName: __ZN8CardDeckC1Ev, symObjAddr: 0x11C, symBinAddr: 0x10000B910, symSize: 0x2C }
  - { offsetInCU: 0xD631, offset: 0x268AE, size: 0x8, addend: 0x0, symName: __ZNSt3__14listI4CardNS_9allocatorIS1_EEE9push_backEOS1_, symObjAddr: 0x148, symBinAddr: 0x10000B93C, symSize: 0xEC }
  - { offsetInCU: 0xD686, offset: 0x26903, size: 0x8, addend: 0x0, symName: __ZN8CardDeck17create_empty_deckEv, symObjAddr: 0x26C, symBinAddr: 0x10000BA28, symSize: 0x34 }
  - { offsetInCU: 0xD69C, offset: 0x26919, size: 0x8, addend: 0x0, symName: __ZN8CardDeck18create_random_deckERNSt3__123mersenne_twister_engineIjLm32ELm624ELm397ELm31ELj2567483615ELm11ELj4294967295ELm7ELj2636928640ELm15ELj4022730752ELm18ELj1812433253EEEmb, symObjAddr: 0x2A0, symBinAddr: 0x10000BA5C, symSize: 0x114 }
  - { offsetInCU: 0xD6EC, offset: 0x26969, size: 0x8, addend: 0x0, symName: __ZN8CardDeck25create_random_unique_deckERNSt3__123mersenne_twister_engineIjLm32ELm624ELm397ELm31ELj2567483615ELm11ELj4294967295ELm7ELj2636928640ELm15ELj4022730752ELm18ELj1812433253EEEmb, symObjAddr: 0x3B4, symBinAddr: 0x10000BB70, symSize: 0x158 }
  - { offsetInCU: 0xD859, offset: 0x26AD6, size: 0x8, addend: 0x0, symName: __ZNSt3__113unordered_setI4Card8CardHashNS_8equal_toIS1_EENS_9allocatorIS1_EEEC1B7v160006Ev, symObjAddr: 0x538, symBinAddr: 0x10000BCC8, symSize: 0x2C }
  - { offsetInCU: 0xD883, offset: 0x26B00, size: 0x8, addend: 0x0, symName: __ZNSt3__113unordered_setI4Card8CardHashNS_8equal_toIS1_EENS_9allocatorIS1_EEE6insertB7v160006EOS1_, symObjAddr: 0x564, symBinAddr: 0x10000BCF4, symSize: 0x4C }
  - { offsetInCU: 0xD8B8, offset: 0x26B35, size: 0x8, addend: 0x0, symName: __ZNSt3__113unordered_setI4Card8CardHashNS_8equal_toIS1_EENS_9allocatorIS1_EEE5beginB7v160006Ev, symObjAddr: 0x5B0, symBinAddr: 0x10000BD40, symSize: 0x38 }
  - { offsetInCU: 0xD8DE, offset: 0x26B5B, size: 0x8, addend: 0x0, symName: __ZNSt3__113unordered_setI4Card8CardHashNS_8equal_toIS1_EENS_9allocatorIS1_EEE3endB7v160006Ev, symObjAddr: 0x5E8, symBinAddr: 0x10000BD78, symSize: 0x38 }
  - { offsetInCU: 0xD909, offset: 0x26B86, size: 0x8, addend: 0x0, symName: __ZN8CardDeckCI1NSt3__14listI4CardNS0_9allocatorIS2_EEEEINS0_21__hash_const_iteratorIPNS0_11__hash_nodeIS2_PvEEEEEET_SB_PNS0_9enable_ifIXsr25__is_cpp17_input_iteratorISB_EE5valueEvE4typeE, symObjAddr: 0x620, symBinAddr: 0x10000BDB0, symSize: 0x44 }
  - { offsetInCU: 0xD950, offset: 0x26BCD, size: 0x8, addend: 0x0, symName: __ZNSt3__113unordered_setI4Card8CardHashNS_8equal_toIS1_EENS_9allocatorIS1_EEED1B7v160006Ev, symObjAddr: 0x664, symBinAddr: 0x10000BDF4, symSize: 0x2C }
  - { offsetInCU: 0xD97A, offset: 0x26BF7, size: 0x8, addend: 0x0, symName: __ZN8CardDeck7shuffleERNSt3__123mersenne_twister_engineIjLm32ELm624ELm397ELm31ELj2567483615ELm11ELj4294967295ELm7ELj2636928640ELm15ELj4022730752ELm18ELj1812433253EEE, symObjAddr: 0x690, symBinAddr: 0x10000BE20, symSize: 0x11C }
  - { offsetInCU: 0xDA0F, offset: 0x26C8C, size: 0x8, addend: 0x0, symName: __ZNSt3__16vectorI4CardNS_9allocatorIS1_EEEC1B7v160006Ev, symObjAddr: 0x7AC, symBinAddr: 0x10000BF3C, symSize: 0x2C }
  - { offsetInCU: 0xDA39, offset: 0x26CB6, size: 0x8, addend: 0x0, symName: __ZNSt3__16vectorI4CardNS_9allocatorIS1_EEE9push_backB7v160006ERKS1_, symObjAddr: 0x800, symBinAddr: 0x10000BF68, symSize: 0x6C }
  - { offsetInCU: 0xDA70, offset: 0x26CED, size: 0x8, addend: 0x0, symName: __ZNSt3__14listI4CardNS_9allocatorIS1_EEE4backB7v160006Ev, symObjAddr: 0x86C, symBinAddr: 0x10000BFD4, symSize: 0x2C }
  - { offsetInCU: 0xDA96, offset: 0x26D13, size: 0x8, addend: 0x0, symName: __ZNSt3__14listI4CardNS_9allocatorIS1_EEE8pop_backEv, symObjAddr: 0x898, symBinAddr: 0x10000C000, symSize: 0x84 }
  - { offsetInCU: 0xDAEB, offset: 0x26D68, size: 0x8, addend: 0x0, symName: __ZNSt3__16vectorI4CardNS_9allocatorIS1_EEE5beginB7v160006Ev, symObjAddr: 0x964, symBinAddr: 0x10000C0CC, symSize: 0x30 }
  - { offsetInCU: 0xDB13, offset: 0x26D90, size: 0x8, addend: 0x0, symName: __ZNSt3__16vectorI4CardNS_9allocatorIS1_EEE3endB7v160006Ev, symObjAddr: 0x994, symBinAddr: 0x10000C0FC, symSize: 0x30 }
  - { offsetInCU: 0xDB3B, offset: 0x26DB8, size: 0x8, addend: 0x0, symName: __ZNKSt3__111__wrap_iterIP4CardEdeB7v160006Ev, symObjAddr: 0x9F8, symBinAddr: 0x10000C160, symSize: 0x18 }
  - { offsetInCU: 0xDB61, offset: 0x26DDE, size: 0x8, addend: 0x0, symName: __ZNSt3__111__wrap_iterIP4CardEppB7v160006Ev, symObjAddr: 0xAFC, symBinAddr: 0x10000C178, symSize: 0x20 }
  - { offsetInCU: 0xDB87, offset: 0x26E04, size: 0x8, addend: 0x0, symName: __ZNSt3__16vectorI4CardNS_9allocatorIS1_EEED1B7v160006Ev, symObjAddr: 0xB1C, symBinAddr: 0x10000C198, symSize: 0x2C }
  - { offsetInCU: 0xDBB0, offset: 0x26E2D, size: 0x8, addend: 0x0, symName: __Z9to_stringRK8CardDeck, symObjAddr: 0xB48, symBinAddr: 0x10000C1C4, symSize: 0x1B4 }
  - { offsetInCU: 0xDCCF, offset: 0x26F4C, size: 0x8, addend: 0x0, symName: __ZN8CardDeckC2Ev, symObjAddr: 0xFDC, symBinAddr: 0x10000C378, symSize: 0x2C }
  - { offsetInCU: 0xDCFB, offset: 0x26F78, size: 0x8, addend: 0x0, symName: __ZNSt3__14listI4CardNS_9allocatorIS1_EEEC2B7v160006Ev, symObjAddr: 0x1008, symBinAddr: 0x10000C3A4, symSize: 0x3C }
  - { offsetInCU: 0xDD2F, offset: 0x26FAC, size: 0x8, addend: 0x0, symName: __ZN8CardDeckCI2NSt3__14listI4CardNS0_9allocatorIS2_EEEEINS0_21__hash_const_iteratorIPNS0_11__hash_nodeIS2_PvEEEEEET_SB_PNS0_9enable_ifIXsr25__is_cpp17_input_iteratorISB_EE5valueEvE4typeE, symObjAddr: 0x1828, symBinAddr: 0x10000C3E0, symSize: 0x44 }
  - { offsetInCU: 0xDD76, offset: 0x26FF3, size: 0x8, addend: 0x0, symName: __ZNSt3__14listI4CardNS_9allocatorIS1_EEEC2INS_21__hash_const_iteratorIPNS_11__hash_nodeIS1_PvEEEEEET_SC_PNS_9enable_ifIXsr25__is_cpp17_input_iteratorISC_EE5valueEvE4typeE, symObjAddr: 0x186C, symBinAddr: 0x10000C424, symSize: 0xC0 }
  - { offsetInCU: 0xDDD4, offset: 0x27051, size: 0x8, addend: 0x0, symName: __ZNSt3__14listI4CardNS_9allocatorIS1_EEE14__emplace_backB7v160006IRKS1_EEvOT_, symObjAddr: 0x1960, symBinAddr: 0x10000C518, symSize: 0x2C }
  - { offsetInCU: 0xDE12, offset: 0x2708F, size: 0x8, addend: 0x0, symName: __ZNKSt3__121__hash_const_iteratorIPNS_11__hash_nodeI4CardPvEEEdeB7v160006Ev, symObjAddr: 0x198C, symBinAddr: 0x10000C544, symSize: 0x2C }
  - { offsetInCU: 0xDE38, offset: 0x270B5, size: 0x8, addend: 0x0, symName: __ZNSt3__121__hash_const_iteratorIPNS_11__hash_nodeI4CardPvEEEppB7v160006Ev, symObjAddr: 0x19B8, symBinAddr: 0x10000C570, symSize: 0x20 }
  - { offsetInCU: 0xDE5E, offset: 0x270DB, size: 0x8, addend: 0x0, symName: __ZNSt3__14listI4CardNS_9allocatorIS1_EEE12emplace_backIJRKS1_EEERS1_DpOT_, symObjAddr: 0x1A08, symBinAddr: 0x10000C5C0, symSize: 0xF8 }
  - { offsetInCU: 0xDED7, offset: 0x27154, size: 0x8, addend: 0x0, symName: __ZNSt3__116__hash_node_baseIPNS_11__hash_nodeI4CardPvEEE8__upcastB7v160006Ev, symObjAddr: 0x21D0, symBinAddr: 0x10000C6B8, symSize: 0x24 }
  - { offsetInCU: 0xDEFD, offset: 0x2717A, size: 0x8, addend: 0x0, symName: __ZNSt3__114pointer_traitsIPNS_16__hash_node_baseIPNS_11__hash_nodeI4CardPvEEEEE10pointer_toB7v160006ERS7_, symObjAddr: 0x21F4, symBinAddr: 0x10000C6DC, symSize: 0x14 }
  - { offsetInCU: 0xDF20, offset: 0x2719D, size: 0x8, addend: 0x0, symName: __ZNKSt3__111__wrap_iterIP4CardE4baseB7v160006Ev, symObjAddr: 0x2250, symBinAddr: 0x10000C738, symSize: 0x18 }
  - { offsetInCU: 0xDF50, offset: 0x271CD, size: 0x8, addend: 0x0, symName: __ZNSt3__116allocator_traitsINS_9allocatorINS_11__list_nodeI4CardPvEEEEE9constructB7v160006IS3_JS3_EvEEvRS6_PT_DpOT0_, symObjAddr: 0x238C, symBinAddr: 0x10000C750, symSize: 0x34 }
  - { offsetInCU: 0xDFA7, offset: 0x27224, size: 0x8, addend: 0x0, symName: __ZNSt3__19allocatorINS_11__list_nodeI4CardPvEEE9constructB7v160006IS2_JS2_EEEvPT_DpOT0_, symObjAddr: 0x23E8, symBinAddr: 0x10000C784, symSize: 0x30 }
  - { offsetInCU: 0xDFFD, offset: 0x2727A, size: 0x8, addend: 0x0, symName: __ZNSt3__113unordered_setI4Card8CardHashNS_8equal_toIS1_EENS_9allocatorIS1_EEEC2B7v160006Ev, symObjAddr: 0x2418, symBinAddr: 0x10000C7B4, symSize: 0x3C }
  - { offsetInCU: 0xE027, offset: 0x272A4, size: 0x8, addend: 0x0, symName: __ZNSt3__112__hash_tableI4Card8CardHashNS_8equal_toIS1_EENS_9allocatorIS1_EEEC1Ev, symObjAddr: 0x2454, symBinAddr: 0x10000C7F0, symSize: 0x2C }
  - { offsetInCU: 0xE053, offset: 0x272D0, size: 0x8, addend: 0x0, symName: __ZNSt3__112__hash_tableI4Card8CardHashNS_8equal_toIS1_EENS_9allocatorIS1_EEEC2Ev, symObjAddr: 0x2490, symBinAddr: 0x10000C82C, symSize: 0x7C }
  - { offsetInCU: 0xE07F, offset: 0x272FC, size: 0x8, addend: 0x0, symName: __ZNSt3__110unique_ptrIA_PNS_16__hash_node_baseIPNS_11__hash_nodeI4CardPvEEEENS_25__bucket_list_deallocatorINS_9allocatorIS8_EEEEEC1B7v160006ILb1EvEEv, symObjAddr: 0x250C, symBinAddr: 0x10000C8A8, symSize: 0x2C }
  - { offsetInCU: 0xE0B4, offset: 0x27331, size: 0x8, addend: 0x0, symName: __ZNSt3__117__compressed_pairINS_16__hash_node_baseIPNS_11__hash_nodeI4CardPvEEEENS_9allocatorIS5_EEEC1B7v160006ILb1EvEEv, symObjAddr: 0x2538, symBinAddr: 0x10000C8D4, symSize: 0x2C }
  - { offsetInCU: 0xE0E9, offset: 0x27366, size: 0x8, addend: 0x0, symName: __ZNSt3__117__compressed_pairIm8CardHashEC1B7v160006IiNS_18__default_init_tagEEEOT_OT0_, symObjAddr: 0x2564, symBinAddr: 0x10000C900, symSize: 0x3C }
  - { offsetInCU: 0xE146, offset: 0x273C3, size: 0x8, addend: 0x0, symName: __ZNSt3__117__compressed_pairIfNS_8equal_toI4CardEEEC1B7v160006IfNS_18__default_init_tagEEEOT_OT0_, symObjAddr: 0x25A0, symBinAddr: 0x10000C93C, symSize: 0x3C }
  - { offsetInCU: 0xE19E, offset: 0x2741B, size: 0x8, addend: 0x0, symName: __ZNSt3__110unique_ptrIA_PNS_16__hash_node_baseIPNS_11__hash_nodeI4CardPvEEEENS_25__bucket_list_deallocatorINS_9allocatorIS8_EEEEEC2B7v160006ILb1EvEEv, symObjAddr: 0x25DC, symBinAddr: 0x10000C978, symSize: 0x3C }
  - { offsetInCU: 0xE1D8, offset: 0x27455, size: 0x8, addend: 0x0, symName: __ZNSt3__117__compressed_pairIPPNS_16__hash_node_baseIPNS_11__hash_nodeI4CardPvEEEENS_25__bucket_list_deallocatorINS_9allocatorIS8_EEEEEC1B7v160006INS_16__value_init_tagESG_EEOT_OT0_, symObjAddr: 0x2618, symBinAddr: 0x10000C9B4, symSize: 0x3C }
  - { offsetInCU: 0xE230, offset: 0x274AD, size: 0x8, addend: 0x0, symName: __ZNSt3__117__compressed_pairIPPNS_16__hash_node_baseIPNS_11__hash_nodeI4CardPvEEEENS_25__bucket_list_deallocatorINS_9allocatorIS8_EEEEEC2B7v160006INS_16__value_init_tagESG_EEOT_OT0_, symObjAddr: 0x2654, symBinAddr: 0x10000C9F0, symSize: 0x40 }
  - { offsetInCU: 0xE288, offset: 0x27505, size: 0x8, addend: 0x0, symName: __ZNSt3__122__compressed_pair_elemIPPNS_16__hash_node_baseIPNS_11__hash_nodeI4CardPvEEEELi0ELb0EEC2B7v160006ENS_16__value_init_tagE, symObjAddr: 0x2694, symBinAddr: 0x10000CA30, symSize: 0x18 }
  - { offsetInCU: 0xE2BD, offset: 0x2753A, size: 0x8, addend: 0x0, symName: __ZNSt3__122__compressed_pair_elemINS_25__bucket_list_deallocatorINS_9allocatorIPNS_16__hash_node_baseIPNS_11__hash_nodeI4CardPvEEEEEEEELi1ELb0EEC2B7v160006ENS_16__value_init_tagE, symObjAddr: 0x26AC, symBinAddr: 0x10000CA48, symSize: 0x2C }
  - { offsetInCU: 0xE2F2, offset: 0x2756F, size: 0x8, addend: 0x0, symName: __ZNSt3__125__bucket_list_deallocatorINS_9allocatorIPNS_16__hash_node_baseIPNS_11__hash_nodeI4CardPvEEEEEEEC1B7v160006Ev, symObjAddr: 0x26D8, symBinAddr: 0x10000CA74, symSize: 0x2C }
  - { offsetInCU: 0xE31C, offset: 0x27599, size: 0x8, addend: 0x0, symName: __ZNSt3__125__bucket_list_deallocatorINS_9allocatorIPNS_16__hash_node_baseIPNS_11__hash_nodeI4CardPvEEEEEEEC2B7v160006Ev, symObjAddr: 0x2704, symBinAddr: 0x10000CAA0, symSize: 0x40 }
  - { offsetInCU: 0xE346, offset: 0x275C3, size: 0x8, addend: 0x0, symName: __ZNSt3__117__compressed_pairImNS_9allocatorIPNS_16__hash_node_baseIPNS_11__hash_nodeI4CardPvEEEEEEEC1B7v160006IiNS_18__default_init_tagEEEOT_OT0_, symObjAddr: 0x2744, symBinAddr: 0x10000CAE0, symSize: 0x3C }
  - { offsetInCU: 0xE39E, offset: 0x2761B, size: 0x8, addend: 0x0, symName: __ZNSt3__117__compressed_pairImNS_9allocatorIPNS_16__hash_node_baseIPNS_11__hash_nodeI4CardPvEEEEEEEC2B7v160006IiNS_18__default_init_tagEEEOT_OT0_, symObjAddr: 0x2780, symBinAddr: 0x10000CB1C, symSize: 0x40 }
  - { offsetInCU: 0xE3F6, offset: 0x27673, size: 0x8, addend: 0x0, symName: __ZNSt3__122__compressed_pair_elemINS_9allocatorIPNS_16__hash_node_baseIPNS_11__hash_nodeI4CardPvEEEEEELi1ELb1EEC2B7v160006ENS_18__default_init_tagE, symObjAddr: 0x27C0, symBinAddr: 0x10000CB5C, symSize: 0x2C }
  - { offsetInCU: 0xE42B, offset: 0x276A8, size: 0x8, addend: 0x0, symName: __ZNSt3__19allocatorIPNS_16__hash_node_baseIPNS_11__hash_nodeI4CardPvEEEEEC2B7v160006Ev, symObjAddr: 0x27EC, symBinAddr: 0x10000CB88, symSize: 0x2C }
  - { offsetInCU: 0xE455, offset: 0x276D2, size: 0x8, addend: 0x0, symName: __ZNSt3__116__non_trivial_ifILb1ENS_9allocatorIPNS_16__hash_node_baseIPNS_11__hash_nodeI4CardPvEEEEEEEC2B7v160006Ev, symObjAddr: 0x2818, symBinAddr: 0x10000CBB4, symSize: 0x14 }
  - { offsetInCU: 0xE47F, offset: 0x276FC, size: 0x8, addend: 0x0, symName: __ZNSt3__117__compressed_pairINS_16__hash_node_baseIPNS_11__hash_nodeI4CardPvEEEENS_9allocatorIS5_EEEC2B7v160006ILb1EvEEv, symObjAddr: 0x282C, symBinAddr: 0x10000CBC8, symSize: 0x34 }
  - { offsetInCU: 0xE4B4, offset: 0x27731, size: 0x8, addend: 0x0, symName: __ZNSt3__122__compressed_pair_elemINS_16__hash_node_baseIPNS_11__hash_nodeI4CardPvEEEELi0ELb0EEC2B7v160006ENS_16__value_init_tagE, symObjAddr: 0x2860, symBinAddr: 0x10000CBFC, symSize: 0x2C }
  - { offsetInCU: 0xE4E9, offset: 0x27766, size: 0x8, addend: 0x0, symName: __ZNSt3__122__compressed_pair_elemINS_9allocatorINS_11__hash_nodeI4CardPvEEEELi1ELb1EEC2B7v160006ENS_16__value_init_tagE, symObjAddr: 0x288C, symBinAddr: 0x10000CC28, symSize: 0x2C }
  - { offsetInCU: 0xE51E, offset: 0x2779B, size: 0x8, addend: 0x0, symName: __ZNSt3__116__hash_node_baseIPNS_11__hash_nodeI4CardPvEEEC1B7v160006Ev, symObjAddr: 0x28B8, symBinAddr: 0x10000CC54, symSize: 0x2C }
  - { offsetInCU: 0xE548, offset: 0x277C5, size: 0x8, addend: 0x0, symName: __ZNSt3__116__hash_node_baseIPNS_11__hash_nodeI4CardPvEEEC2B7v160006Ev, symObjAddr: 0x28E4, symBinAddr: 0x10000CC80, symSize: 0x18 }
  - { offsetInCU: 0xE572, offset: 0x277EF, size: 0x8, addend: 0x0, symName: __ZNSt3__19allocatorINS_11__hash_nodeI4CardPvEEEC2B7v160006Ev, symObjAddr: 0x28FC, symBinAddr: 0x10000CC98, symSize: 0x2C }
  - { offsetInCU: 0xE59C, offset: 0x27819, size: 0x8, addend: 0x0, symName: __ZNSt3__116__non_trivial_ifILb1ENS_9allocatorINS_11__hash_nodeI4CardPvEEEEEC2B7v160006Ev, symObjAddr: 0x2928, symBinAddr: 0x10000CCC4, symSize: 0x14 }
  - { offsetInCU: 0xE5C6, offset: 0x27843, size: 0x8, addend: 0x0, symName: __ZNSt3__117__compressed_pairIm8CardHashEC2B7v160006IiNS_18__default_init_tagEEEOT_OT0_, symObjAddr: 0x293C, symBinAddr: 0x10000CCD8, symSize: 0x40 }
  - { offsetInCU: 0xE61E, offset: 0x2789B, size: 0x8, addend: 0x0, symName: __ZNSt3__122__compressed_pair_elemI8CardHashLi1ELb1EEC2B7v160006ENS_18__default_init_tagE, symObjAddr: 0x297C, symBinAddr: 0x10000CD18, symSize: 0x14 }
  - { offsetInCU: 0xE653, offset: 0x278D0, size: 0x8, addend: 0x0, symName: __ZNSt3__117__compressed_pairIfNS_8equal_toI4CardEEEC2B7v160006IfNS_18__default_init_tagEEEOT_OT0_, symObjAddr: 0x2990, symBinAddr: 0x10000CD2C, symSize: 0x40 }
  - { offsetInCU: 0xE6AB, offset: 0x27928, size: 0x8, addend: 0x0, symName: __ZNSt3__122__compressed_pair_elemIfLi0ELb0EEC2B7v160006IfvEEOT_, symObjAddr: 0x29D0, symBinAddr: 0x10000CD6C, symSize: 0x24 }
  - { offsetInCU: 0xE6ED, offset: 0x2796A, size: 0x8, addend: 0x0, symName: __ZNSt3__122__compressed_pair_elemINS_8equal_toI4CardEELi1ELb1EEC2B7v160006ENS_18__default_init_tagE, symObjAddr: 0x29F4, symBinAddr: 0x10000CD90, symSize: 0x14 }
  - { offsetInCU: 0xE722, offset: 0x2799F, size: 0x8, addend: 0x0, symName: __ZNSt3__113unordered_setI4Card8CardHashNS_8equal_toIS1_EENS_9allocatorIS1_EEED2B7v160006Ev, symObjAddr: 0x2A08, symBinAddr: 0x10000CDA4, symSize: 0x2C }
  - { offsetInCU: 0xE74C, offset: 0x279C9, size: 0x8, addend: 0x0, symName: __ZNSt3__112__hash_tableI4Card8CardHashNS_8equal_toIS1_EENS_9allocatorIS1_EEED1Ev, symObjAddr: 0x2A34, symBinAddr: 0x10000CDD0, symSize: 0x2C }
  - { offsetInCU: 0xE778, offset: 0x279F5, size: 0x8, addend: 0x0, symName: __ZNSt3__112__hash_tableI4Card8CardHashNS_8equal_toIS1_EENS_9allocatorIS1_EEED2Ev, symObjAddr: 0x2A60, symBinAddr: 0x10000CDFC, symSize: 0x58 }
  - { offsetInCU: 0xE7A4, offset: 0x27A21, size: 0x8, addend: 0x0, symName: __ZNSt3__112__hash_tableI4Card8CardHashNS_8equal_toIS1_EENS_9allocatorIS1_EEE17__deallocate_nodeEPNS_16__hash_node_baseIPNS_11__hash_nodeIS1_PvEEEE, symObjAddr: 0x2AB8, symBinAddr: 0x10000CE54, symSize: 0xA8 }
  - { offsetInCU: 0xE80E, offset: 0x27A8B, size: 0x8, addend: 0x0, symName: __ZNSt3__117__compressed_pairINS_16__hash_node_baseIPNS_11__hash_nodeI4CardPvEEEENS_9allocatorIS5_EEE5firstB7v160006Ev, symObjAddr: 0x2B60, symBinAddr: 0x10000CEFC, symSize: 0x24 }
  - { offsetInCU: 0xE834, offset: 0x27AB1, size: 0x8, addend: 0x0, symName: __ZNSt3__110unique_ptrIA_PNS_16__hash_node_baseIPNS_11__hash_nodeI4CardPvEEEENS_25__bucket_list_deallocatorINS_9allocatorIS8_EEEEED1B7v160006Ev, symObjAddr: 0x2B94, symBinAddr: 0x10000CF30, symSize: 0x2C }
  - { offsetInCU: 0xE85E, offset: 0x27ADB, size: 0x8, addend: 0x0, symName: __ZNSt3__112__hash_tableI4Card8CardHashNS_8equal_toIS1_EENS_9allocatorIS1_EEE12__node_allocB7v160006Ev, symObjAddr: 0x2BC0, symBinAddr: 0x10000CF5C, symSize: 0x28 }
  - { offsetInCU: 0xE884, offset: 0x27B01, size: 0x8, addend: 0x0, symName: __ZNSt3__116allocator_traitsINS_9allocatorINS_11__hash_nodeI4CardPvEEEEE7destroyB7v160006IS3_vvEEvRS6_PT_, symObjAddr: 0x2BE8, symBinAddr: 0x10000CF84, symSize: 0x14 }
  - { offsetInCU: 0xE8BE, offset: 0x27B3B, size: 0x8, addend: 0x0, symName: __ZNSt3__122__hash_key_value_typesI4CardE9__get_ptrB7v160006ERS1_, symObjAddr: 0x2BFC, symBinAddr: 0x10000CF98, symSize: 0x14 }
  - { offsetInCU: 0xE8E1, offset: 0x27B5E, size: 0x8, addend: 0x0, symName: __ZNSt3__116allocator_traitsINS_9allocatorINS_11__hash_nodeI4CardPvEEEEE10deallocateB7v160006ERS6_PS5_m, symObjAddr: 0x2C10, symBinAddr: 0x10000CFAC, symSize: 0x34 }
  - { offsetInCU: 0xE923, offset: 0x27BA0, size: 0x8, addend: 0x0, symName: __ZNSt3__117__compressed_pairINS_16__hash_node_baseIPNS_11__hash_nodeI4CardPvEEEENS_9allocatorIS5_EEE6secondB7v160006Ev, symObjAddr: 0x2C44, symBinAddr: 0x10000CFE0, symSize: 0x24 }
  - { offsetInCU: 0xE949, offset: 0x27BC6, size: 0x8, addend: 0x0, symName: __ZNSt3__122__compressed_pair_elemINS_9allocatorINS_11__hash_nodeI4CardPvEEEELi1ELb1EE5__getB7v160006Ev, symObjAddr: 0x2C68, symBinAddr: 0x10000D004, symSize: 0x14 }
  - { offsetInCU: 0xE96F, offset: 0x27BEC, size: 0x8, addend: 0x0, symName: __ZNSt3__19allocatorINS_11__hash_nodeI4CardPvEEE10deallocateB7v160006EPS4_m, symObjAddr: 0x2C7C, symBinAddr: 0x10000D018, symSize: 0x40 }
  - { offsetInCU: 0xE9B1, offset: 0x27C2E, size: 0x8, addend: 0x0, symName: __ZNSt3__122__compressed_pair_elemINS_16__hash_node_baseIPNS_11__hash_nodeI4CardPvEEEELi0ELb0EE5__getB7v160006Ev, symObjAddr: 0x2CBC, symBinAddr: 0x10000D058, symSize: 0x14 }
  - { offsetInCU: 0xE9D7, offset: 0x27C54, size: 0x8, addend: 0x0, symName: __ZNSt3__110unique_ptrIA_PNS_16__hash_node_baseIPNS_11__hash_nodeI4CardPvEEEENS_25__bucket_list_deallocatorINS_9allocatorIS8_EEEEED2B7v160006Ev, symObjAddr: 0x2CD0, symBinAddr: 0x10000D06C, symSize: 0x30 }
  - { offsetInCU: 0xEA01, offset: 0x27C7E, size: 0x8, addend: 0x0, symName: __ZNSt3__110unique_ptrIA_PNS_16__hash_node_baseIPNS_11__hash_nodeI4CardPvEEEENS_25__bucket_list_deallocatorINS_9allocatorIS8_EEEEE5resetB7v160006EDn, symObjAddr: 0x2D00, symBinAddr: 0x10000D09C, symSize: 0x6C }
  - { offsetInCU: 0xEA41, offset: 0x27CBE, size: 0x8, addend: 0x0, symName: __ZNSt3__117__compressed_pairIPPNS_16__hash_node_baseIPNS_11__hash_nodeI4CardPvEEEENS_25__bucket_list_deallocatorINS_9allocatorIS8_EEEEE5firstB7v160006Ev, symObjAddr: 0x2D6C, symBinAddr: 0x10000D108, symSize: 0x24 }
  - { offsetInCU: 0xEA67, offset: 0x27CE4, size: 0x8, addend: 0x0, symName: __ZNSt3__117__compressed_pairIPPNS_16__hash_node_baseIPNS_11__hash_nodeI4CardPvEEEENS_25__bucket_list_deallocatorINS_9allocatorIS8_EEEEE6secondB7v160006Ev, symObjAddr: 0x2D90, symBinAddr: 0x10000D12C, symSize: 0x28 }
  - { offsetInCU: 0xEA8D, offset: 0x27D0A, size: 0x8, addend: 0x0, symName: __ZNSt3__125__bucket_list_deallocatorINS_9allocatorIPNS_16__hash_node_baseIPNS_11__hash_nodeI4CardPvEEEEEEEclB7v160006EPS9_, symObjAddr: 0x2DB8, symBinAddr: 0x10000D154, symSize: 0x58 }
  - { offsetInCU: 0xEAC2, offset: 0x27D3F, size: 0x8, addend: 0x0, symName: __ZNSt3__122__compressed_pair_elemIPPNS_16__hash_node_baseIPNS_11__hash_nodeI4CardPvEEEELi0ELb0EE5__getB7v160006Ev, symObjAddr: 0x2E10, symBinAddr: 0x10000D1AC, symSize: 0x14 }
  - { offsetInCU: 0xEAE8, offset: 0x27D65, size: 0x8, addend: 0x0, symName: __ZNSt3__122__compressed_pair_elemINS_25__bucket_list_deallocatorINS_9allocatorIPNS_16__hash_node_baseIPNS_11__hash_nodeI4CardPvEEEEEEEELi1ELb0EE5__getB7v160006Ev, symObjAddr: 0x2E24, symBinAddr: 0x10000D1C0, symSize: 0x14 }
  - { offsetInCU: 0xEB0E, offset: 0x27D8B, size: 0x8, addend: 0x0, symName: __ZNSt3__116allocator_traitsINS_9allocatorIPNS_16__hash_node_baseIPNS_11__hash_nodeI4CardPvEEEEEEE10deallocateB7v160006ERSA_PS9_m, symObjAddr: 0x2E38, symBinAddr: 0x10000D1D4, symSize: 0x34 }
  - { offsetInCU: 0xEB50, offset: 0x27DCD, size: 0x8, addend: 0x0, symName: __ZNSt3__125__bucket_list_deallocatorINS_9allocatorIPNS_16__hash_node_baseIPNS_11__hash_nodeI4CardPvEEEEEEE7__allocB7v160006Ev, symObjAddr: 0x2E6C, symBinAddr: 0x10000D208, symSize: 0x24 }
  - { offsetInCU: 0xEB76, offset: 0x27DF3, size: 0x8, addend: 0x0, symName: __ZNSt3__125__bucket_list_deallocatorINS_9allocatorIPNS_16__hash_node_baseIPNS_11__hash_nodeI4CardPvEEEEEEE4sizeB7v160006Ev, symObjAddr: 0x2E90, symBinAddr: 0x10000D22C, symSize: 0x24 }
  - { offsetInCU: 0xEB9C, offset: 0x27E19, size: 0x8, addend: 0x0, symName: __ZNSt3__19allocatorIPNS_16__hash_node_baseIPNS_11__hash_nodeI4CardPvEEEEE10deallocateB7v160006EPS8_m, symObjAddr: 0x2EB4, symBinAddr: 0x10000D250, symSize: 0x40 }
  - { offsetInCU: 0xEBDE, offset: 0x27E5B, size: 0x8, addend: 0x0, symName: __ZNSt3__117__compressed_pairImNS_9allocatorIPNS_16__hash_node_baseIPNS_11__hash_nodeI4CardPvEEEEEEE6secondB7v160006Ev, symObjAddr: 0x2EF4, symBinAddr: 0x10000D290, symSize: 0x24 }
  - { offsetInCU: 0xEC04, offset: 0x27E81, size: 0x8, addend: 0x0, symName: __ZNSt3__122__compressed_pair_elemINS_9allocatorIPNS_16__hash_node_baseIPNS_11__hash_nodeI4CardPvEEEEEELi1ELb1EE5__getB7v160006Ev, symObjAddr: 0x2F18, symBinAddr: 0x10000D2B4, symSize: 0x14 }
  - { offsetInCU: 0xEC2A, offset: 0x27EA7, size: 0x8, addend: 0x0, symName: __ZNSt3__117__compressed_pairImNS_9allocatorIPNS_16__hash_node_baseIPNS_11__hash_nodeI4CardPvEEEEEEE5firstB7v160006Ev, symObjAddr: 0x2F2C, symBinAddr: 0x10000D2C8, symSize: 0x24 }
  - { offsetInCU: 0xEC50, offset: 0x27ECD, size: 0x8, addend: 0x0, symName: __ZNSt3__112__hash_tableI4Card8CardHashNS_8equal_toIS1_EENS_9allocatorIS1_EEE15__insert_uniqueB7v160006EOS1_, symObjAddr: 0x2F50, symBinAddr: 0x10000D2EC, symSize: 0x50 }
  - { offsetInCU: 0xEC85, offset: 0x27F02, size: 0x8, addend: 0x0, symName: __ZNSt3__14pairINS_21__hash_const_iteratorIPNS_11__hash_nodeI4CardPvEEEEbEC1B7v160006INS_15__hash_iteratorIS6_EEbLS4_0EEEONS0_IT_T0_EE, symObjAddr: 0x2FA0, symBinAddr: 0x10000D33C, symSize: 0x34 }
  - { offsetInCU: 0xECD6, offset: 0x27F53, size: 0x8, addend: 0x0, symName: __ZNSt3__112__hash_tableI4Card8CardHashNS_8equal_toIS1_EENS_9allocatorIS1_EEE25__emplace_unique_key_argsIS1_JS1_EEENS_4pairINS_15__hash_iteratorIPNS_11__hash_nodeIS1_PvEEEEbEERKT_DpOT0_, symObjAddr: 0x2FD4, symBinAddr: 0x10000D370, symSize: 0x4C0 }
  - { offsetInCU: 0xEDB6, offset: 0x28033, size: 0x8, addend: 0x0, symName: __ZNSt3__122__hash_key_value_typesI4CardE9__get_keyB7v160006ERKS1_, symObjAddr: 0x3494, symBinAddr: 0x10000D830, symSize: 0x14 }
  - { offsetInCU: 0xEDD9, offset: 0x28056, size: 0x8, addend: 0x0, symName: __ZNSt3__112__hash_tableI4Card8CardHashNS_8equal_toIS1_EENS_9allocatorIS1_EEE13hash_functionB7v160006Ev, symObjAddr: 0x34A8, symBinAddr: 0x10000D844, symSize: 0x28 }
  - { offsetInCU: 0xEDFF, offset: 0x2807C, size: 0x8, addend: 0x0, symName: __ZNKSt3__112__hash_tableI4Card8CardHashNS_8equal_toIS1_EENS_9allocatorIS1_EEE12bucket_countB7v160006Ev, symObjAddr: 0x34D0, symBinAddr: 0x10000D86C, symSize: 0x28 }
  - { offsetInCU: 0xEE25, offset: 0x280A2, size: 0x8, addend: 0x0, symName: __ZNKSt3__110unique_ptrIA_PNS_16__hash_node_baseIPNS_11__hash_nodeI4CardPvEEEENS_25__bucket_list_deallocatorINS_9allocatorIS8_EEEEEixB7v160006Em, symObjAddr: 0x3590, symBinAddr: 0x10000D92C, symSize: 0x34 }
  - { offsetInCU: 0xEE5A, offset: 0x280D7, size: 0x8, addend: 0x0, symName: __ZNKSt3__116__hash_node_baseIPNS_11__hash_nodeI4CardPvEEE6__hashB7v160006Ev, symObjAddr: 0x35C4, symBinAddr: 0x10000D960, symSize: 0x18 }
  - { offsetInCU: 0xEE80, offset: 0x280FD, size: 0x8, addend: 0x0, symName: __ZNSt3__112__hash_tableI4Card8CardHashNS_8equal_toIS1_EENS_9allocatorIS1_EEE6key_eqB7v160006Ev, symObjAddr: 0x35DC, symBinAddr: 0x10000D978, symSize: 0x28 }
  - { offsetInCU: 0xEEA6, offset: 0x28123, size: 0x8, addend: 0x0, symName: __ZNKSt3__18equal_toI4CardEclB7v160006ERKS1_S4_, symObjAddr: 0x3604, symBinAddr: 0x10000D9A0, symSize: 0x34 }
  - { offsetInCU: 0xEEEA, offset: 0x28167, size: 0x8, addend: 0x0, symName: __ZNSt3__112__hash_tableI4Card8CardHashNS_8equal_toIS1_EENS_9allocatorIS1_EEE21__construct_node_hashIS1_JEEENS_10unique_ptrINS_11__hash_nodeIS1_PvEENS_22__hash_node_destructorINS5_ISC_EEEEEEmOT_DpOT0_, symObjAddr: 0x3638, symBinAddr: 0x10000D9D4, symSize: 0x138 }
  - { offsetInCU: 0xEF5D, offset: 0x281DA, size: 0x8, addend: 0x0, symName: __ZNSt3__112__hash_tableI4Card8CardHashNS_8equal_toIS1_EENS_9allocatorIS1_EEE4sizeB7v160006Ev, symObjAddr: 0x3770, symBinAddr: 0x10000DB0C, symSize: 0x28 }
  - { offsetInCU: 0xEF83, offset: 0x28200, size: 0x8, addend: 0x0, symName: __ZNSt3__112__hash_tableI4Card8CardHashNS_8equal_toIS1_EENS_9allocatorIS1_EEE15max_load_factorB7v160006Ev, symObjAddr: 0x3798, symBinAddr: 0x10000DB34, symSize: 0x28 }
  - { offsetInCU: 0xEFA9, offset: 0x28226, size: 0x8, addend: 0x0, symName: __ZNSt3__112__hash_tableI4Card8CardHashNS_8equal_toIS1_EENS_9allocatorIS1_EEE15__rehash_uniqueB7v160006Em, symObjAddr: 0x37C0, symBinAddr: 0x10000DB5C, symSize: 0x2C }
  - { offsetInCU: 0xEFDD, offset: 0x2825A, size: 0x8, addend: 0x0, symName: __Z4ceilB7v160006f, symObjAddr: 0x3868, symBinAddr: 0x10000DC04, symSize: 0x18 }
  - { offsetInCU: 0xF00C, offset: 0x28289, size: 0x8, addend: 0x0, symName: __ZNSt3__116__hash_node_baseIPNS_11__hash_nodeI4CardPvEEE5__ptrB7v160006Ev, symObjAddr: 0x3880, symBinAddr: 0x10000DC1C, symSize: 0x24 }
  - { offsetInCU: 0xF032, offset: 0x282AF, size: 0x8, addend: 0x0, symName: __ZNKSt3__110unique_ptrINS_11__hash_nodeI4CardPvEENS_22__hash_node_destructorINS_9allocatorIS4_EEEEEptB7v160006Ev, symObjAddr: 0x38A4, symBinAddr: 0x10000DC40, symSize: 0x28 }
  - { offsetInCU: 0xF058, offset: 0x282D5, size: 0x8, addend: 0x0, symName: __ZNKSt3__110unique_ptrINS_11__hash_nodeI4CardPvEENS_22__hash_node_destructorINS_9allocatorIS4_EEEEE3getB7v160006Ev, symObjAddr: 0x38CC, symBinAddr: 0x10000DC68, symSize: 0x28 }
  - { offsetInCU: 0xF07E, offset: 0x282FB, size: 0x8, addend: 0x0, symName: __ZNSt3__110unique_ptrINS_11__hash_nodeI4CardPvEENS_22__hash_node_destructorINS_9allocatorIS4_EEEEE7releaseB7v160006Ev, symObjAddr: 0x38F4, symBinAddr: 0x10000DC90, symSize: 0x44 }
  - { offsetInCU: 0xF0B3, offset: 0x28330, size: 0x8, addend: 0x0, symName: __ZNSt3__110unique_ptrINS_11__hash_nodeI4CardPvEENS_22__hash_node_destructorINS_9allocatorIS4_EEEEED1B7v160006Ev, symObjAddr: 0x3938, symBinAddr: 0x10000DCD4, symSize: 0x2C }
  - { offsetInCU: 0xF0DD, offset: 0x2835A, size: 0x8, addend: 0x0, symName: __ZNSt3__115__hash_iteratorIPNS_11__hash_nodeI4CardPvEEEC1B7v160006EPNS_16__hash_node_baseIS5_EEPKv, symObjAddr: 0x3964, symBinAddr: 0x10000DD00, symSize: 0x3C }
  - { offsetInCU: 0xF12A, offset: 0x283A7, size: 0x8, addend: 0x0, symName: __ZNSt3__14pairINS_15__hash_iteratorIPNS_11__hash_nodeI4CardPvEEEEbEC1B7v160006IS7_RbLS4_0EEEOT_OT0_, symObjAddr: 0x39A0, symBinAddr: 0x10000DD3C, symSize: 0x3C }
  - { offsetInCU: 0xF188, offset: 0x28405, size: 0x8, addend: 0x0, symName: __ZNSt3__117__compressed_pairIm8CardHashE6secondB7v160006Ev, symObjAddr: 0x39DC, symBinAddr: 0x10000DD78, symSize: 0x24 }
  - { offsetInCU: 0xF1AE, offset: 0x2842B, size: 0x8, addend: 0x0, symName: __ZNSt3__122__compressed_pair_elemI8CardHashLi1ELb1EE5__getB7v160006Ev, symObjAddr: 0x3A00, symBinAddr: 0x10000DD9C, symSize: 0x14 }
  - { offsetInCU: 0xF1D4, offset: 0x28451, size: 0x8, addend: 0x0, symName: __ZNKSt3__110unique_ptrIA_PNS_16__hash_node_baseIPNS_11__hash_nodeI4CardPvEEEENS_25__bucket_list_deallocatorINS_9allocatorIS8_EEEEE11get_deleterB7v160006Ev, symObjAddr: 0x3A14, symBinAddr: 0x10000DDB0, symSize: 0x24 }
  - { offsetInCU: 0xF1FA, offset: 0x28477, size: 0x8, addend: 0x0, symName: __ZNKSt3__125__bucket_list_deallocatorINS_9allocatorIPNS_16__hash_node_baseIPNS_11__hash_nodeI4CardPvEEEEEEE4sizeB7v160006Ev, symObjAddr: 0x3A38, symBinAddr: 0x10000DDD4, symSize: 0x28 }
  - { offsetInCU: 0xF220, offset: 0x2849D, size: 0x8, addend: 0x0, symName: __ZNKSt3__117__compressed_pairIPPNS_16__hash_node_baseIPNS_11__hash_nodeI4CardPvEEEENS_25__bucket_list_deallocatorINS_9allocatorIS8_EEEEE6secondB7v160006Ev, symObjAddr: 0x3A60, symBinAddr: 0x10000DDFC, symSize: 0x28 }
  - { offsetInCU: 0xF246, offset: 0x284C3, size: 0x8, addend: 0x0, symName: __ZNKSt3__122__compressed_pair_elemINS_25__bucket_list_deallocatorINS_9allocatorIPNS_16__hash_node_baseIPNS_11__hash_nodeI4CardPvEEEEEEEELi1ELb0EE5__getB7v160006Ev, symObjAddr: 0x3A88, symBinAddr: 0x10000DE24, symSize: 0x14 }
  - { offsetInCU: 0xF26C, offset: 0x284E9, size: 0x8, addend: 0x0, symName: __ZNKSt3__117__compressed_pairImNS_9allocatorIPNS_16__hash_node_baseIPNS_11__hash_nodeI4CardPvEEEEEEE5firstB7v160006Ev, symObjAddr: 0x3A9C, symBinAddr: 0x10000DE38, symSize: 0x24 }
  - { offsetInCU: 0xF292, offset: 0x2850F, size: 0x8, addend: 0x0, symName: __ZNKSt3__117__compressed_pairIPPNS_16__hash_node_baseIPNS_11__hash_nodeI4CardPvEEEENS_25__bucket_list_deallocatorINS_9allocatorIS8_EEEEE5firstB7v160006Ev, symObjAddr: 0x3AC0, symBinAddr: 0x10000DE5C, symSize: 0x24 }
  - { offsetInCU: 0xF2B8, offset: 0x28535, size: 0x8, addend: 0x0, symName: __ZNKSt3__122__compressed_pair_elemIPPNS_16__hash_node_baseIPNS_11__hash_nodeI4CardPvEEEELi0ELb0EE5__getB7v160006Ev, symObjAddr: 0x3AE4, symBinAddr: 0x10000DE80, symSize: 0x14 }
  - { offsetInCU: 0xF2DE, offset: 0x2855B, size: 0x8, addend: 0x0, symName: __ZNSt3__117__compressed_pairIfNS_8equal_toI4CardEEE6secondB7v160006Ev, symObjAddr: 0x3AF8, symBinAddr: 0x10000DE94, symSize: 0x24 }
  - { offsetInCU: 0xF304, offset: 0x28581, size: 0x8, addend: 0x0, symName: __ZNSt3__122__compressed_pair_elemINS_8equal_toI4CardEELi1ELb1EE5__getB7v160006Ev, symObjAddr: 0x3B1C, symBinAddr: 0x10000DEB8, symSize: 0x14 }
  - { offsetInCU: 0xF32A, offset: 0x285A7, size: 0x8, addend: 0x0, symName: __ZNSt3__116allocator_traitsINS_9allocatorINS_11__hash_nodeI4CardPvEEEEE8allocateB7v160006ERS6_m, symObjAddr: 0x3B30, symBinAddr: 0x10000DECC, symSize: 0x2C }
  - { offsetInCU: 0xF35D, offset: 0x285DA, size: 0x8, addend: 0x0, symName: __ZNSt3__122__hash_node_destructorINS_9allocatorINS_11__hash_nodeI4CardPvEEEEEC1B7v160006ERS6_b, symObjAddr: 0x3B5C, symBinAddr: 0x10000DEF8, symSize: 0x48 }
  - { offsetInCU: 0xF3AA, offset: 0x28627, size: 0x8, addend: 0x0, symName: __ZNSt3__110unique_ptrINS_11__hash_nodeI4CardPvEENS_22__hash_node_destructorINS_9allocatorIS4_EEEEEC1B7v160006ILb1EvEEPS4_NS_16__dependent_typeINS_27__unique_ptr_deleter_sfinaeIS8_EEXT_EE20__good_rval_ref_typeE, symObjAddr: 0x3BA4, symBinAddr: 0x10000DF40, symSize: 0x3C }
  - { offsetInCU: 0xF3FB, offset: 0x28678, size: 0x8, addend: 0x0, symName: __ZNSt3__116allocator_traitsINS_9allocatorINS_11__hash_nodeI4CardPvEEEEE9constructB7v160006IS3_JS3_EvEEvRS6_PT_DpOT0_, symObjAddr: 0x3BE0, symBinAddr: 0x10000DF7C, symSize: 0x34 }
  - { offsetInCU: 0xF452, offset: 0x286CF, size: 0x8, addend: 0x0, symName: __ZNSt3__110unique_ptrINS_11__hash_nodeI4CardPvEENS_22__hash_node_destructorINS_9allocatorIS4_EEEEE11get_deleterB7v160006Ev, symObjAddr: 0x3C14, symBinAddr: 0x10000DFB0, symSize: 0x24 }
  - { offsetInCU: 0xF478, offset: 0x286F5, size: 0x8, addend: 0x0, symName: __ZNSt3__19allocatorINS_11__hash_nodeI4CardPvEEE8allocateB7v160006Em, symObjAddr: 0x3C38, symBinAddr: 0x10000DFD4, symSize: 0x58 }
  - { offsetInCU: 0xF4B6, offset: 0x28733, size: 0x8, addend: 0x0, symName: __ZNSt3__116allocator_traitsINS_9allocatorINS_11__hash_nodeI4CardPvEEEEE8max_sizeB7v160006IS6_vEEmRKS6_, symObjAddr: 0x3C90, symBinAddr: 0x10000E02C, symSize: 0x24 }
  - { offsetInCU: 0xF4E4, offset: 0x28761, size: 0x8, addend: 0x0, symName: __ZNKSt3__19allocatorINS_11__hash_nodeI4CardPvEEE8max_sizeB7v160006Ev, symObjAddr: 0x3CB4, symBinAddr: 0x10000E050, symSize: 0x14 }
  - { offsetInCU: 0xF50A, offset: 0x28787, size: 0x8, addend: 0x0, symName: __ZNSt3__122__hash_node_destructorINS_9allocatorINS_11__hash_nodeI4CardPvEEEEEC2B7v160006ERS6_b, symObjAddr: 0x3CC8, symBinAddr: 0x10000E064, symSize: 0x38 }
  - { offsetInCU: 0xF552, offset: 0x287CF, size: 0x8, addend: 0x0, symName: __ZNSt3__110unique_ptrINS_11__hash_nodeI4CardPvEENS_22__hash_node_destructorINS_9allocatorIS4_EEEEEC2B7v160006ILb1EvEEPS4_NS_16__dependent_typeINS_27__unique_ptr_deleter_sfinaeIS8_EEXT_EE20__good_rval_ref_typeE, symObjAddr: 0x3D00, symBinAddr: 0x10000E09C, symSize: 0x48 }
  - { offsetInCU: 0xF5A3, offset: 0x28820, size: 0x8, addend: 0x0, symName: __ZNSt3__117__compressed_pairIPNS_11__hash_nodeI4CardPvEENS_22__hash_node_destructorINS_9allocatorIS4_EEEEEC1B7v160006IRS5_S9_EEOT_OT0_, symObjAddr: 0x3D48, symBinAddr: 0x10000E0E4, symSize: 0x3C }
  - { offsetInCU: 0xF5FB, offset: 0x28878, size: 0x8, addend: 0x0, symName: __ZNSt3__117__compressed_pairIPNS_11__hash_nodeI4CardPvEENS_22__hash_node_destructorINS_9allocatorIS4_EEEEEC2B7v160006IRS5_S9_EEOT_OT0_, symObjAddr: 0x3D84, symBinAddr: 0x10000E120, symSize: 0x48 }
  - { offsetInCU: 0xF653, offset: 0x288D0, size: 0x8, addend: 0x0, symName: __ZNSt3__122__compressed_pair_elemIPNS_11__hash_nodeI4CardPvEELi0ELb0EEC2B7v160006IRS5_vEEOT_, symObjAddr: 0x3DCC, symBinAddr: 0x10000E168, symSize: 0x24 }
  - { offsetInCU: 0xF695, offset: 0x28912, size: 0x8, addend: 0x0, symName: __ZNSt3__122__compressed_pair_elemINS_22__hash_node_destructorINS_9allocatorINS_11__hash_nodeI4CardPvEEEEEELi1ELb0EEC2B7v160006IS8_vEEOT_, symObjAddr: 0x3DF0, symBinAddr: 0x10000E18C, symSize: 0x24 }
  - { offsetInCU: 0xF6D7, offset: 0x28954, size: 0x8, addend: 0x0, symName: __ZNSt3__19allocatorINS_11__hash_nodeI4CardPvEEE9constructB7v160006IS2_JS2_EEEvPT_DpOT0_, symObjAddr: 0x3E14, symBinAddr: 0x10000E1B0, symSize: 0x30 }
  - { offsetInCU: 0xF72D, offset: 0x289AA, size: 0x8, addend: 0x0, symName: __ZNSt3__117__compressed_pairIPNS_11__hash_nodeI4CardPvEENS_22__hash_node_destructorINS_9allocatorIS4_EEEEE6secondB7v160006Ev, symObjAddr: 0x3E44, symBinAddr: 0x10000E1E0, symSize: 0x28 }
  - { offsetInCU: 0xF753, offset: 0x289D0, size: 0x8, addend: 0x0, symName: __ZNSt3__122__compressed_pair_elemINS_22__hash_node_destructorINS_9allocatorINS_11__hash_nodeI4CardPvEEEEEELi1ELb0EE5__getB7v160006Ev, symObjAddr: 0x3E6C, symBinAddr: 0x10000E208, symSize: 0x14 }
  - { offsetInCU: 0xF779, offset: 0x289F6, size: 0x8, addend: 0x0, symName: __ZNSt3__117__compressed_pairIm8CardHashE5firstB7v160006Ev, symObjAddr: 0x3E80, symBinAddr: 0x10000E21C, symSize: 0x24 }
  - { offsetInCU: 0xF79F, offset: 0x28A1C, size: 0x8, addend: 0x0, symName: __ZNSt3__117__compressed_pairIfNS_8equal_toI4CardEEE5firstB7v160006Ev, symObjAddr: 0x3EA4, symBinAddr: 0x10000E240, symSize: 0x24 }
  - { offsetInCU: 0xF7C5, offset: 0x28A42, size: 0x8, addend: 0x0, symName: __ZNSt3__122__compressed_pair_elemIfLi0ELb0EE5__getB7v160006Ev, symObjAddr: 0x3EC8, symBinAddr: 0x10000E264, symSize: 0x14 }
  - { offsetInCU: 0xF7EB, offset: 0x28A68, size: 0x8, addend: 0x0, symName: __ZNSt3__112__hash_tableI4Card8CardHashNS_8equal_toIS1_EENS_9allocatorIS1_EEE8__rehashILb1EEEvm, symObjAddr: 0x3EDC, symBinAddr: 0x10000E278, symSize: 0x1A8 }
  - { offsetInCU: 0xF83B, offset: 0x28AB8, size: 0x8, addend: 0x0, symName: __ZNSt3__112__hash_tableI4Card8CardHashNS_8equal_toIS1_EENS_9allocatorIS1_EEE11__do_rehashILb1EEEvm, symObjAddr: 0x4084, symBinAddr: 0x10000E420, symSize: 0x290 }
  - { offsetInCU: 0xF91E, offset: 0x28B9B, size: 0x8, addend: 0x0, symName: __ZNSt3__110unique_ptrIA_PNS_16__hash_node_baseIPNS_11__hash_nodeI4CardPvEEEENS_25__bucket_list_deallocatorINS_9allocatorIS8_EEEEE11get_deleterB7v160006Ev, symObjAddr: 0x4390, symBinAddr: 0x10000E72C, symSize: 0x24 }
  - { offsetInCU: 0xF944, offset: 0x28BC1, size: 0x8, addend: 0x0, symName: __ZNSt3__110unique_ptrIA_PNS_16__hash_node_baseIPNS_11__hash_nodeI4CardPvEEEENS_25__bucket_list_deallocatorINS_9allocatorIS8_EEEEE5resetB7v160006IPS8_EENS_9enable_ifIXsr28_CheckArrayPointerConversionIT_EE5valueEvE4typeESI_, symObjAddr: 0x43B4, symBinAddr: 0x10000E750, symSize: 0x78 }
  - { offsetInCU: 0xF991, offset: 0x28C0E, size: 0x8, addend: 0x0, symName: __ZNSt3__116allocator_traitsINS_9allocatorIPNS_16__hash_node_baseIPNS_11__hash_nodeI4CardPvEEEEEEE8allocateB7v160006ERSA_m, symObjAddr: 0x442C, symBinAddr: 0x10000E7C8, symSize: 0x2C }
  - { offsetInCU: 0xF9C4, offset: 0x28C41, size: 0x8, addend: 0x0, symName: __ZNSt3__19allocatorIPNS_16__hash_node_baseIPNS_11__hash_nodeI4CardPvEEEEE8allocateB7v160006Em, symObjAddr: 0x4458, symBinAddr: 0x10000E7F4, symSize: 0x58 }
  - { offsetInCU: 0xFA02, offset: 0x28C7F, size: 0x8, addend: 0x0, symName: __ZNSt3__116allocator_traitsINS_9allocatorIPNS_16__hash_node_baseIPNS_11__hash_nodeI4CardPvEEEEEEE8max_sizeB7v160006ISA_vEEmRKSA_, symObjAddr: 0x44B0, symBinAddr: 0x10000E84C, symSize: 0x24 }
  - { offsetInCU: 0xFA30, offset: 0x28CAD, size: 0x8, addend: 0x0, symName: __ZNKSt3__19allocatorIPNS_16__hash_node_baseIPNS_11__hash_nodeI4CardPvEEEEE8max_sizeB7v160006Ev, symObjAddr: 0x44D4, symBinAddr: 0x10000E870, symSize: 0x14 }
  - { offsetInCU: 0xFA56, offset: 0x28CD3, size: 0x8, addend: 0x0, symName: __ZNKSt3__117__compressed_pairIPNS_11__hash_nodeI4CardPvEENS_22__hash_node_destructorINS_9allocatorIS4_EEEEE5firstB7v160006Ev, symObjAddr: 0x4558, symBinAddr: 0x10000E8F4, symSize: 0x24 }
  - { offsetInCU: 0xFA7C, offset: 0x28CF9, size: 0x8, addend: 0x0, symName: __ZNKSt3__122__compressed_pair_elemIPNS_11__hash_nodeI4CardPvEELi0ELb0EE5__getB7v160006Ev, symObjAddr: 0x457C, symBinAddr: 0x10000E918, symSize: 0x14 }
  - { offsetInCU: 0xFAA2, offset: 0x28D1F, size: 0x8, addend: 0x0, symName: __ZNSt3__117__compressed_pairIPNS_11__hash_nodeI4CardPvEENS_22__hash_node_destructorINS_9allocatorIS4_EEEEE5firstB7v160006Ev, symObjAddr: 0x4590, symBinAddr: 0x10000E92C, symSize: 0x24 }
  - { offsetInCU: 0xFAC8, offset: 0x28D45, size: 0x8, addend: 0x0, symName: __ZNSt3__122__compressed_pair_elemIPNS_11__hash_nodeI4CardPvEELi0ELb0EE5__getB7v160006Ev, symObjAddr: 0x45B4, symBinAddr: 0x10000E950, symSize: 0x14 }
  - { offsetInCU: 0xFAEE, offset: 0x28D6B, size: 0x8, addend: 0x0, symName: __ZNSt3__110unique_ptrINS_11__hash_nodeI4CardPvEENS_22__hash_node_destructorINS_9allocatorIS4_EEEEED2B7v160006Ev, symObjAddr: 0x45C8, symBinAddr: 0x10000E964, symSize: 0x30 }
  - { offsetInCU: 0xFB18, offset: 0x28D95, size: 0x8, addend: 0x0, symName: __ZNSt3__110unique_ptrINS_11__hash_nodeI4CardPvEENS_22__hash_node_destructorINS_9allocatorIS4_EEEEE5resetB7v160006EPS4_, symObjAddr: 0x45F8, symBinAddr: 0x10000E994, symSize: 0x78 }
  - { offsetInCU: 0xFB5C, offset: 0x28DD9, size: 0x8, addend: 0x0, symName: __ZNSt3__122__hash_node_destructorINS_9allocatorINS_11__hash_nodeI4CardPvEEEEEclB7v160006EPS5_, symObjAddr: 0x4670, symBinAddr: 0x10000EA0C, symSize: 0x88 }
  - { offsetInCU: 0xFB91, offset: 0x28E0E, size: 0x8, addend: 0x0, symName: __ZNSt3__115__hash_iteratorIPNS_11__hash_nodeI4CardPvEEEC2B7v160006EPNS_16__hash_node_baseIS5_EEPKv, symObjAddr: 0x46F8, symBinAddr: 0x10000EA94, symSize: 0x24 }
  - { offsetInCU: 0xFBD9, offset: 0x28E56, size: 0x8, addend: 0x0, symName: __ZNSt3__14pairINS_15__hash_iteratorIPNS_11__hash_nodeI4CardPvEEEEbEC2B7v160006IS7_RbLS4_0EEEOT_OT0_, symObjAddr: 0x471C, symBinAddr: 0x10000EAB8, symSize: 0x38 }
  - { offsetInCU: 0xFC37, offset: 0x28EB4, size: 0x8, addend: 0x0, symName: __ZNSt3__14pairINS_21__hash_const_iteratorIPNS_11__hash_nodeI4CardPvEEEEbEC2B7v160006INS_15__hash_iteratorIS6_EEbLS4_0EEEONS0_IT_T0_EE, symObjAddr: 0x4754, symBinAddr: 0x10000EAF0, symSize: 0x44 }
  - { offsetInCU: 0xFC88, offset: 0x28F05, size: 0x8, addend: 0x0, symName: __ZNSt3__121__hash_const_iteratorIPNS_11__hash_nodeI4CardPvEEEC1B7v160006ERKNS_15__hash_iteratorIS5_EE, symObjAddr: 0x4798, symBinAddr: 0x10000EB34, symSize: 0x34 }
  - { offsetInCU: 0xFCC1, offset: 0x28F3E, size: 0x8, addend: 0x0, symName: __ZNSt3__121__hash_const_iteratorIPNS_11__hash_nodeI4CardPvEEEC2B7v160006ERKNS_15__hash_iteratorIS5_EE, symObjAddr: 0x47CC, symBinAddr: 0x10000EB68, symSize: 0x24 }
  - { offsetInCU: 0xFCFA, offset: 0x28F77, size: 0x8, addend: 0x0, symName: __ZNSt3__112__hash_tableI4Card8CardHashNS_8equal_toIS1_EENS_9allocatorIS1_EEE5beginEv, symObjAddr: 0x47F0, symBinAddr: 0x10000EB8C, symSize: 0x40 }
  - { offsetInCU: 0xFD22, offset: 0x28F9F, size: 0x8, addend: 0x0, symName: __ZNSt3__112__hash_tableI4Card8CardHashNS_8equal_toIS1_EENS_9allocatorIS1_EEE3endEv, symObjAddr: 0x4830, symBinAddr: 0x10000EBCC, symSize: 0x30 }
  - { offsetInCU: 0xFD4A, offset: 0x28FC7, size: 0x8, addend: 0x0, symName: __ZNSt3__16vectorI4CardNS_9allocatorIS1_EEEC2B7v160006Ev, symObjAddr: 0x4860, symBinAddr: 0x10000EBFC, symSize: 0x58 }
  - { offsetInCU: 0xFD79, offset: 0x28FF6, size: 0x8, addend: 0x0, symName: __ZNSt3__117__compressed_pairIP4CardNS_9allocatorIS1_EEEC1B7v160006IDnNS_18__default_init_tagEEEOT_OT0_, symObjAddr: 0x48B8, symBinAddr: 0x10000EC54, symSize: 0x3C }
  - { offsetInCU: 0xFDD1, offset: 0x2904E, size: 0x8, addend: 0x0, symName: __ZNSt3__117__compressed_pairIP4CardNS_9allocatorIS1_EEEC2B7v160006IDnNS_18__default_init_tagEEEOT_OT0_, symObjAddr: 0x4904, symBinAddr: 0x10000ECA0, symSize: 0x40 }
  - { offsetInCU: 0xFE29, offset: 0x290A6, size: 0x8, addend: 0x0, symName: __ZNSt3__122__compressed_pair_elemIP4CardLi0ELb0EEC2B7v160006IDnvEEOT_, symObjAddr: 0x4944, symBinAddr: 0x10000ECE0, symSize: 0x1C }
  - { offsetInCU: 0xFE6B, offset: 0x290E8, size: 0x8, addend: 0x0, symName: __ZNSt3__122__compressed_pair_elemINS_9allocatorI4CardEELi1ELb1EEC2B7v160006ENS_18__default_init_tagE, symObjAddr: 0x4960, symBinAddr: 0x10000ECFC, symSize: 0x2C }
  - { offsetInCU: 0xFEA0, offset: 0x2911D, size: 0x8, addend: 0x0, symName: __ZNSt3__19allocatorI4CardEC2B7v160006Ev, symObjAddr: 0x498C, symBinAddr: 0x10000ED28, symSize: 0x2C }
  - { offsetInCU: 0xFECA, offset: 0x29147, size: 0x8, addend: 0x0, symName: __ZNSt3__116__non_trivial_ifILb1ENS_9allocatorI4CardEEEC2B7v160006Ev, symObjAddr: 0x49B8, symBinAddr: 0x10000ED54, symSize: 0x14 }
  - { offsetInCU: 0xFEF4, offset: 0x29171, size: 0x8, addend: 0x0, symName: __ZNSt3__16vectorI4CardNS_9allocatorIS1_EEED2B7v160006Ev, symObjAddr: 0x49CC, symBinAddr: 0x10000ED68, symSize: 0x44 }
  - { offsetInCU: 0xFF1E, offset: 0x2919B, size: 0x8, addend: 0x0, symName: __ZNSt3__16vectorI4CardNS_9allocatorIS1_EEE16__destroy_vectorC1ERS4_, symObjAddr: 0x4A10, symBinAddr: 0x10000EDAC, symSize: 0x34 }
  - { offsetInCU: 0xFF57, offset: 0x291D4, size: 0x8, addend: 0x0, symName: __ZNSt3__16vectorI4CardNS_9allocatorIS1_EEE16__destroy_vectorclB7v160006Ev, symObjAddr: 0x4A44, symBinAddr: 0x10000EDE0, symSize: 0x9C }
  - { offsetInCU: 0xFF7D, offset: 0x291FA, size: 0x8, addend: 0x0, symName: __ZNSt3__16vectorI4CardNS_9allocatorIS1_EEE16__destroy_vectorC2ERS4_, symObjAddr: 0x4AE0, symBinAddr: 0x10000EE7C, symSize: 0x20 }
  - { offsetInCU: 0xFFB6, offset: 0x29233, size: 0x8, addend: 0x0, symName: __ZNKSt3__16vectorI4CardNS_9allocatorIS1_EEE17__annotate_deleteB7v160006Ev, symObjAddr: 0x4B00, symBinAddr: 0x10000EE9C, symSize: 0xD4 }
  - { offsetInCU: 0xFFDC, offset: 0x29259, size: 0x8, addend: 0x0, symName: __ZNSt3__16vectorI4CardNS_9allocatorIS1_EEE7__clearB7v160006Ev, symObjAddr: 0x4BE4, symBinAddr: 0x10000EF80, symSize: 0x28 }
  - { offsetInCU: 0x10002, offset: 0x2927F, size: 0x8, addend: 0x0, symName: __ZNSt3__116allocator_traitsINS_9allocatorI4CardEEE10deallocateB7v160006ERS3_PS2_m, symObjAddr: 0x4C0C, symBinAddr: 0x10000EFA8, symSize: 0x34 }
  - { offsetInCU: 0x10044, offset: 0x292C1, size: 0x8, addend: 0x0, symName: __ZNSt3__16vectorI4CardNS_9allocatorIS1_EEE7__allocB7v160006Ev, symObjAddr: 0x4C40, symBinAddr: 0x10000EFDC, symSize: 0x28 }
  - { offsetInCU: 0x1006A, offset: 0x292E7, size: 0x8, addend: 0x0, symName: __ZNKSt3__16vectorI4CardNS_9allocatorIS1_EEE8capacityB7v160006Ev, symObjAddr: 0x4C68, symBinAddr: 0x10000F004, symSize: 0x40 }
  - { offsetInCU: 0x10090, offset: 0x2930D, size: 0x8, addend: 0x0, symName: __ZNKSt3__16vectorI4CardNS_9allocatorIS1_EEE31__annotate_contiguous_containerB7v160006EPKvS6_S6_S6_, symObjAddr: 0x4CA8, symBinAddr: 0x10000F044, symSize: 0x20 }
  - { offsetInCU: 0x100E2, offset: 0x2935F, size: 0x8, addend: 0x0, symName: __ZNKSt3__16vectorI4CardNS_9allocatorIS1_EEE4dataB7v160006Ev, symObjAddr: 0x4CC8, symBinAddr: 0x10000F064, symSize: 0x28 }
  - { offsetInCU: 0x10108, offset: 0x29385, size: 0x8, addend: 0x0, symName: __ZNKSt3__16vectorI4CardNS_9allocatorIS1_EEE4sizeB7v160006Ev, symObjAddr: 0x4CF0, symBinAddr: 0x10000F08C, symSize: 0x28 }
  - { offsetInCU: 0x1012E, offset: 0x293AB, size: 0x8, addend: 0x0, symName: __ZNSt3__16vectorI4CardNS_9allocatorIS1_EEE22__base_destruct_at_endB7v160006EPS1_, symObjAddr: 0x4D2C, symBinAddr: 0x10000F0C8, symSize: 0x8C }
  - { offsetInCU: 0x10172, offset: 0x293EF, size: 0x8, addend: 0x0, symName: __ZNSt3__116allocator_traitsINS_9allocatorI4CardEEE7destroyB7v160006IS2_vEEvRS3_PT_, symObjAddr: 0x4DB8, symBinAddr: 0x10000F154, symSize: 0x2C }
  - { offsetInCU: 0x101AF, offset: 0x2942C, size: 0x8, addend: 0x0, symName: __ZNSt3__19allocatorI4CardE7destroyB7v160006EPS1_, symObjAddr: 0x4DE4, symBinAddr: 0x10000F180, symSize: 0x14 }
  - { offsetInCU: 0x101E3, offset: 0x29460, size: 0x8, addend: 0x0, symName: __ZNSt3__19allocatorI4CardE10deallocateB7v160006EPS1_m, symObjAddr: 0x4DF8, symBinAddr: 0x10000F194, symSize: 0x44 }
  - { offsetInCU: 0x10225, offset: 0x294A2, size: 0x8, addend: 0x0, symName: __ZNSt3__117__compressed_pairIP4CardNS_9allocatorIS1_EEE6secondB7v160006Ev, symObjAddr: 0x4E3C, symBinAddr: 0x10000F1D8, symSize: 0x24 }
  - { offsetInCU: 0x1024B, offset: 0x294C8, size: 0x8, addend: 0x0, symName: __ZNSt3__122__compressed_pair_elemINS_9allocatorI4CardEELi1ELb1EE5__getB7v160006Ev, symObjAddr: 0x4E60, symBinAddr: 0x10000F1FC, symSize: 0x14 }
  - { offsetInCU: 0x10271, offset: 0x294EE, size: 0x8, addend: 0x0, symName: __ZNKSt3__16vectorI4CardNS_9allocatorIS1_EEE9__end_capB7v160006Ev, symObjAddr: 0x4E74, symBinAddr: 0x10000F210, symSize: 0x28 }
  - { offsetInCU: 0x10297, offset: 0x29514, size: 0x8, addend: 0x0, symName: __ZNKSt3__117__compressed_pairIP4CardNS_9allocatorIS1_EEE5firstB7v160006Ev, symObjAddr: 0x4E9C, symBinAddr: 0x10000F238, symSize: 0x24 }
  - { offsetInCU: 0x102BD, offset: 0x2953A, size: 0x8, addend: 0x0, symName: __ZNKSt3__122__compressed_pair_elemIP4CardLi0ELb0EE5__getB7v160006Ev, symObjAddr: 0x4EC0, symBinAddr: 0x10000F25C, symSize: 0x14 }
  - { offsetInCU: 0x102E3, offset: 0x29560, size: 0x8, addend: 0x0, symName: __ZNSt3__16vectorI4CardNS_9allocatorIS1_EEE9__end_capB7v160006Ev, symObjAddr: 0x4ED4, symBinAddr: 0x10000F270, symSize: 0x28 }
  - { offsetInCU: 0x10309, offset: 0x29586, size: 0x8, addend: 0x0, symName: __ZNSt3__16vectorI4CardNS_9allocatorIS1_EEE22__construct_one_at_endB7v160006IJRKS1_EEEvDpOT_, symObjAddr: 0x4EFC, symBinAddr: 0x10000F298, symSize: 0x90 }
  - { offsetInCU: 0x10358, offset: 0x295D5, size: 0x8, addend: 0x0, symName: __ZNSt3__16vectorI4CardNS_9allocatorIS1_EEE21__push_back_slow_pathIRKS1_EEvOT_, symObjAddr: 0x4F8C, symBinAddr: 0x10000F328, symSize: 0xD8 }
  - { offsetInCU: 0x103B6, offset: 0x29633, size: 0x8, addend: 0x0, symName: __ZNSt3__117__compressed_pairIP4CardNS_9allocatorIS1_EEE5firstB7v160006Ev, symObjAddr: 0x5064, symBinAddr: 0x10000F400, symSize: 0x24 }
  - { offsetInCU: 0x103DC, offset: 0x29659, size: 0x8, addend: 0x0, symName: __ZNSt3__122__compressed_pair_elemIP4CardLi0ELb0EE5__getB7v160006Ev, symObjAddr: 0x5088, symBinAddr: 0x10000F424, symSize: 0x14 }
  - { offsetInCU: 0x1041B, offset: 0x29698, size: 0x8, addend: 0x0, symName: __ZNSt3__16vectorI4CardNS_9allocatorIS1_EEE21_ConstructTransactionC1B7v160006ERS4_m, symObjAddr: 0x509C, symBinAddr: 0x10000F438, symSize: 0x3C }
  - { offsetInCU: 0x10463, offset: 0x296E0, size: 0x8, addend: 0x0, symName: __ZNSt3__116allocator_traitsINS_9allocatorI4CardEEE9constructB7v160006IS2_JRKS2_EvEEvRS3_PT_DpOT0_, symObjAddr: 0x50D8, symBinAddr: 0x10000F474, symSize: 0x34 }
  - { offsetInCU: 0x104BA, offset: 0x29737, size: 0x8, addend: 0x0, symName: __ZNSt3__16vectorI4CardNS_9allocatorIS1_EEE21_ConstructTransactionD1B7v160006Ev, symObjAddr: 0x510C, symBinAddr: 0x10000F4A8, symSize: 0x2C }
  - { offsetInCU: 0x104E4, offset: 0x29761, size: 0x8, addend: 0x0, symName: __ZNSt3__16vectorI4CardNS_9allocatorIS1_EEE21_ConstructTransactionC2B7v160006ERS4_m, symObjAddr: 0x5138, symBinAddr: 0x10000F4D4, symSize: 0x4C }
  - { offsetInCU: 0x1052C, offset: 0x297A9, size: 0x8, addend: 0x0, symName: __ZNSt3__19allocatorI4CardE9constructB7v160006IS1_JRKS1_EEEvPT_DpOT0_, symObjAddr: 0x5184, symBinAddr: 0x10000F520, symSize: 0x30 }
  - { offsetInCU: 0x10582, offset: 0x297FF, size: 0x8, addend: 0x0, symName: __ZNSt3__16vectorI4CardNS_9allocatorIS1_EEE21_ConstructTransactionD2B7v160006Ev, symObjAddr: 0x51B4, symBinAddr: 0x10000F550, symSize: 0x20 }
  - { offsetInCU: 0x105AC, offset: 0x29829, size: 0x8, addend: 0x0, symName: __ZNKSt3__16vectorI4CardNS_9allocatorIS1_EEE11__recommendB7v160006Em, symObjAddr: 0x51D4, symBinAddr: 0x10000F570, symSize: 0xB4 }
  - { offsetInCU: 0x10601, offset: 0x2987E, size: 0x8, addend: 0x0, symName: __ZNSt3__114__split_bufferI4CardRNS_9allocatorIS1_EEEC1EmmS4_, symObjAddr: 0x5288, symBinAddr: 0x10000F624, symSize: 0x44 }
  - { offsetInCU: 0x10657, offset: 0x298D4, size: 0x8, addend: 0x0, symName: __ZNSt3__114__split_bufferI4CardRNS_9allocatorIS1_EEED1Ev, symObjAddr: 0x53E4, symBinAddr: 0x10000F780, symSize: 0x2C }
  - { offsetInCU: 0x10683, offset: 0x29900, size: 0x8, addend: 0x0, symName: __ZNKSt3__16vectorI4CardNS_9allocatorIS1_EEE8max_sizeEv, symObjAddr: 0x5410, symBinAddr: 0x10000F7AC, symSize: 0x60 }
  - { offsetInCU: 0x106AB, offset: 0x29928, size: 0x8, addend: 0x0, symName: __ZNKSt3__16vectorI4CardNS_9allocatorIS1_EEE20__throw_length_errorB7v160006Ev, symObjAddr: 0x5470, symBinAddr: 0x10000F80C, symSize: 0x1C }
  - { offsetInCU: 0x106DB, offset: 0x29958, size: 0x8, addend: 0x0, symName: __ZNSt3__116allocator_traitsINS_9allocatorI4CardEEE8max_sizeB7v160006IS3_vEEmRKS3_, symObjAddr: 0x548C, symBinAddr: 0x10000F828, symSize: 0x24 }
  - { offsetInCU: 0x10709, offset: 0x29986, size: 0x8, addend: 0x0, symName: __ZNKSt3__16vectorI4CardNS_9allocatorIS1_EEE7__allocB7v160006Ev, symObjAddr: 0x54B0, symBinAddr: 0x10000F84C, symSize: 0x28 }
  - { offsetInCU: 0x1072F, offset: 0x299AC, size: 0x8, addend: 0x0, symName: __ZNKSt3__19allocatorI4CardE8max_sizeB7v160006Ev, symObjAddr: 0x54EC, symBinAddr: 0x10000F874, symSize: 0x18 }
  - { offsetInCU: 0x10755, offset: 0x299D2, size: 0x8, addend: 0x0, symName: __ZNKSt3__117__compressed_pairIP4CardNS_9allocatorIS1_EEE6secondB7v160006Ev, symObjAddr: 0x5504, symBinAddr: 0x10000F88C, symSize: 0x24 }
  - { offsetInCU: 0x1077B, offset: 0x299F8, size: 0x8, addend: 0x0, symName: __ZNKSt3__122__compressed_pair_elemINS_9allocatorI4CardEELi1ELb1EE5__getB7v160006Ev, symObjAddr: 0x5528, symBinAddr: 0x10000F8B0, symSize: 0x14 }
  - { offsetInCU: 0x107A1, offset: 0x29A1E, size: 0x8, addend: 0x0, symName: __ZNSt3__114__split_bufferI4CardRNS_9allocatorIS1_EEEC2EmmS4_, symObjAddr: 0x5628, symBinAddr: 0x10000F8C4, symSize: 0xE0 }
  - { offsetInCU: 0x10814, offset: 0x29A91, size: 0x8, addend: 0x0, symName: __ZNSt3__117__compressed_pairIP4CardRNS_9allocatorIS1_EEEC1B7v160006IDnS5_EEOT_OT0_, symObjAddr: 0x5708, symBinAddr: 0x10000F9A4, symSize: 0x3C }
  - { offsetInCU: 0x1086C, offset: 0x29AE9, size: 0x8, addend: 0x0, symName: __ZNSt3__114__split_bufferI4CardRNS_9allocatorIS1_EEE7__allocB7v160006Ev, symObjAddr: 0x5784, symBinAddr: 0x10000FA20, symSize: 0x28 }
  - { offsetInCU: 0x10892, offset: 0x29B0F, size: 0x8, addend: 0x0, symName: __ZNSt3__114__split_bufferI4CardRNS_9allocatorIS1_EEE9__end_capB7v160006Ev, symObjAddr: 0x57AC, symBinAddr: 0x10000FA48, symSize: 0x28 }
  - { offsetInCU: 0x108B8, offset: 0x29B35, size: 0x8, addend: 0x0, symName: __ZNSt3__117__compressed_pairIP4CardRNS_9allocatorIS1_EEEC2B7v160006IDnS5_EEOT_OT0_, symObjAddr: 0x57D4, symBinAddr: 0x10000FA70, symSize: 0x48 }
  - { offsetInCU: 0x10910, offset: 0x29B8D, size: 0x8, addend: 0x0, symName: __ZNSt3__122__compressed_pair_elemIRNS_9allocatorI4CardEELi1ELb0EEC2B7v160006IS4_vEEOT_, symObjAddr: 0x581C, symBinAddr: 0x10000FAB8, symSize: 0x20 }
  - { offsetInCU: 0x10952, offset: 0x29BCF, size: 0x8, addend: 0x0, symName: __ZNSt3__19allocatorI4CardE8allocateB7v160006Em, symObjAddr: 0x583C, symBinAddr: 0x10000FAD8, symSize: 0x5C }
  - { offsetInCU: 0x10986, offset: 0x29C03, size: 0x8, addend: 0x0, symName: __ZNSt3__117__compressed_pairIP4CardRNS_9allocatorIS1_EEE6secondB7v160006Ev, symObjAddr: 0x5898, symBinAddr: 0x10000FB34, symSize: 0x28 }
  - { offsetInCU: 0x109AC, offset: 0x29C29, size: 0x8, addend: 0x0, symName: __ZNSt3__122__compressed_pair_elemIRNS_9allocatorI4CardEELi1ELb0EE5__getB7v160006Ev, symObjAddr: 0x58C0, symBinAddr: 0x10000FB5C, symSize: 0x18 }
  - { offsetInCU: 0x109D2, offset: 0x29C4F, size: 0x8, addend: 0x0, symName: __ZNSt3__117__compressed_pairIP4CardRNS_9allocatorIS1_EEE5firstB7v160006Ev, symObjAddr: 0x58D8, symBinAddr: 0x10000FB74, symSize: 0x24 }
  - { offsetInCU: 0x109F8, offset: 0x29C75, size: 0x8, addend: 0x0, symName: __ZNSt3__116reverse_iteratorIP4CardEC1B7v160006ES2_, symObjAddr: 0x5974, symBinAddr: 0x10000FC10, symSize: 0x34 }
  - { offsetInCU: 0x10A30, offset: 0x29CAD, size: 0x8, addend: 0x0, symName: __ZNKSt3__116reverse_iteratorIP4CardE4baseB7v160006Ev, symObjAddr: 0x59A8, symBinAddr: 0x10000FC44, symSize: 0x18 }
  - { offsetInCU: 0x10A56, offset: 0x29CD3, size: 0x8, addend: 0x0, symName: __ZNKSt3__16vectorI4CardNS_9allocatorIS1_EEE14__annotate_newB7v160006Em, symObjAddr: 0x59FC, symBinAddr: 0x10000FC98, symSize: 0xC8 }
  - { offsetInCU: 0x10AAE, offset: 0x29D2B, size: 0x8, addend: 0x0, symName: __ZNKSt3__111__move_loopINS_17_ClassicAlgPolicyEEclB7v160006INS_16reverse_iteratorIP4CardEES7_S7_EENS_4pairIT_T1_EES9_T0_SA_, symObjAddr: 0x5DC4, symBinAddr: 0x100010060, symSize: 0xA8 }
  - { offsetInCU: 0x10B19, offset: 0x29D96, size: 0x8, addend: 0x0, symName: __ZNSt3__18_IterOpsINS_17_ClassicAlgPolicyEE11__iter_moveB7v160006IRNS_16reverse_iteratorIP4CardEEEENS_9enable_ifIXsr12is_referenceIDTdeclsr3stdE7declvalIRT_EEEEE5valueEDTclsr3stdE4movedeclsr3stdE7declvalISB_EEEEE4typeEOSA_, symObjAddr: 0x6000, symBinAddr: 0x10001029C, symSize: 0x28 }
  - { offsetInCU: 0x10B45, offset: 0x29DC2, size: 0x8, addend: 0x0, symName: __ZNKSt3__116reverse_iteratorIP4CardEdeB7v160006Ev, symObjAddr: 0x6028, symBinAddr: 0x1000102C4, symSize: 0x28 }
  - { offsetInCU: 0x10B79, offset: 0x29DF6, size: 0x8, addend: 0x0, symName: __ZNSt3__116reverse_iteratorIP4CardEppB7v160006Ev, symObjAddr: 0x6050, symBinAddr: 0x1000102EC, symSize: 0x20 }
  - { offsetInCU: 0x10B9F, offset: 0x29E1C, size: 0x8, addend: 0x0, symName: __ZNSt3__18_IterOpsINS_17_ClassicAlgPolicyEE25__validate_iter_referenceB7v160006IRNS_16reverse_iteratorIP4CardEEEEvv, symObjAddr: 0x6070, symBinAddr: 0x10001030C, symSize: 0x4 }
  - { offsetInCU: 0x10BBD, offset: 0x29E3A, size: 0x8, addend: 0x0, symName: __ZNSt3__118__unwrap_iter_implINS_16reverse_iteratorIP4CardEELb0EE8__unwrapB7v160006ES4_, symObjAddr: 0x6074, symBinAddr: 0x100010310, symSize: 0x24 }
  - { offsetInCU: 0x10BE5, offset: 0x29E62, size: 0x8, addend: 0x0, symName: __ZNSt3__14pairINS_16reverse_iteratorIP4CardEES4_EC1B7v160006IS4_S4_LPv0EEEOT_OT0_, symObjAddr: 0x6098, symBinAddr: 0x100010334, symSize: 0x3C }
  - { offsetInCU: 0x10C43, offset: 0x29EC0, size: 0x8, addend: 0x0, symName: __ZNSt3__14pairINS_16reverse_iteratorIP4CardEES4_EC2B7v160006IS4_S4_LPv0EEEOT_OT0_, symObjAddr: 0x60D4, symBinAddr: 0x100010370, symSize: 0x34 }
  - { offsetInCU: 0x10CA1, offset: 0x29F1E, size: 0x8, addend: 0x0, symName: __ZNSt3__118__unwrap_iter_implINS_16reverse_iteratorIP4CardEELb0EE8__rewrapB7v160006ES4_S4_, symObjAddr: 0x6108, symBinAddr: 0x1000103A4, symSize: 0x2C }
  - { offsetInCU: 0x10CCF, offset: 0x29F4C, size: 0x8, addend: 0x0, symName: __ZNSt3__116reverse_iteratorIP4CardEC2B7v160006ES2_, symObjAddr: 0x6134, symBinAddr: 0x1000103D0, symSize: 0x28 }
  - { offsetInCU: 0x10D07, offset: 0x29F84, size: 0x8, addend: 0x0, symName: __ZNSt3__114__split_bufferI4CardRNS_9allocatorIS1_EEED2Ev, symObjAddr: 0x615C, symBinAddr: 0x1000103F8, symSize: 0x8C }
  - { offsetInCU: 0x10D33, offset: 0x29FB0, size: 0x8, addend: 0x0, symName: __ZNSt3__114__split_bufferI4CardRNS_9allocatorIS1_EEE5clearB7v160006Ev, symObjAddr: 0x61E8, symBinAddr: 0x100010484, symSize: 0x28 }
  - { offsetInCU: 0x10D59, offset: 0x29FD6, size: 0x8, addend: 0x0, symName: __ZNKSt3__114__split_bufferI4CardRNS_9allocatorIS1_EEE8capacityB7v160006Ev, symObjAddr: 0x6210, symBinAddr: 0x1000104AC, symSize: 0x40 }
  - { offsetInCU: 0x10D7F, offset: 0x29FFC, size: 0x8, addend: 0x0, symName: __ZNSt3__114__split_bufferI4CardRNS_9allocatorIS1_EEE17__destruct_at_endB7v160006EPS1_, symObjAddr: 0x6250, symBinAddr: 0x1000104EC, symSize: 0x2C }
  - { offsetInCU: 0x10DB3, offset: 0x2A030, size: 0x8, addend: 0x0, symName: __ZNSt3__114__split_bufferI4CardRNS_9allocatorIS1_EEE17__destruct_at_endB7v160006EPS1_NS_17integral_constantIbLb0EEE, symObjAddr: 0x627C, symBinAddr: 0x100010518, symSize: 0x80 }
  - { offsetInCU: 0x10DF4, offset: 0x2A071, size: 0x8, addend: 0x0, symName: __ZNKSt3__114__split_bufferI4CardRNS_9allocatorIS1_EEE9__end_capB7v160006Ev, symObjAddr: 0x62FC, symBinAddr: 0x100010598, symSize: 0x28 }
  - { offsetInCU: 0x10E1A, offset: 0x2A097, size: 0x8, addend: 0x0, symName: __ZNKSt3__117__compressed_pairIP4CardRNS_9allocatorIS1_EEE5firstB7v160006Ev, symObjAddr: 0x6324, symBinAddr: 0x1000105C0, symSize: 0x24 }
  - { offsetInCU: 0x10E40, offset: 0x2A0BD, size: 0x8, addend: 0x0, symName: __ZNSt3__16vectorI4CardNS_9allocatorIS1_EEE11__make_iterB7v160006EPS1_, symObjAddr: 0x6348, symBinAddr: 0x1000105E4, symSize: 0x34 }
  - { offsetInCU: 0x10E75, offset: 0x2A0F2, size: 0x8, addend: 0x0, symName: __ZNSt3__111__wrap_iterIP4CardEC1B7v160006EPKvS2_, symObjAddr: 0x637C, symBinAddr: 0x100010618, symSize: 0x3C }
  - { offsetInCU: 0x10EBB, offset: 0x2A138, size: 0x8, addend: 0x0, symName: __ZNSt3__111__wrap_iterIP4CardEC2B7v160006EPKvS2_, symObjAddr: 0x63B8, symBinAddr: 0x100010654, symSize: 0x24 }
  - { offsetInCU: 0x10F01, offset: 0x2A17E, size: 0x8, addend: 0x0, symName: __ZNSt3__18_IterOpsINS_17_ClassicAlgPolicyEE4nextB7v160006INS_11__wrap_iterIP4CardEEEET_S8_S8_, symObjAddr: 0x6518, symBinAddr: 0x1000107B4, symSize: 0x20 }
  - { offsetInCU: 0x10F38, offset: 0x2A1B5, size: 0x8, addend: 0x0, symName: __ZNSt3__124uniform_int_distributionIlEC1Ev, symObjAddr: 0x6580, symBinAddr: 0x10001081C, symSize: 0x3C }
  - { offsetInCU: 0x10F62, offset: 0x2A1DF, size: 0x8, addend: 0x0, symName: __ZNSt3__111__wrap_iterIP4CardEmmB7v160006Ev, symObjAddr: 0x65BC, symBinAddr: 0x100010858, symSize: 0x20 }
  - { offsetInCU: 0x10F88, offset: 0x2A205, size: 0x8, addend: 0x0, symName: __ZNSt3__124uniform_int_distributionIlE10param_typeC1Ell, symObjAddr: 0x6798, symBinAddr: 0x100010A34, symSize: 0x3C }
  - { offsetInCU: 0x10FD3, offset: 0x2A250, size: 0x8, addend: 0x0, symName: __ZNSt3__18_IterOpsINS_17_ClassicAlgPolicyEE9iter_swapB7v160006IRNS_11__wrap_iterIP4CardEES7_EEvOT_OT0_, symObjAddr: 0x67D4, symBinAddr: 0x100010A70, symSize: 0x44 }
  - { offsetInCU: 0x11016, offset: 0x2A293, size: 0x8, addend: 0x0, symName: __ZNKSt3__111__wrap_iterIP4CardEplB7v160006El, symObjAddr: 0x6818, symBinAddr: 0x100010AB4, symSize: 0x3C }
  - { offsetInCU: 0x11058, offset: 0x2A2D5, size: 0x8, addend: 0x0, symName: __ZNSt3__124uniform_int_distributionIlEC1Ell, symObjAddr: 0x6854, symBinAddr: 0x100010AF0, symSize: 0x3C }
  - { offsetInCU: 0x1109E, offset: 0x2A31B, size: 0x8, addend: 0x0, symName: __ZNSt3__124uniform_int_distributionIlEC2Ell, symObjAddr: 0x6890, symBinAddr: 0x100010B2C, symSize: 0x3C }
  - { offsetInCU: 0x110E4, offset: 0x2A361, size: 0x8, addend: 0x0, symName: __ZNKSt3__124uniform_int_distributionIlE10param_type1bEv, symObjAddr: 0x68CC, symBinAddr: 0x100010B68, symSize: 0x18 }
  - { offsetInCU: 0x1110A, offset: 0x2A387, size: 0x8, addend: 0x0, symName: __ZNKSt3__124uniform_int_distributionIlE10param_type1aEv, symObjAddr: 0x68E4, symBinAddr: 0x100010B80, symSize: 0x18 }
  - { offsetInCU: 0x11130, offset: 0x2A3AD, size: 0x8, addend: 0x0, symName: __ZNSt3__125__independent_bits_engineINS_23mersenne_twister_engineIjLm32ELm624ELm397ELm31ELj2567483615ELm11ELj4294967295ELm7ELj2636928640ELm15ELj4022730752ELm18ELj1812433253EEEmEC1ERS2_m, symObjAddr: 0x68FC, symBinAddr: 0x100010B98, symSize: 0x3C }
  - { offsetInCU: 0x11177, offset: 0x2A3F4, size: 0x8, addend: 0x0, symName: __ZNSt3__125__independent_bits_engineINS_23mersenne_twister_engineIjLm32ELm624ELm397ELm31ELj2567483615ELm11ELj4294967295ELm7ELj2636928640ELm15ELj4022730752ELm18ELj1812433253EEEmEclEv, symObjAddr: 0x6938, symBinAddr: 0x100010BD4, symSize: 0x24 }
  - { offsetInCU: 0x1119D, offset: 0x2A41A, size: 0x8, addend: 0x0, symName: __ZNSt3__114numeric_limitsImE3maxB7v160006Ev, symObjAddr: 0x69B0, symBinAddr: 0x100010C4C, symSize: 0x14 }
  - { offsetInCU: 0x111B1, offset: 0x2A42E, size: 0x8, addend: 0x0, symName: __ZNSt3__125__independent_bits_engineINS_23mersenne_twister_engineIjLm32ELm624ELm397ELm31ELj2567483615ELm11ELj4294967295ELm7ELj2636928640ELm15ELj4022730752ELm18ELj1812433253EEEmEC2ERS2_m, symObjAddr: 0x69C4, symBinAddr: 0x100010C60, symSize: 0x264 }
  - { offsetInCU: 0x111F8, offset: 0x2A475, size: 0x8, addend: 0x0, symName: __ZNSt3__125__independent_bits_engineINS_23mersenne_twister_engineIjLm32ELm624ELm397ELm31ELj2567483615ELm11ELj4294967295ELm7ELj2636928640ELm15ELj4022730752ELm18ELj1812433253EEEmE6__evalENS_17integral_constantIbLb1EEE, symObjAddr: 0x6C28, symBinAddr: 0x100010EC4, symSize: 0x1F0 }
  - { offsetInCU: 0x112B6, offset: 0x2A533, size: 0x8, addend: 0x0, symName: __ZNSt3__123mersenne_twister_engineIjLm32ELm624ELm397ELm31ELj2567483615ELm11ELj4294967295ELm7ELj2636928640ELm15ELj4022730752ELm18ELj1812433253EE3minB7v160006Ev, symObjAddr: 0x6F64, symBinAddr: 0x1000110B4, symSize: 0x8 }
  - { offsetInCU: 0x112CA, offset: 0x2A547, size: 0x8, addend: 0x0, symName: __ZNSt3__123__libcpp_numeric_limitsImLb1EE3maxB7v160006Ev, symObjAddr: 0x6FEC, symBinAddr: 0x1000110BC, symSize: 0x8 }
  - { offsetInCU: 0x112DE, offset: 0x2A55B, size: 0x8, addend: 0x0, symName: __ZNSt3__124uniform_int_distributionIlE10param_typeC2Ell, symObjAddr: 0x6FF4, symBinAddr: 0x1000110C4, symSize: 0x2C }
  - { offsetInCU: 0x11324, offset: 0x2A5A1, size: 0x8, addend: 0x0, symName: __ZNSt3__111__wrap_iterIP4CardEpLB7v160006El, symObjAddr: 0x70C4, symBinAddr: 0x100011194, symSize: 0x30 }
  - { offsetInCU: 0x3F, offset: 0x2A74F, size: 0x8, addend: 0x0, symName: _SUIT_COLORS, symObjAddr: 0x95BB0, symBinAddr: 0x100028008, symSize: 0x0 }
  - { offsetInCU: 0x580F, offset: 0x2FF1F, size: 0x8, addend: 0x0, symName: __ZNSt3__114in_place_indexILm0EEE, symObjAddr: 0xFC10, symBinAddr: 0x100022C40, symSize: 0x0 }
  - { offsetInCU: 0x5855, offset: 0x2FF65, size: 0x8, addend: 0x0, symName: __ZNSt3__114in_place_indexILm1EEE, symObjAddr: 0xFC11, symBinAddr: 0x100022C41, symSize: 0x0 }
  - { offsetInCU: 0x589B, offset: 0x2FFAB, size: 0x8, addend: 0x0, symName: __ZNSt3__1L19piecewise_constructE, symObjAddr: 0xFC83, symBinAddr: 0x100022CB3, symSize: 0x0 }
  - { offsetInCU: 0x5A55, offset: 0x30165, size: 0x8, addend: 0x0, symName: __ZNSt3__17advanceB7v160006INS_15__list_iteratorI4CardPvEEllvEEvRT_T0_, symObjAddr: 0x3A98, symBinAddr: 0x100013BB0, symSize: 0x50 }
  - { offsetInCU: 0x7966, offset: 0x32076, size: 0x8, addend: 0x0, symName: '__ZNSt3__110__function10__not_nullB7v160006IZ6filter4SuitE3$_0EEbRKT_', symObjAddr: 0x5168, symBinAddr: 0x100014FC8, symSize: 0x18 }
  - { offsetInCU: 0x7999, offset: 0x320A9, size: 0x8, addend: 0x0, symName: '__ZNSt3__110__function10__not_nullB7v160006IZ6filter5ColorE3$_1EEbRKT_', symObjAddr: 0x6CEC, symBinAddr: 0x100016A68, symSize: 0x18 }
  - { offsetInCU: 0xCB0D, offset: 0x3721D, size: 0x8, addend: 0x0, symName: __ZNSt3__1neB7v160006ERKNS_15__list_iteratorI4CardPvEES5_, symObjAddr: 0xA78, symBinAddr: 0x100011B80, symSize: 0x34 }
  - { offsetInCU: 0xCB4A, offset: 0x3725A, size: 0x8, addend: 0x0, symName: __ZNSt3__19transformB7v160006INS_21__list_const_iteratorI4CardPvEENS_20back_insert_iteratorINS_4listIiNS_9allocatorIiEEEEEEPDoFiRKS2_EEET0_T_SG_SF_T1_, symObjAddr: 0x1088, symBinAddr: 0x100012164, symSize: 0x98 }
  - { offsetInCU: 0xCBBB, offset: 0x372CB, size: 0x8, addend: 0x0, symName: __ZNSt3__113back_inserterB7v160006INS_4listIiNS_9allocatorIiEEEEEENS_20back_insert_iteratorIT_EERS6_, symObjAddr: 0x1178, symBinAddr: 0x1000121FC, symSize: 0x2C }
  - { offsetInCU: 0xCBF0, offset: 0x37300, size: 0x8, addend: 0x0, symName: __ZNSt3__119adjacent_differenceB7v160006INS_15__list_iteratorIiPvEENS_20back_insert_iteratorINS_4listIiNS_9allocatorIiEEEEEEPFiiiEEET0_T_SD_SC_T1_, symObjAddr: 0x11C8, symBinAddr: 0x10001224C, symSize: 0x108 }
  - { offsetInCU: 0xCC99, offset: 0x373A9, size: 0x8, addend: 0x0, symName: __ZNSt3__1eqB7v160006ERKNS_15__list_iteratorIiPvEES4_, symObjAddr: 0x13AC, symBinAddr: 0x100012430, symSize: 0x30 }
  - { offsetInCU: 0xCCD6, offset: 0x373E6, size: 0x8, addend: 0x0, symName: __ZNSt3__113adjacent_findB7v160006INS_15__list_iteratorIiPvEENS_12not_equal_toIvEEEET_S6_S6_T0_, symObjAddr: 0x13DC, symBinAddr: 0x100012460, symSize: 0x48 }
  - { offsetInCU: 0xCD30, offset: 0x37440, size: 0x8, addend: 0x0, symName: __ZNSt3__113adjacent_findB7v160006INS_21__list_const_iteratorI4CardPvEEPFbS2_S2_EEET_S7_S7_T0_, symObjAddr: 0x16A0, symBinAddr: 0x1000126E8, symSize: 0x50 }
  - { offsetInCU: 0xCD8A, offset: 0x3749A, size: 0x8, addend: 0x0, symName: __ZNSt3__14prevB7v160006INS_15__list_iteratorI4CardPvEEEENS_9enable_ifIXsr25__is_cpp17_input_iteratorIT_EE5valueES6_E4typeES6_NS_15iterator_traitsIS6_E15difference_typeE, symObjAddr: 0x1F5C, symBinAddr: 0x100012D94, symSize: 0x58 }
  - { offsetInCU: 0xCDCD, offset: 0x374DD, size: 0x8, addend: 0x0, symName: __ZNSt3__14nextB7v160006INS_15__list_iteratorI4CardPvEEEENS_9enable_ifIXsr25__is_cpp17_input_iteratorIT_EE5valueES6_E4typeES6_NS_15iterator_traitsIS6_E15difference_typeE, symObjAddr: 0x1FE8, symBinAddr: 0x100012DEC, symSize: 0x50 }
  - { offsetInCU: 0xCE10, offset: 0x37520, size: 0x8, addend: 0x0, symName: __ZNSt3__1neB7v160006ERKNS_15__list_iteratorINS_7variantIJ4Suit5ColorEEEPvEES8_, symObjAddr: 0x22B0, symBinAddr: 0x1000130B4, symSize: 0x34 }
  - { offsetInCU: 0xCE4D, offset: 0x3755D, size: 0x8, addend: 0x0, symName: '__ZNSt3__15visitB7v160006IZ18find_best_sandwich8CardDeckE3$_4JRKNS_7variantIJ4Suit5ColorEEEEvEEDcOT_DpOT0_', symObjAddr: 0x233C, symBinAddr: 0x100013114, symSize: 0x34 }
  - { offsetInCU: 0xCEA4, offset: 0x375B4, size: 0x8, addend: 0x0, symName: __ZNSt3__13getB7v160006ILm0E8CardDeckS1_EERKNS_13tuple_elementIXT_ENS_4pairIT0_T1_EEE4typeERKS6_, symObjAddr: 0x2370, symBinAddr: 0x100013148, symSize: 0x24 }
  - { offsetInCU: 0xCEEE, offset: 0x375FE, size: 0x8, addend: 0x0, symName: __ZNSt3__13getB7v160006ILm1E8CardDeckS1_EERKNS_13tuple_elementIXT_ENS_4pairIT0_T1_EEE4typeERKS6_, symObjAddr: 0x2394, symBinAddr: 0x10001316C, symSize: 0x24 }
  - { offsetInCU: 0xCF38, offset: 0x37648, size: 0x8, addend: 0x0, symName: __ZNSt3__110make_tupleB7v160006IJbi8CardDeckRS1_EEENS_5tupleIJDpNS_18__unwrap_ref_decayIT_E4typeEEEEDpOS5_, symObjAddr: 0x2490, symBinAddr: 0x10001323C, symSize: 0x50 }
  - { offsetInCU: 0xD6C7, offset: 0x37DD7, size: 0x8, addend: 0x0, symName: __ZNSt3__118__debug_db_erase_cB7v160006INS_10__list_impINS_7variantIJ4Suit5ColorEEENS_9allocatorIS5_EEEEEEvPT_, symObjAddr: 0x2720, symBinAddr: 0x1000134CC, symSize: 0x10 }
  - { offsetInCU: 0xD6F8, offset: 0x37E08, size: 0x8, addend: 0x0, symName: __ZNSt3__125__debug_db_invalidate_allB7v160006INS_10__list_impINS_7variantIJ4Suit5ColorEEENS_9allocatorIS5_EEEEEEvPT_, symObjAddr: 0x28A0, symBinAddr: 0x10001364C, symSize: 0x10 }
  - { offsetInCU: 0xD75C, offset: 0x37E6C, size: 0x8, addend: 0x0, symName: __ZNSt3__118__debug_db_erase_cB7v160006INS_10__list_impIiNS_9allocatorIiEEEEEEvPT_, symObjAddr: 0x317C, symBinAddr: 0x1000138E8, symSize: 0x10 }
  - { offsetInCU: 0xD78D, offset: 0x37E9D, size: 0x8, addend: 0x0, symName: __ZNSt3__125__debug_db_invalidate_allB7v160006INS_10__list_impIiNS_9allocatorIiEEEEEEvPT_, symObjAddr: 0x32FC, symBinAddr: 0x100013A68, symSize: 0x10 }
  - { offsetInCU: 0xD7F2, offset: 0x37F02, size: 0x8, addend: 0x0, symName: __ZNSt3__121__convert_to_integralB7v160006El, symObjAddr: 0x3AE8, symBinAddr: 0x100013C00, symSize: 0x14 }
  - { offsetInCU: 0xD81D, offset: 0x37F2D, size: 0x8, addend: 0x0, symName: __ZNSt3__19__advanceB7v160006INS_15__list_iteratorI4CardPvEEEEvRT_NS_15iterator_traitsIS5_E15difference_typeENS_26bidirectional_iterator_tagE, symObjAddr: 0x3AFC, symBinAddr: 0x100013C14, symSize: 0xA4 }
  - { offsetInCU: 0xD868, offset: 0x37F78, size: 0x8, addend: 0x0, symName: __ZNSt3__120__throw_if_valuelessB7v160006IJRKNS_7variantIJ4Suit5ColorEEEEEEvDpOT_, symObjAddr: 0x3D38, symBinAddr: 0x100013CB8, symSize: 0x44 }
  - { offsetInCU: 0xD8AC, offset: 0x37FBC, size: 0x8, addend: 0x0, symName: __ZNSt3__112__as_variantB7v160006IJ4Suit5ColorEEERKNS_7variantIJDpT_EEES8_, symObjAddr: 0x3DB8, symBinAddr: 0x100013D38, symSize: 0x14 }
  - { offsetInCU: 0xD8EB, offset: 0x37FFB, size: 0x8, addend: 0x0, symName: __ZNSt3__126__throw_bad_variant_accessB7v160006Ev, symObjAddr: 0x3DF4, symBinAddr: 0x100013D74, symSize: 0x38 }
  - { offsetInCU: 0xD94C, offset: 0x3805C, size: 0x8, addend: 0x0, symName: '__ZNSt3__18__invokeB7v160006INS_16__variant_detail12__visitation9__variant15__value_visitorIZ18find_best_sandwich8CardDeckE3$_4EEJRKNS1_5__altILm0E4SuitEEEEEDTclclsr3stdE7declvalIT_EEspclsr3stdE7declvalIT0_EEEEOSD_DpOSE_', symObjAddr: 0x411C, symBinAddr: 0x10001409C, symSize: 0x2C }
  - { offsetInCU: 0xD99A, offset: 0x380AA, size: 0x8, addend: 0x0, symName: '__ZNSt3__18__invokeB7v160006IZ18find_best_sandwich8CardDeckE3$_4JRK4SuitEEEDTclclsr3stdE7declvalIT_EEspclsr3stdE7declvalIT0_EEEEOS6_DpOS7_', symObjAddr: 0x41AC, symBinAddr: 0x10001412C, symSize: 0x2C }
  - { offsetInCU: 0xD9E8, offset: 0x380F8, size: 0x8, addend: 0x0, symName: __ZNSt3__17copy_ifB7v160006INS_15__list_iteratorI4CardPvEENS_20back_insert_iteratorI8CardDeckEENS_8functionIFbS2_EEEEET0_T_SC_SB_T1_, symObjAddr: 0x42C0, symBinAddr: 0x100014240, symSize: 0x10C }
  - { offsetInCU: 0xDA5A, offset: 0x3816A, size: 0x8, addend: 0x0, symName: __ZNSt3__113back_inserterB7v160006I8CardDeckEENS_20back_insert_iteratorIT_EERS3_, symObjAddr: 0x43CC, symBinAddr: 0x10001434C, symSize: 0x2C }
  - { offsetInCU: 0xDA90, offset: 0x381A0, size: 0x8, addend: 0x0, symName: __ZNSt3__125__throw_bad_function_callB7v160006Ev, symObjAddr: 0x4560, symBinAddr: 0x1000144E0, symSize: 0x38 }
  - { offsetInCU: 0xDADF, offset: 0x381EF, size: 0x8, addend: 0x0, symName: '__ZNSt3__18__invokeB7v160006INS_16__variant_detail12__visitation9__variant15__value_visitorIZ18find_best_sandwich8CardDeckE3$_4EEJRKNS1_5__altILm1E5ColorEEEEEDTclclsr3stdE7declvalIT_EEspclsr3stdE7declvalIT0_EEEEOSD_DpOSE_', symObjAddr: 0x47E0, symBinAddr: 0x100014760, symSize: 0x2C }
  - { offsetInCU: 0xDB2D, offset: 0x3823D, size: 0x8, addend: 0x0, symName: '__ZNSt3__18__invokeB7v160006IZ18find_best_sandwich8CardDeckE3$_4JRK5ColorEEEDTclclsr3stdE7declvalIT_EEspclsr3stdE7declvalIT0_EEEEOS6_DpOS7_', symObjAddr: 0x4870, symBinAddr: 0x1000147F0, symSize: 0x2C }
  - { offsetInCU: 0xDC19, offset: 0x38329, size: 0x8, addend: 0x0, symName: __ZNSt3__13getB7v160006ILm0EJbi8CardDeckS1_EEERNS_13tuple_elementIXT_ENS_5tupleIJDpT0_EEEE4typeERS6_, symObjAddr: 0x4DA0, symBinAddr: 0x100014C60, symSize: 0x24 }
  - { offsetInCU: 0xDC6A, offset: 0x3837A, size: 0x8, addend: 0x0, symName: __ZNSt3__13getB7v160006ILm1EJbi8CardDeckS1_EEERNS_13tuple_elementIXT_ENS_5tupleIJDpT0_EEEE4typeERS6_, symObjAddr: 0x4DC4, symBinAddr: 0x100014C84, symSize: 0x28 }
  - { offsetInCU: 0xDCBB, offset: 0x383CB, size: 0x8, addend: 0x0, symName: __ZNSt3__13getB7v160006ILm2EJbi8CardDeckS1_EEERNS_13tuple_elementIXT_ENS_5tupleIJDpT0_EEEE4typeERS6_, symObjAddr: 0x4E10, symBinAddr: 0x100014CD0, symSize: 0x28 }
  - { offsetInCU: 0xDD0C, offset: 0x3841C, size: 0x8, addend: 0x0, symName: __ZNSt3__13getB7v160006ILm3EJbi8CardDeckS1_EEERNS_13tuple_elementIXT_ENS_5tupleIJDpT0_EEEE4typeERS6_, symObjAddr: 0x4E38, symBinAddr: 0x100014CF8, symSize: 0x28 }
  - { offsetInCU: 0xDECB, offset: 0x385DB, size: 0x8, addend: 0x0, symName: '__ZNSt3__116forward_as_tupleB7v160006IJZ6filter4SuitE3$_0EEENS_5tupleIJDpOT_EEES6_', symObjAddr: 0x56EC, symBinAddr: 0x10001554C, symSize: 0x2C }
  - { offsetInCU: 0xDF05, offset: 0x38615, size: 0x8, addend: 0x0, symName: '__ZNSt3__116forward_as_tupleB7v160006IJNS_9allocatorIZ6filter4SuitE3$_0EEEEENS_5tupleIJDpOT_EEES8_', symObjAddr: 0x5718, symBinAddr: 0x100015578, symSize: 0x2C }
  - { offsetInCU: 0xDF69, offset: 0x38679, size: 0x8, addend: 0x0, symName: '__ZNSt3__13getB7v160006ILm0EJOZ6filter4SuitE3$_0EEERNS_13tuple_elementIXT_ENS_5tupleIJDpT0_EEEE4typeERS8_', symObjAddr: 0x5A30, symBinAddr: 0x100015890, symSize: 0x24 }
  - { offsetInCU: 0xDFAC, offset: 0x386BC, size: 0x8, addend: 0x0, symName: '__ZNSt3__13getB7v160006ILm0EJONS_9allocatorIZ6filter4SuitE3$_0EEEEERNS_13tuple_elementIXT_ENS_5tupleIJDpT0_EEEE4typeERSA_', symObjAddr: 0x5A6C, symBinAddr: 0x1000158CC, symSize: 0x24 }
  - { offsetInCU: 0xE4F8, offset: 0x38C08, size: 0x8, addend: 0x0, symName: '__ZNSt3__116forward_as_tupleB7v160006IJRKZ6filter4SuitE3$_0EEENS_5tupleIJDpOT_EEES8_', symObjAddr: 0x60E4, symBinAddr: 0x100015E60, symSize: 0x2C }
  - { offsetInCU: 0xE547, offset: 0x38C57, size: 0x8, addend: 0x0, symName: '__ZNSt3__13getB7v160006ILm0EJRKZ6filter4SuitE3$_0EEERNS_13tuple_elementIXT_ENS_5tupleIJDpT0_EEEE4typeERS9_', symObjAddr: 0x62D4, symBinAddr: 0x100016050, symSize: 0x24 }
  - { offsetInCU: 0xE58A, offset: 0x38C9A, size: 0x8, addend: 0x0, symName: '__ZNSt3__116forward_as_tupleB7v160006IJRKNS_9allocatorIZ6filter4SuitE3$_0EEEEENS_5tupleIJDpOT_EEESA_', symObjAddr: 0x6630, symBinAddr: 0x1000163AC, symSize: 0x2C }
  - { offsetInCU: 0xE5D9, offset: 0x38CE9, size: 0x8, addend: 0x0, symName: '__ZNSt3__13getB7v160006ILm0EJRKNS_9allocatorIZ6filter4SuitE3$_0EEEEERNS_13tuple_elementIXT_ENS_5tupleIJDpT0_EEEE4typeERSB_', symObjAddr: 0x6814, symBinAddr: 0x100016590, symSize: 0x24 }
  - { offsetInCU: 0xE68E, offset: 0x38D9E, size: 0x8, addend: 0x0, symName: '__ZNSt3__18__invokeB7v160006IRZ6filter4SuitE3$_0J4CardEEEDTclclsr3stdE7declvalIT_EEspclsr3stdE7declvalIT0_EEEEOS5_DpOS6_', symObjAddr: 0x68E8, symBinAddr: 0x100016664, symSize: 0x94 }
  - { offsetInCU: 0xE84D, offset: 0x38F5D, size: 0x8, addend: 0x0, symName: '__ZNSt3__116forward_as_tupleB7v160006IJZ6filter5ColorE3$_1EEENS_5tupleIJDpOT_EEES6_', symObjAddr: 0x7218, symBinAddr: 0x100016F94, symSize: 0x2C }
  - { offsetInCU: 0xE887, offset: 0x38F97, size: 0x8, addend: 0x0, symName: '__ZNSt3__116forward_as_tupleB7v160006IJNS_9allocatorIZ6filter5ColorE3$_1EEEEENS_5tupleIJDpOT_EEES8_', symObjAddr: 0x7244, symBinAddr: 0x100016FC0, symSize: 0x2C }
  - { offsetInCU: 0xE8EB, offset: 0x38FFB, size: 0x8, addend: 0x0, symName: '__ZNSt3__13getB7v160006ILm0EJOZ6filter5ColorE3$_1EEERNS_13tuple_elementIXT_ENS_5tupleIJDpT0_EEEE4typeERS8_', symObjAddr: 0x755C, symBinAddr: 0x1000172D8, symSize: 0x24 }
  - { offsetInCU: 0xE92E, offset: 0x3903E, size: 0x8, addend: 0x0, symName: '__ZNSt3__13getB7v160006ILm0EJONS_9allocatorIZ6filter5ColorE3$_1EEEEERNS_13tuple_elementIXT_ENS_5tupleIJDpT0_EEEE4typeERSA_', symObjAddr: 0x7598, symBinAddr: 0x100017314, symSize: 0x24 }
  - { offsetInCU: 0xEE7A, offset: 0x3958A, size: 0x8, addend: 0x0, symName: '__ZNSt3__116forward_as_tupleB7v160006IJRKZ6filter5ColorE3$_1EEENS_5tupleIJDpOT_EEES8_', symObjAddr: 0x7B2C, symBinAddr: 0x1000178A8, symSize: 0x2C }
  - { offsetInCU: 0xEEC9, offset: 0x395D9, size: 0x8, addend: 0x0, symName: '__ZNSt3__13getB7v160006ILm0EJRKZ6filter5ColorE3$_1EEERNS_13tuple_elementIXT_ENS_5tupleIJDpT0_EEEE4typeERS9_', symObjAddr: 0x7D1C, symBinAddr: 0x100017A98, symSize: 0x24 }
  - { offsetInCU: 0xEF0C, offset: 0x3961C, size: 0x8, addend: 0x0, symName: '__ZNSt3__116forward_as_tupleB7v160006IJRKNS_9allocatorIZ6filter5ColorE3$_1EEEEENS_5tupleIJDpOT_EEESA_', symObjAddr: 0x8078, symBinAddr: 0x100017DF4, symSize: 0x2C }
  - { offsetInCU: 0xEF5B, offset: 0x3966B, size: 0x8, addend: 0x0, symName: '__ZNSt3__13getB7v160006ILm0EJRKNS_9allocatorIZ6filter5ColorE3$_1EEEEERNS_13tuple_elementIXT_ENS_5tupleIJDpT0_EEEE4typeERSB_', symObjAddr: 0x825C, symBinAddr: 0x100017FD8, symSize: 0x24 }
  - { offsetInCU: 0xEF9E, offset: 0x396AE, size: 0x8, addend: 0x0, symName: '__ZNSt3__18__invokeB7v160006IRZ6filter5ColorE3$_1J4CardEEEDTclclsr3stdE7declvalIT_EEspclsr3stdE7declvalIT0_EEEEOS5_DpOS6_', symObjAddr: 0x8330, symBinAddr: 0x1000180AC, symSize: 0x94 }
  - { offsetInCU: 0xEFEF, offset: 0x396FF, size: 0x8, addend: 0x0, symName: __ZNSt3__119__debug_db_insert_cB7v160006INS_13unordered_mapI4Suit5ColorNS_4hashIS2_EENS_8equal_toIS2_EENS_9allocatorINS_4pairIKS2_S3_EEEEEEEEvPT_, symObjAddr: 0x8534, symBinAddr: 0x1000182B0, symSize: 0x10 }
  - { offsetInCU: 0xF078, offset: 0x39788, size: 0x8, addend: 0x0, symName: __ZNSt3__17launderB7v160006IKNS_4pairIK4Suit5ColorEEEEPT_S8_, symObjAddr: 0x98C4, symBinAddr: 0x1000194F0, symSize: 0x24 }
  - { offsetInCU: 0xF0AF, offset: 0x397BF, size: 0x8, addend: 0x0, symName: __ZNSt3__19__launderB7v160006IKNS_4pairIK4Suit5ColorEEEEPT_S8_, symObjAddr: 0x98E8, symBinAddr: 0x100019514, symSize: 0x14 }
  - { offsetInCU: 0xF137, offset: 0x39847, size: 0x8, addend: 0x0, symName: __ZNSt3__17launderB7v160006INS_4pairIK4Suit5ColorEEEEPT_S7_, symObjAddr: 0x9CCC, symBinAddr: 0x1000198F8, symSize: 0x24 }
  - { offsetInCU: 0xF16E, offset: 0x3987E, size: 0x8, addend: 0x0, symName: __ZNSt3__19__launderB7v160006INS_4pairIK4Suit5ColorEEEEPT_S7_, symObjAddr: 0x9CF0, symBinAddr: 0x10001991C, symSize: 0x14 }
  - { offsetInCU: 0xF1A5, offset: 0x398B5, size: 0x8, addend: 0x0, symName: __ZNSt3__125__debug_db_invalidate_allB7v160006INS_12__hash_tableINS_17__hash_value_typeI4Suit5ColorEENS_22__unordered_map_hasherIS3_S5_NS_4hashIS3_EENS_8equal_toIS3_EELb1EEENS_21__unordered_map_equalIS3_S5_SA_S8_Lb1EEENS_9allocatorIS5_EEEEEEvPT_, symObjAddr: 0xA240, symBinAddr: 0x100019DEC, symSize: 0x10 }
  - { offsetInCU: 0xF1D6, offset: 0x398E6, size: 0x8, addend: 0x0, symName: __ZNSt3__118__debug_db_erase_cB7v160006INS_12__hash_tableINS_17__hash_value_typeI4Suit5ColorEENS_22__unordered_map_hasherIS3_S5_NS_4hashIS3_EENS_8equal_toIS3_EELb1EEENS_21__unordered_map_equalIS3_S5_SA_S8_Lb1EEENS_9allocatorIS5_EEEEEEvPT_, symObjAddr: 0xA9D8, symBinAddr: 0x10001A4E0, symSize: 0x10 }
  - { offsetInCU: 0xF207, offset: 0x39917, size: 0x8, addend: 0x0, symName: __ZNSt3__119__debug_db_insert_cB7v160006INS_4listINS_7variantIJ4Suit5ColorEEENS_9allocatorIS5_EEEEEEvPT_, symObjAddr: 0xABF4, symBinAddr: 0x10001A6FC, symSize: 0x10 }
  - { offsetInCU: 0xF256, offset: 0x39966, size: 0x8, addend: 0x0, symName: __ZNSt3__142__uninitialized_allocator_move_if_noexceptB7v160006INS_9allocatorIiEENS_16reverse_iteratorIPiEES5_ivEET1_RT_T0_S9_S6_, symObjAddr: 0xC57C, symBinAddr: 0x10001B630, symSize: 0x78 }
  - { offsetInCU: 0xF2D4, offset: 0x399E4, size: 0x8, addend: 0x0, symName: __ZNSt3__14swapB7v160006IPiEENS_9enable_ifIXaasr21is_move_constructibleIT_EE5valuesr18is_move_assignableIS3_EE5valueEvE4typeERS3_S6_, symObjAddr: 0xC640, symBinAddr: 0x10001B6F4, symSize: 0x3C }
  - { offsetInCU: 0xF324, offset: 0x39A34, size: 0x8, addend: 0x0, symName: __ZNSt3__125__debug_db_invalidate_allB7v160006INS_6vectorIiNS_9allocatorIiEEEEEEvPT_, symObjAddr: 0xC728, symBinAddr: 0x10001B730, symSize: 0x10 }
  - { offsetInCU: 0xF355, offset: 0x39A65, size: 0x8, addend: 0x0, symName: __ZNSt3__14moveB7v160006INS_16reverse_iteratorIPiEES3_EET0_T_S5_S4_, symObjAddr: 0xC738, symBinAddr: 0x10001B740, symSize: 0x78 }
  - { offsetInCU: 0xF3AF, offset: 0x39ABF, size: 0x8, addend: 0x0, symName: __ZNSt3__16__moveB7v160006INS_17_ClassicAlgPolicyENS_16reverse_iteratorIPiEES4_S4_EENS_4pairIT0_T2_EES6_T1_S7_, symObjAddr: 0xC7B0, symBinAddr: 0x10001B7B8, symSize: 0x64 }
  - { offsetInCU: 0xF41B, offset: 0x39B2B, size: 0x8, addend: 0x0, symName: __ZNSt3__123__dispatch_copy_or_moveB7v160006INS_17_ClassicAlgPolicyENS_11__move_loopIS1_EENS_14__move_trivialENS_16reverse_iteratorIPiEES7_S7_EENS_4pairIT2_T4_EES9_T3_SA_, symObjAddr: 0xC814, symBinAddr: 0x10001B81C, symSize: 0x64 }
  - { offsetInCU: 0xF499, offset: 0x39BA9, size: 0x8, addend: 0x0, symName: __ZNSt3__121__unwrap_and_dispatchB7v160006INS_10__overloadINS_11__move_loopINS_17_ClassicAlgPolicyEEENS_14__move_trivialEEENS_16reverse_iteratorIPiEES9_S9_Li0EEENS_4pairIT0_T2_EESB_T1_SC_, symObjAddr: 0xC878, symBinAddr: 0x10001B880, symSize: 0x12C }
  - { offsetInCU: 0xF529, offset: 0x39C39, size: 0x8, addend: 0x0, symName: __ZNSt3__114__unwrap_rangeB7v160006INS_16reverse_iteratorIPiEES3_EENS_4pairIT0_S5_EET_S7_, symObjAddr: 0xC9A4, symBinAddr: 0x10001B9AC, symSize: 0x84 }
  - { offsetInCU: 0xF69B, offset: 0x39DAB, size: 0x8, addend: 0x0, symName: __ZNSt3__113__unwrap_iterB7v160006INS_16reverse_iteratorIPiEENS_18__unwrap_iter_implIS3_Lb0EEELi0EEEDTclsrT0_8__unwrapclsr3stdE7declvalIT_EEEES7_, symObjAddr: 0xCAC8, symBinAddr: 0x10001BAD0, symSize: 0x44 }
  - { offsetInCU: 0xF6DF, offset: 0x39DEF, size: 0x8, addend: 0x0, symName: __ZNSt3__19make_pairB7v160006INS_16reverse_iteratorIPiEES3_EENS_4pairINS_18__unwrap_ref_decayIT_E4typeENS5_IT0_E4typeEEEOS6_OS9_, symObjAddr: 0xCB0C, symBinAddr: 0x10001BB14, symSize: 0x38 }
  - { offsetInCU: 0xF72E, offset: 0x39E3E, size: 0x8, addend: 0x0, symName: __ZNSt3__114__rewrap_rangeB7v160006INS_16reverse_iteratorIPiEES3_EET_S4_T0_, symObjAddr: 0xCB44, symBinAddr: 0x10001BB4C, symSize: 0x5C }
  - { offsetInCU: 0xF77A, offset: 0x39E8A, size: 0x8, addend: 0x0, symName: __ZNSt3__113__rewrap_iterB7v160006INS_16reverse_iteratorIPiEES3_NS_18__unwrap_iter_implIS3_Lb0EEEEET_S6_T0_, symObjAddr: 0xCBA0, symBinAddr: 0x10001BBA8, symSize: 0x74 }
  - { offsetInCU: 0xF7CF, offset: 0x39EDF, size: 0x8, addend: 0x0, symName: __ZNSt3__1neB7v160006IPiS1_EEbRKNS_16reverse_iteratorIT_EERKNS2_IT0_EE, symObjAddr: 0xCC14, symBinAddr: 0x10001BC1C, symSize: 0x48 }
  - { offsetInCU: 0xF8CD, offset: 0x39FDD, size: 0x8, addend: 0x0, symName: __ZNSt3__1eqB7v160006ERKNS_15__list_iteratorI4CardPvEES5_, symObjAddr: 0xD070, symBinAddr: 0x10001BFDC, symSize: 0x30 }
  - { offsetInCU: 0xF90A, offset: 0x3A01A, size: 0x8, addend: 0x0, symName: __ZNSt3__14findB7v160006INS_15__list_iteratorI4CardPvEES2_EET_S5_S5_RKT0_, symObjAddr: 0xD434, symBinAddr: 0x10001C38C, symSize: 0x74 }
  - { offsetInCU: 0xF964, offset: 0x3A074, size: 0x8, addend: 0x0, symName: __ZNSt3__18distanceB7v160006INS_21__list_const_iteratorI4CardPvEEEENS_15iterator_traitsIT_E15difference_typeES6_S6_, symObjAddr: 0xD4C8, symBinAddr: 0x10001C420, symSize: 0x3C }
  - { offsetInCU: 0xF9A7, offset: 0x3A0B7, size: 0x8, addend: 0x0, symName: __ZNSt3__110__distanceB7v160006INS_21__list_const_iteratorI4CardPvEEEENS_15iterator_traitsIT_E15difference_typeES6_S6_NS_18input_iterator_tagE, symObjAddr: 0xD504, symBinAddr: 0x10001C45C, symSize: 0x5C }
  - { offsetInCU: 0xFA03, offset: 0x3A113, size: 0x8, addend: 0x0, symName: __ZNSt3__119__debug_db_insert_cB7v160006INS_4listIiNS_9allocatorIiEEEEEEvPT_, symObjAddr: 0xDBD8, symBinAddr: 0x10001C5A4, symSize: 0x10 }
  - { offsetInCU: 0xFA52, offset: 0x3A162, size: 0x8, addend: 0x0, symName: __ZNSt3__1neB7v160006ERKNS_15__list_iteratorIiPvEES4_, symObjAddr: 0xE69C, symBinAddr: 0x10001CF9C, symSize: 0x34 }
  - { offsetInCU: 0xFA8F, offset: 0x3A19F, size: 0x8, addend: 0x0, symName: __ZNSt3__115__adjacent_findB7v160006INS_15__list_iteratorIiPvEES3_RNS_12not_equal_toIvEEEET_S7_T0_OT1_, symObjAddr: 0xE754, symBinAddr: 0x10001D054, symSize: 0xCC }
  - { offsetInCU: 0xFBA9, offset: 0x3A2B9, size: 0x8, addend: 0x0, symName: __ZNSt3__115__adjacent_findB7v160006INS_21__list_const_iteratorI4CardPvEES4_RPFbS2_S2_EEET_S8_T0_OT1_, symObjAddr: 0xEB40, symBinAddr: 0x10001D440, symSize: 0x150 }
  - { offsetInCU: 0xFC1B, offset: 0x3A32B, size: 0x8, addend: 0x0, symName: __ZNSt3__1eqB7v160006ERKNS_15__list_iteratorINS_7variantIJ4Suit5ColorEEEPvEES8_, symObjAddr: 0xF4CC, symBinAddr: 0x10001DD20, symSize: 0x30 }
  - { offsetInCU: 0x106F8, offset: 0x3AE08, size: 0x8, addend: 0x0, symName: _SANDWICH_PRIORITIES, symObjAddr: 0x95BD8, symBinAddr: 0x100028030, symSize: 0x0 }
  - { offsetInCU: 0x10A08, offset: 0x3B118, size: 0x8, addend: 0x0, symName: _HAND_SIZE, symObjAddr: 0xFCF8, symBinAddr: 0x100028000, symSize: 0x0 }
  - { offsetInCU: 0x10A1E, offset: 0x3B12E, size: 0x8, addend: 0x0, symName: _SANDWICH_SIZE, symObjAddr: 0xFCFC, symBinAddr: 0x100028004, symSize: 0x0 }
  - { offsetInCU: 0x10B79, offset: 0x3B289, size: 0x8, addend: 0x0, symName: __Z18find_best_sandwich8CardDeck, symObjAddr: 0x2058, symBinAddr: 0x100012E5C, symSize: 0x200 }
  - { offsetInCU: 0x10CA1, offset: 0x3B3B1, size: 0x8, addend: 0x0, symName: __Z6filter4Suit, symObjAddr: 0x0, symBinAddr: 0x1000111C4, symSize: 0x40 }
  - { offsetInCU: 0x10F5A, offset: 0x3B66A, size: 0x8, addend: 0x0, symName: __Z6filter5Color, symObjAddr: 0x74, symBinAddr: 0x100011238, symSize: 0x40 }
  - { offsetInCU: 0x111B5, offset: 0x3B8C5, size: 0x8, addend: 0x0, symName: __ZNKSt3__111__enum_hashI4SuitLb1EEclB7v160006ES1_, symObjAddr: 0x970C, symBinAddr: 0x100019338, symSize: 0x2C }
  - { offsetInCU: 0x11324, offset: 0x3BA34, size: 0x8, addend: 0x0, symName: __ZNSt3__16vectorIiNS_9allocatorIiEEE26__swap_out_circular_bufferERNS_14__split_bufferIiRS2_EE, symObjAddr: 0xBEE0, symBinAddr: 0x10001B2C0, symSize: 0x118 }
  - { offsetInCU: 0x133F0, offset: 0x3DB00, size: 0x8, addend: 0x0, symName: '__ZNSt3__18functionIFb4CardEEC1IZ6filter4SuitE3$_0vEET_', symObjAddr: 0x40, symBinAddr: 0x100011204, symSize: 0x34 }
  - { offsetInCU: 0x13435, offset: 0x3DB45, size: 0x8, addend: 0x0, symName: '__ZNSt3__18functionIFb4CardEEC1IZ6filter5ColorE3$_1vEET_', symObjAddr: 0xB4, symBinAddr: 0x100011278, symSize: 0x34 }
  - { offsetInCU: 0x1347A, offset: 0x3DB8A, size: 0x8, addend: 0x0, symName: __ZNSt3__113unordered_mapI4Suit5ColorNS_4hashIS1_EENS_8equal_toIS1_EENS_9allocatorINS_4pairIKS1_S2_EEEEEC1ESt16initializer_listISA_E, symObjAddr: 0xE8, symBinAddr: 0x1000112AC, symSize: 0x3C }
  - { offsetInCU: 0x134B5, offset: 0x3DBC5, size: 0x8, addend: 0x0, symName: __ZNSt3__113unordered_mapI4Suit5ColorNS_4hashIS1_EENS_8equal_toIS1_EENS_9allocatorINS_4pairIKS1_S2_EEEEED1B7v160006Ev, symObjAddr: 0x124, symBinAddr: 0x1000112E8, symSize: 0x2C }
  - { offsetInCU: 0x134DF, offset: 0x3DBEF, size: 0x8, addend: 0x0, symName: __ZNSt3__14listINS_7variantIJ4Suit5ColorEEENS_9allocatorIS4_EEEC1ESt16initializer_listIS4_E, symObjAddr: 0x150, symBinAddr: 0x100011314, symSize: 0x3C }
  - { offsetInCU: 0x1351A, offset: 0x3DC2A, size: 0x8, addend: 0x0, symName: __ZNSt3__14listINS_7variantIJ4Suit5ColorEEENS_9allocatorIS4_EEED1Ev, symObjAddr: 0x18C, symBinAddr: 0x100011350, symSize: 0x2C }
  - { offsetInCU: 0x13546, offset: 0x3DC56, size: 0x8, addend: 0x0, symName: __Z19are_different_suits4CardS_, symObjAddr: 0x1B8, symBinAddr: 0x10001137C, symSize: 0xB8 }
  - { offsetInCU: 0x13580, offset: 0x3DC90, size: 0x8, addend: 0x0, symName: __Z20are_different_colors4CardS_, symObjAddr: 0x270, symBinAddr: 0x100011434, symSize: 0xB8 }
  - { offsetInCU: 0x135BA, offset: 0x3DCCA, size: 0x8, addend: 0x0, symName: __Z14get_card_colorRK4Card, symObjAddr: 0x328, symBinAddr: 0x1000114EC, symSize: 0x64 }
  - { offsetInCU: 0x135E6, offset: 0x3DCF6, size: 0x8, addend: 0x0, symName: __Z21init_pointer_registerv, symObjAddr: 0x38C, symBinAddr: 0x100011550, symSize: 0xF0 }
  - { offsetInCU: 0x13630, offset: 0x3DD40, size: 0x8, addend: 0x0, symName: __ZNSt3__16vectorIiNS_9allocatorIiEEEC1B7v160006Ev, symObjAddr: 0x47C, symBinAddr: 0x100011640, symSize: 0x2C }
  - { offsetInCU: 0x1365A, offset: 0x3DD6A, size: 0x8, addend: 0x0, symName: __ZNSt3__16vectorIiNS_9allocatorIiEEE9push_backB7v160006EOi, symObjAddr: 0x4A8, symBinAddr: 0x10001166C, symSize: 0x6C }
  - { offsetInCU: 0x13690, offset: 0x3DDA0, size: 0x8, addend: 0x0, symName: __Z15remove_sandwich8CardDeckS_, symObjAddr: 0x540, symBinAddr: 0x1000116D8, symSize: 0x60 }
  - { offsetInCU: 0x136F8, offset: 0x3DE08, size: 0x8, addend: 0x0, symName: '__ZNSt3__14listI4CardNS_9allocatorIS1_EEE9remove_ifIZ15remove_sandwich8CardDeckS6_E3$_2EEvT_', symObjAddr: 0x5A0, symBinAddr: 0x100011738, symSize: 0x21C }
  - { offsetInCU: 0x13780, offset: 0x3DE90, size: 0x8, addend: 0x0, symName: __Z23update_pointer_registerRNSt3__16vectorIiNS_9allocatorIiEEEEi, symObjAddr: 0x7FC, symBinAddr: 0x100011954, symSize: 0xD0 }
  - { offsetInCU: 0x137F2, offset: 0x3DF02, size: 0x8, addend: 0x0, symName: __Z15get_same_amount8CardDeckS_, symObjAddr: 0x8F0, symBinAddr: 0x100011A24, symSize: 0x110 }
  - { offsetInCU: 0x13859, offset: 0x3DF69, size: 0x8, addend: 0x0, symName: __ZNSt3__115__list_iteratorI4CardPvEmmB7v160006Ev, symObjAddr: 0xA2C, symBinAddr: 0x100011B34, symSize: 0x20 }
  - { offsetInCU: 0x1387F, offset: 0x3DF8F, size: 0x8, addend: 0x0, symName: __ZNKSt3__115__list_iteratorI4CardPvEdeB7v160006Ev, symObjAddr: 0xA4C, symBinAddr: 0x100011B54, symSize: 0x2C }
  - { offsetInCU: 0x138A5, offset: 0x3DFB5, size: 0x8, addend: 0x0, symName: __ZNSt3__14listI4CardNS_9allocatorIS1_EEE5beginB7v160006Ev, symObjAddr: 0xAAC, symBinAddr: 0x100011BB4, symSize: 0x2C }
  - { offsetInCU: 0x138CA, offset: 0x3DFDA, size: 0x8, addend: 0x0, symName: __Z11copy_last_n8CardDecki, symObjAddr: 0xAD8, symBinAddr: 0x100011BE0, symSize: 0xF0 }
  - { offsetInCU: 0x13923, offset: 0x3E033, size: 0x8, addend: 0x0, symName: __ZNSt3__14listI4CardNS_9allocatorIS1_EEE10push_frontERKS1_, symObjAddr: 0xBC8, symBinAddr: 0x100011CD0, symSize: 0xE8 }
  - { offsetInCU: 0x13986, offset: 0x3E096, size: 0x8, addend: 0x0, symName: __Z5clampiii, symObjAddr: 0xCDC, symBinAddr: 0x100011DB8, symSize: 0xB4 }
  - { offsetInCU: 0x139DC, offset: 0x3E0EC, size: 0x8, addend: 0x0, symName: __Z14get_differenceii, symObjAddr: 0xD90, symBinAddr: 0x100011E6C, symSize: 0x38 }
  - { offsetInCU: 0x13A16, offset: 0x3E126, size: 0x8, addend: 0x0, symName: __Z14check_sandwichRK8CardDeck, symObjAddr: 0xDC8, symBinAddr: 0x100011EA4, symSize: 0x294 }
  - { offsetInCU: 0x13A8A, offset: 0x3E19A, size: 0x8, addend: 0x0, symName: __ZNSt3__14listIiNS_9allocatorIiEEEC1B7v160006Ev, symObjAddr: 0x105C, symBinAddr: 0x100012138, symSize: 0x2C }
  - { offsetInCU: 0x13AB3, offset: 0x3E1C3, size: 0x8, addend: 0x0, symName: __Z14get_card_valueRK4Card, symObjAddr: 0x11A4, symBinAddr: 0x100012228, symSize: 0x24 }
  - { offsetInCU: 0x13AE0, offset: 0x3E1F0, size: 0x8, addend: 0x0, symName: __ZNSt3__14listIiNS_9allocatorIiEEE5beginB7v160006Ev, symObjAddr: 0x12D0, symBinAddr: 0x100012354, symSize: 0x2C }
  - { offsetInCU: 0x13B06, offset: 0x3E216, size: 0x8, addend: 0x0, symName: __ZNSt3__14listIiNS_9allocatorIiEEE3endB7v160006Ev, symObjAddr: 0x12FC, symBinAddr: 0x100012380, symSize: 0x2C }
  - { offsetInCU: 0x13B2C, offset: 0x3E23C, size: 0x8, addend: 0x0, symName: __ZNSt3__14listIiNS_9allocatorIiEEE9pop_frontEv, symObjAddr: 0x1328, symBinAddr: 0x1000123AC, symSize: 0x84 }
  - { offsetInCU: 0x13B81, offset: 0x3E291, size: 0x8, addend: 0x0, symName: __ZNSt3__14listIiNS_9allocatorIiEEE5frontB7v160006Ev, symObjAddr: 0x1424, symBinAddr: 0x1000124A8, symSize: 0x2C }
  - { offsetInCU: 0x13BA7, offset: 0x3E2B7, size: 0x8, addend: 0x0, symName: __ZNSt3__14listIiNS_9allocatorIiEEE9push_backERKi, symObjAddr: 0x1450, symBinAddr: 0x1000124D4, symSize: 0xEC }
  - { offsetInCU: 0x13BFC, offset: 0x3E30C, size: 0x8, addend: 0x0, symName: __ZNSt3__14listIiNS_9allocatorIiEEED1Ev, symObjAddr: 0x153C, symBinAddr: 0x1000125C0, symSize: 0x2C }
  - { offsetInCU: 0x13C29, offset: 0x3E339, size: 0x8, addend: 0x0, symName: __ZNSt3__113unordered_mapI4Suit5ColorNS_4hashIS1_EENS_8equal_toIS1_EENS_9allocatorINS_4pairIKS1_S2_EEEEE4findB7v160006ERS9_, symObjAddr: 0x1568, symBinAddr: 0x1000125EC, symSize: 0x40 }
  - { offsetInCU: 0x13C5E, offset: 0x3E36E, size: 0x8, addend: 0x0, symName: __ZNKSt3__119__hash_map_iteratorINS_15__hash_iteratorIPNS_11__hash_nodeINS_17__hash_value_typeI4Suit5ColorEEPvEEEEEptB7v160006Ev, symObjAddr: 0x15B4, symBinAddr: 0x10001262C, symSize: 0x2C }
  - { offsetInCU: 0x13C83, offset: 0x3E393, size: 0x8, addend: 0x0, symName: __Z17are_all_same_suitRK8CardDeck, symObjAddr: 0x15E0, symBinAddr: 0x100012658, symSize: 0x90 }
  - { offsetInCU: 0x13CAF, offset: 0x3E3BF, size: 0x8, addend: 0x0, symName: __Z18are_all_same_colorRK8CardDeck, symObjAddr: 0x16F0, symBinAddr: 0x100012738, symSize: 0x90 }
  - { offsetInCU: 0x13CDB, offset: 0x3E3EB, size: 0x8, addend: 0x0, symName: __Z11create_hand8CardDeck, symObjAddr: 0x1780, symBinAddr: 0x1000127C8, symSize: 0x5C }
  - { offsetInCU: 0x13D08, offset: 0x3E418, size: 0x8, addend: 0x0, symName: __Z10draw_cards8CardDeckm, symObjAddr: 0x17DC, symBinAddr: 0x100012824, symSize: 0xC8 }
  - { offsetInCU: 0x13D84, offset: 0x3E494, size: 0x8, addend: 0x0, symName: __ZNSt3__14listI4CardNS_9allocatorIS1_EEE5frontB7v160006Ev, symObjAddr: 0x18D8, symBinAddr: 0x1000128EC, symSize: 0x2C }
  - { offsetInCU: 0x13DA9, offset: 0x3E4B9, size: 0x8, addend: 0x0, symName: __Z13find_sandwich8CardDeck, symObjAddr: 0x1A78, symBinAddr: 0x100012918, symSize: 0x338 }
  - { offsetInCU: 0x13E71, offset: 0x3E581, size: 0x8, addend: 0x0, symName: '__ZNSt3__14listI4CardNS_9allocatorIS1_EEE4sortIZ13find_sandwich8CardDeckE3$_3EEvT_', symObjAddr: 0x1DB0, symBinAddr: 0x100012C50, symSize: 0x60 }
  - { offsetInCU: 0x13EB1, offset: 0x3E5C1, size: 0x8, addend: 0x0, symName: __ZNSt3__14listI4CardNS_9allocatorIS1_EEE5eraseENS_21__list_const_iteratorIS1_PvEES7_, symObjAddr: 0x1E78, symBinAddr: 0x100012CB0, symSize: 0xE4 }
  - { offsetInCU: 0x13F40, offset: 0x3E650, size: 0x8, addend: 0x0, symName: __ZNSt3__115__list_iteratorI4CardPvEppB7v160006Ev, symObjAddr: 0x2038, symBinAddr: 0x100012E3C, symSize: 0x20 }
  - { offsetInCU: 0x13F66, offset: 0x3E676, size: 0x8, addend: 0x0, symName: __ZNSt3__14listINS_7variantIJ4Suit5ColorEEENS_9allocatorIS4_EEE5beginB7v160006Ev, symObjAddr: 0x2258, symBinAddr: 0x10001305C, symSize: 0x2C }
  - { offsetInCU: 0x13F8C, offset: 0x3E69C, size: 0x8, addend: 0x0, symName: __ZNSt3__14listINS_7variantIJ4Suit5ColorEEENS_9allocatorIS4_EEE3endB7v160006Ev, symObjAddr: 0x2284, symBinAddr: 0x100013088, symSize: 0x2C }
  - { offsetInCU: 0x13FB2, offset: 0x3E6C2, size: 0x8, addend: 0x0, symName: __ZNKSt3__115__list_iteratorINS_7variantIJ4Suit5ColorEEEPvEdeB7v160006Ev, symObjAddr: 0x22E4, symBinAddr: 0x1000130E8, symSize: 0x2C }
  - { offsetInCU: 0x13FE2, offset: 0x3E6F2, size: 0x8, addend: 0x0, symName: __ZNSt3__115__list_iteratorINS_7variantIJ4Suit5ColorEEEPvEppB7v160006Ev, symObjAddr: 0x23E4, symBinAddr: 0x100013190, symSize: 0x20 }
  - { offsetInCU: 0x14007, offset: 0x3E717, size: 0x8, addend: 0x0, symName: __Z4play8CardDeck, symObjAddr: 0x2404, symBinAddr: 0x1000131B0, symSize: 0x8C }
  - { offsetInCU: 0x14102, offset: 0x3E812, size: 0x8, addend: 0x0, symName: __ZNSt3__15tupleIJbm8CardDeckS1_EEC1B7v160006IJbiS1_S1_ELi0EEEONS0_IJDpT_EEE, symObjAddr: 0x24E0, symBinAddr: 0x10001328C, symSize: 0x34 }
  - { offsetInCU: 0x1415B, offset: 0x3E86B, size: 0x8, addend: 0x0, symName: __ZNSt3__15tupleIJbi8CardDeckS1_EED1Ev, symObjAddr: 0x2514, symBinAddr: 0x1000132C0, symSize: 0x2C }
  - { offsetInCU: 0x14187, offset: 0x3E897, size: 0x8, addend: 0x0, symName: __Z14play_optimally8CardDeck, symObjAddr: 0x2540, symBinAddr: 0x1000132EC, symSize: 0x8C }
  - { offsetInCU: 0x141B5, offset: 0x3E8C5, size: 0x8, addend: 0x0, symName: __ZNSt3__14listINS_7variantIJ4Suit5ColorEEENS_9allocatorIS4_EEED2Ev, symObjAddr: 0x25CC, symBinAddr: 0x100013378, symSize: 0x2C }
  - { offsetInCU: 0x141E2, offset: 0x3E8F2, size: 0x8, addend: 0x0, symName: __ZNSt3__110__list_impINS_7variantIJ4Suit5ColorEEENS_9allocatorIS4_EEED2Ev, symObjAddr: 0x25F8, symBinAddr: 0x1000133A4, symSize: 0x3C }
  - { offsetInCU: 0x1420E, offset: 0x3E91E, size: 0x8, addend: 0x0, symName: __ZNSt3__110__list_impINS_7variantIJ4Suit5ColorEEENS_9allocatorIS4_EEE5clearEv, symObjAddr: 0x2634, symBinAddr: 0x1000133E0, symSize: 0xEC }
  - { offsetInCU: 0x1427E, offset: 0x3E98E, size: 0x8, addend: 0x0, symName: __ZNKSt3__110__list_impINS_7variantIJ4Suit5ColorEEENS_9allocatorIS4_EEE5emptyB7v160006Ev, symObjAddr: 0x2730, symBinAddr: 0x1000134DC, symSize: 0x34 }
  - { offsetInCU: 0x142A4, offset: 0x3E9B4, size: 0x8, addend: 0x0, symName: __ZNSt3__110__list_impINS_7variantIJ4Suit5ColorEEENS_9allocatorIS4_EEE12__node_allocB7v160006Ev, symObjAddr: 0x2764, symBinAddr: 0x100013510, symSize: 0x28 }
  - { offsetInCU: 0x142CA, offset: 0x3E9DA, size: 0x8, addend: 0x0, symName: __ZNKSt3__110__list_impINS_7variantIJ4Suit5ColorEEENS_9allocatorIS4_EEE13__end_as_linkB7v160006Ev, symObjAddr: 0x278C, symBinAddr: 0x100013538, symSize: 0x44 }
  - { offsetInCU: 0x142F0, offset: 0x3EA00, size: 0x8, addend: 0x0, symName: __ZNSt3__110__list_impINS_7variantIJ4Suit5ColorEEENS_9allocatorIS4_EEE14__unlink_nodesEPNS_16__list_node_baseIS4_PvEESB_, symObjAddr: 0x27D0, symBinAddr: 0x10001357C, symSize: 0x3C }
  - { offsetInCU: 0x14325, offset: 0x3EA35, size: 0x8, addend: 0x0, symName: __ZNSt3__110__list_impINS_7variantIJ4Suit5ColorEEENS_9allocatorIS4_EEE4__szB7v160006Ev, symObjAddr: 0x280C, symBinAddr: 0x1000135B8, symSize: 0x28 }
  - { offsetInCU: 0x1434B, offset: 0x3EA5B, size: 0x8, addend: 0x0, symName: __ZNSt3__116__list_node_baseINS_7variantIJ4Suit5ColorEEEPvE9__as_nodeB7v160006Ev, symObjAddr: 0x2834, symBinAddr: 0x1000135E0, symSize: 0x24 }
  - { offsetInCU: 0x14371, offset: 0x3EA81, size: 0x8, addend: 0x0, symName: __ZNSt3__116allocator_traitsINS_9allocatorINS_11__list_nodeINS_7variantIJ4Suit5ColorEEEPvEEEEE7destroyB7v160006IS6_vvEEvRS9_PT_, symObjAddr: 0x2858, symBinAddr: 0x100013604, symSize: 0x14 }
  - { offsetInCU: 0x143AB, offset: 0x3EABB, size: 0x8, addend: 0x0, symName: __ZNSt3__116allocator_traitsINS_9allocatorINS_11__list_nodeINS_7variantIJ4Suit5ColorEEEPvEEEEE10deallocateB7v160006ERS9_PS8_m, symObjAddr: 0x286C, symBinAddr: 0x100013618, symSize: 0x34 }
  - { offsetInCU: 0x143ED, offset: 0x3EAFD, size: 0x8, addend: 0x0, symName: __ZNKSt3__110__list_impINS_7variantIJ4Suit5ColorEEENS_9allocatorIS4_EEE4__szB7v160006Ev, symObjAddr: 0x28B0, symBinAddr: 0x10001365C, symSize: 0x28 }
  - { offsetInCU: 0x14413, offset: 0x3EB23, size: 0x8, addend: 0x0, symName: __ZNKSt3__117__compressed_pairImNS_9allocatorINS_11__list_nodeINS_7variantIJ4Suit5ColorEEEPvEEEEE5firstB7v160006Ev, symObjAddr: 0x28D8, symBinAddr: 0x100013684, symSize: 0x24 }
  - { offsetInCU: 0x14439, offset: 0x3EB49, size: 0x8, addend: 0x0, symName: __ZNSt3__117__compressed_pairImNS_9allocatorINS_11__list_nodeINS_7variantIJ4Suit5ColorEEEPvEEEEE6secondB7v160006Ev, symObjAddr: 0x2910, symBinAddr: 0x1000136A8, symSize: 0x24 }
  - { offsetInCU: 0x1445F, offset: 0x3EB6F, size: 0x8, addend: 0x0, symName: __ZNSt3__122__compressed_pair_elemINS_9allocatorINS_11__list_nodeINS_7variantIJ4Suit5ColorEEEPvEEEELi1ELb1EE5__getB7v160006Ev, symObjAddr: 0x2934, symBinAddr: 0x1000136CC, symSize: 0x14 }
  - { offsetInCU: 0x14485, offset: 0x3EB95, size: 0x8, addend: 0x0, symName: __ZNSt3__126__list_node_pointer_traitsINS_7variantIJ4Suit5ColorEEEPvE26__unsafe_link_pointer_castB7v160006EPNS_16__list_node_baseIS4_S5_EE, symObjAddr: 0x2948, symBinAddr: 0x1000136E0, symSize: 0x14 }
  - { offsetInCU: 0x144A9, offset: 0x3EBB9, size: 0x8, addend: 0x0, symName: __ZNSt3__116__list_node_baseINS_7variantIJ4Suit5ColorEEEPvE6__selfB7v160006Ev, symObjAddr: 0x295C, symBinAddr: 0x1000136F4, symSize: 0x24 }
  - { offsetInCU: 0x144D4, offset: 0x3EBE4, size: 0x8, addend: 0x0, symName: __ZNSt3__114pointer_traitsIPNS_16__list_node_baseINS_7variantIJ4Suit5ColorEEEPvEEE10pointer_toB7v160006ERS7_, symObjAddr: 0x2980, symBinAddr: 0x100013718, symSize: 0x14 }
  - { offsetInCU: 0x144F7, offset: 0x3EC07, size: 0x8, addend: 0x0, symName: __ZNSt3__117__compressed_pairImNS_9allocatorINS_11__list_nodeINS_7variantIJ4Suit5ColorEEEPvEEEEE5firstB7v160006Ev, symObjAddr: 0x2994, symBinAddr: 0x10001372C, symSize: 0x24 }
  - { offsetInCU: 0x1451D, offset: 0x3EC2D, size: 0x8, addend: 0x0, symName: __ZNSt3__19allocatorINS_11__list_nodeINS_7variantIJ4Suit5ColorEEEPvEEE10deallocateB7v160006EPS7_m, symObjAddr: 0x29CC, symBinAddr: 0x100013750, symSize: 0x44 }
  - { offsetInCU: 0x1455F, offset: 0x3EC6F, size: 0x8, addend: 0x0, symName: __ZNSt3__14listIiNS_9allocatorIiEEED2Ev, symObjAddr: 0x3028, symBinAddr: 0x100013794, symSize: 0x2C }
  - { offsetInCU: 0x1458C, offset: 0x3EC9C, size: 0x8, addend: 0x0, symName: __ZNSt3__110__list_impIiNS_9allocatorIiEEED2Ev, symObjAddr: 0x3054, symBinAddr: 0x1000137C0, symSize: 0x3C }
  - { offsetInCU: 0x145B8, offset: 0x3ECC8, size: 0x8, addend: 0x0, symName: __ZNSt3__110__list_impIiNS_9allocatorIiEEE5clearEv, symObjAddr: 0x3090, symBinAddr: 0x1000137FC, symSize: 0xEC }
  - { offsetInCU: 0x14628, offset: 0x3ED38, size: 0x8, addend: 0x0, symName: __ZNKSt3__110__list_impIiNS_9allocatorIiEEE5emptyB7v160006Ev, symObjAddr: 0x318C, symBinAddr: 0x1000138F8, symSize: 0x34 }
  - { offsetInCU: 0x1464E, offset: 0x3ED5E, size: 0x8, addend: 0x0, symName: __ZNSt3__110__list_impIiNS_9allocatorIiEEE12__node_allocB7v160006Ev, symObjAddr: 0x31C0, symBinAddr: 0x10001392C, symSize: 0x28 }
  - { offsetInCU: 0x14674, offset: 0x3ED84, size: 0x8, addend: 0x0, symName: __ZNKSt3__110__list_impIiNS_9allocatorIiEEE13__end_as_linkB7v160006Ev, symObjAddr: 0x31E8, symBinAddr: 0x100013954, symSize: 0x44 }
  - { offsetInCU: 0x1469A, offset: 0x3EDAA, size: 0x8, addend: 0x0, symName: __ZNSt3__110__list_impIiNS_9allocatorIiEEE14__unlink_nodesEPNS_16__list_node_baseIiPvEES7_, symObjAddr: 0x322C, symBinAddr: 0x100013998, symSize: 0x3C }
  - { offsetInCU: 0x146CF, offset: 0x3EDDF, size: 0x8, addend: 0x0, symName: __ZNSt3__110__list_impIiNS_9allocatorIiEEE4__szB7v160006Ev, symObjAddr: 0x3268, symBinAddr: 0x1000139D4, symSize: 0x28 }
  - { offsetInCU: 0x146F5, offset: 0x3EE05, size: 0x8, addend: 0x0, symName: __ZNSt3__116__list_node_baseIiPvE9__as_nodeB7v160006Ev, symObjAddr: 0x3290, symBinAddr: 0x1000139FC, symSize: 0x24 }
  - { offsetInCU: 0x1471B, offset: 0x3EE2B, size: 0x8, addend: 0x0, symName: __ZNSt3__116allocator_traitsINS_9allocatorINS_11__list_nodeIiPvEEEEE7destroyB7v160006IivvEEvRS5_PT_, symObjAddr: 0x32B4, symBinAddr: 0x100013A20, symSize: 0x14 }
  - { offsetInCU: 0x14755, offset: 0x3EE65, size: 0x8, addend: 0x0, symName: __ZNSt3__116allocator_traitsINS_9allocatorINS_11__list_nodeIiPvEEEEE10deallocateB7v160006ERS5_PS4_m, symObjAddr: 0x32C8, symBinAddr: 0x100013A34, symSize: 0x34 }
  - { offsetInCU: 0x14797, offset: 0x3EEA7, size: 0x8, addend: 0x0, symName: __ZNKSt3__110__list_impIiNS_9allocatorIiEEE4__szB7v160006Ev, symObjAddr: 0x330C, symBinAddr: 0x100013A78, symSize: 0x28 }
  - { offsetInCU: 0x147BD, offset: 0x3EECD, size: 0x8, addend: 0x0, symName: __ZNKSt3__117__compressed_pairImNS_9allocatorINS_11__list_nodeIiPvEEEEE5firstB7v160006Ev, symObjAddr: 0x3334, symBinAddr: 0x100013AA0, symSize: 0x24 }
  - { offsetInCU: 0x147E3, offset: 0x3EEF3, size: 0x8, addend: 0x0, symName: __ZNSt3__117__compressed_pairImNS_9allocatorINS_11__list_nodeIiPvEEEEE6secondB7v160006Ev, symObjAddr: 0x3358, symBinAddr: 0x100013AC4, symSize: 0x24 }
  - { offsetInCU: 0x14809, offset: 0x3EF19, size: 0x8, addend: 0x0, symName: __ZNSt3__122__compressed_pair_elemINS_9allocatorINS_11__list_nodeIiPvEEEELi1ELb1EE5__getB7v160006Ev, symObjAddr: 0x337C, symBinAddr: 0x100013AE8, symSize: 0x14 }
  - { offsetInCU: 0x1482F, offset: 0x3EF3F, size: 0x8, addend: 0x0, symName: __ZNSt3__126__list_node_pointer_traitsIiPvE26__unsafe_link_pointer_castB7v160006EPNS_16__list_node_baseIiS1_EE, symObjAddr: 0x3390, symBinAddr: 0x100013AFC, symSize: 0x14 }
  - { offsetInCU: 0x14853, offset: 0x3EF63, size: 0x8, addend: 0x0, symName: __ZNSt3__116__list_node_baseIiPvE6__selfB7v160006Ev, symObjAddr: 0x33A4, symBinAddr: 0x100013B10, symSize: 0x24 }
  - { offsetInCU: 0x1487E, offset: 0x3EF8E, size: 0x8, addend: 0x0, symName: __ZNSt3__114pointer_traitsIPNS_16__list_node_baseIiPvEEE10pointer_toB7v160006ERS3_, symObjAddr: 0x33C8, symBinAddr: 0x100013B34, symSize: 0x14 }
  - { offsetInCU: 0x148A1, offset: 0x3EFB1, size: 0x8, addend: 0x0, symName: __ZNSt3__117__compressed_pairImNS_9allocatorINS_11__list_nodeIiPvEEEEE5firstB7v160006Ev, symObjAddr: 0x33DC, symBinAddr: 0x100013B48, symSize: 0x24 }
  - { offsetInCU: 0x148C7, offset: 0x3EFD7, size: 0x8, addend: 0x0, symName: __ZNSt3__19allocatorINS_11__list_nodeIiPvEEE10deallocateB7v160006EPS3_m, symObjAddr: 0x3400, symBinAddr: 0x100013B6C, symSize: 0x44 }
  - { offsetInCU: 0x14918, offset: 0x3F028, size: 0x8, addend: 0x0, symName: '__ZNSt3__116__variant_detail12__visitation9__variant13__visit_valueB7v160006IZ18find_best_sandwich8CardDeckE3$_4JRKNS_7variantIJ4Suit5ColorEEEEEEDcOT_DpOT0_', symObjAddr: 0x3D7C, symBinAddr: 0x100013CFC, symSize: 0x3C }
  - { offsetInCU: 0x1495F, offset: 0x3F06F, size: 0x8, addend: 0x0, symName: __ZNKSt3__17variantIJ4Suit5ColorEE22valueless_by_exceptionB7v160006Ev, symObjAddr: 0x3DCC, symBinAddr: 0x100013D4C, symSize: 0x28 }
  - { offsetInCU: 0x14985, offset: 0x3F095, size: 0x8, addend: 0x0, symName: __ZNKSt3__116__variant_detail6__baseILNS0_6_TraitE0EJ4Suit5ColorEE22valueless_by_exceptionB7v160006Ev, symObjAddr: 0x3E2C, symBinAddr: 0x100013DAC, symSize: 0x30 }
  - { offsetInCU: 0x149AB, offset: 0x3F0BB, size: 0x8, addend: 0x0, symName: __ZNKSt3__116__variant_detail6__baseILNS0_6_TraitE0EJ4Suit5ColorEE5indexB7v160006Ev, symObjAddr: 0x3E5C, symBinAddr: 0x100013DDC, symSize: 0x4C }
  - { offsetInCU: 0x149E0, offset: 0x3F0F0, size: 0x8, addend: 0x0, symName: __ZNSt18bad_variant_accessC1Ev, symObjAddr: 0x3EA8, symBinAddr: 0x100013E28, symSize: 0x2C }
  - { offsetInCU: 0x14A0D, offset: 0x3F11D, size: 0x8, addend: 0x0, symName: __ZNSt18bad_variant_accessD1Ev, symObjAddr: 0x3ED4, symBinAddr: 0x100013E54, symSize: 0x2C }
  - { offsetInCU: 0x14A3A, offset: 0x3F14A, size: 0x8, addend: 0x0, symName: __ZNSt18bad_variant_accessC2Ev, symObjAddr: 0x3F00, symBinAddr: 0x100013E80, symSize: 0x44 }
  - { offsetInCU: 0x14A67, offset: 0x3F177, size: 0x8, addend: 0x0, symName: __ZNSt9exceptionC2B7v160006Ev, symObjAddr: 0x3F44, symBinAddr: 0x100013EC4, symSize: 0x24 }
  - { offsetInCU: 0x14A91, offset: 0x3F1A1, size: 0x8, addend: 0x0, symName: __ZNSt18bad_variant_accessD2Ev, symObjAddr: 0x3F68, symBinAddr: 0x100013EE8, symSize: 0x2C }
  - { offsetInCU: 0x14AC3, offset: 0x3F1D3, size: 0x8, addend: 0x0, symName: '__ZNSt3__116__variant_detail12__visitation9__variant11__visit_altB7v160006INS2_15__value_visitorIZ18find_best_sandwich8CardDeckE3$_4EEJRKNS_7variantIJ4Suit5ColorEEEEEEDcOT_DpOT0_', symObjAddr: 0x3F94, symBinAddr: 0x100013F14, symSize: 0x3C }
  - { offsetInCU: 0x14B0A, offset: 0x3F21A, size: 0x8, addend: 0x0, symName: '__ZNSt3__116__variant_detail12__visitation9__variant20__make_value_visitorB7v160006IZ18find_best_sandwich8CardDeckE3$_4EEDaOT_', symObjAddr: 0x3FD0, symBinAddr: 0x100013F50, symSize: 0x1C }
  - { offsetInCU: 0x14B37, offset: 0x3F247, size: 0x8, addend: 0x0, symName: '__ZNSt3__116__variant_detail12__visitation6__base11__visit_altB7v160006INS1_9__variant15__value_visitorIZ18find_best_sandwich8CardDeckE3$_4EEJRKNS0_6__implIJ4Suit5ColorEEEEEEDcOT_DpOT0_', symObjAddr: 0x3FEC, symBinAddr: 0x100013F6C, symSize: 0x74 }
  - { offsetInCU: 0x14B92, offset: 0x3F2A2, size: 0x8, addend: 0x0, symName: '__ZNSt3__116__variant_detail12__visitation6__base12__dispatcherIJLm0EEE10__dispatchB7v160006IONS1_9__variant15__value_visitorIZ18find_best_sandwich8CardDeckE3$_4EEJRKNS0_6__baseILNS0_6_TraitE0EJ4Suit5ColorEEEEEEDcT_DpT0_', symObjAddr: 0x4060, symBinAddr: 0x100013FE0, symSize: 0x3C }
  - { offsetInCU: 0x14BD9, offset: 0x3F2E9, size: 0x8, addend: 0x0, symName: '__ZNSt3__116__variant_detail12__visitation6__base12__dispatcherIJLm1EEE10__dispatchB7v160006IONS1_9__variant15__value_visitorIZ18find_best_sandwich8CardDeckE3$_4EEJRKNS0_6__baseILNS0_6_TraitE0EJ4Suit5ColorEEEEEEDcT_DpT0_', symObjAddr: 0x409C, symBinAddr: 0x10001401C, symSize: 0x3C }
  - { offsetInCU: 0x14C56, offset: 0x3F366, size: 0x8, addend: 0x0, symName: '__ZNSt3__116__variant_detail12__visitation6__base4__atB7v160006IPFvONS1_9__variant15__value_visitorIZ18find_best_sandwich8CardDeckE3$_4EERKNS0_6__baseILNS0_6_TraitE0EJ4Suit5ColorEEEELm2EJEEEODaRKNS_8__farrayIT_XT0_EEEmDpT1_', symObjAddr: 0x40D8, symBinAddr: 0x100014058, symSize: 0x30 }
  - { offsetInCU: 0x14CA1, offset: 0x3F3B1, size: 0x8, addend: 0x0, symName: __ZNKRSt3__116__variant_detail6__baseILNS0_6_TraitE0EJ4Suit5ColorEE9__as_baseB7v160006Ev, symObjAddr: 0x4108, symBinAddr: 0x100014088, symSize: 0x14 }
  - { offsetInCU: 0x14CD1, offset: 0x3F3E1, size: 0x8, addend: 0x0, symName: __ZNSt3__116__variant_detail8__access6__base9__get_altB7v160006ILm0ERKNS0_6__baseILNS0_6_TraitE0EJ4Suit5ColorEEEEEODaOT0_, symObjAddr: 0x4148, symBinAddr: 0x1000140C8, symSize: 0x24 }
  - { offsetInCU: 0x14D12, offset: 0x3F422, size: 0x8, addend: 0x0, symName: '__ZNKSt3__116__variant_detail12__visitation9__variant15__value_visitorIZ18find_best_sandwich8CardDeckE3$_4EclB7v160006IJRKNS0_5__altILm0E4SuitEEEEEDcDpOT_', symObjAddr: 0x416C, symBinAddr: 0x1000140EC, symSize: 0x3C }
  - { offsetInCU: 0x14D52, offset: 0x3F462, size: 0x8, addend: 0x0, symName: '__ZNSt3__116__variant_detail12__visitation9__variant36__std_visit_exhaustive_visitor_checkIZ18find_best_sandwich8CardDeckE3$_4JRK4SuitEEEvv', symObjAddr: 0x41A8, symBinAddr: 0x100014128, symSize: 0x4 }
  - { offsetInCU: 0x14D85, offset: 0x3F495, size: 0x8, addend: 0x0, symName: '__ZZ18find_best_sandwich8CardDeckENK3$_4clIRK4SuitEEDaOT_', symObjAddr: 0x41D8, symBinAddr: 0x100014158, symSize: 0xE8 }
  - { offsetInCU: 0x14DC6, offset: 0x3F4D6, size: 0x8, addend: 0x0, symName: __ZNSt3__18functionIFb4CardEED1Ev, symObjAddr: 0x43F8, symBinAddr: 0x100014378, symSize: 0x2C }
  - { offsetInCU: 0x14DF2, offset: 0x3F502, size: 0x8, addend: 0x0, symName: __ZNKSt3__18functionIFb4CardEEclES1_, symObjAddr: 0x4424, symBinAddr: 0x1000143A4, symSize: 0x80 }
  - { offsetInCU: 0x14E29, offset: 0x3F539, size: 0x8, addend: 0x0, symName: __ZNSt3__120back_insert_iteratorI8CardDeckEdeB7v160006Ev, symObjAddr: 0x44A4, symBinAddr: 0x100014424, symSize: 0x14 }
  - { offsetInCU: 0x14E4F, offset: 0x3F55F, size: 0x8, addend: 0x0, symName: __ZNSt3__120back_insert_iteratorI8CardDeckEaSB7v160006ERK4Card, symObjAddr: 0x44B8, symBinAddr: 0x100014438, symSize: 0x38 }
  - { offsetInCU: 0x14E83, offset: 0x3F593, size: 0x8, addend: 0x0, symName: __ZNSt3__120back_insert_iteratorI8CardDeckEppB7v160006Ev, symObjAddr: 0x44F0, symBinAddr: 0x100014470, symSize: 0x14 }
  - { offsetInCU: 0x14EA9, offset: 0x3F5B9, size: 0x8, addend: 0x0, symName: __ZNKSt3__110__function12__value_funcIFb4CardEEclB7v160006EOS2_, symObjAddr: 0x4504, symBinAddr: 0x100014484, symSize: 0x5C }
  - { offsetInCU: 0x14EE3, offset: 0x3F5F3, size: 0x8, addend: 0x0, symName: __ZNSt3__117bad_function_callC1Ev, symObjAddr: 0x4598, symBinAddr: 0x100014518, symSize: 0x2C }
  - { offsetInCU: 0x14F0F, offset: 0x3F61F, size: 0x8, addend: 0x0, symName: __ZNSt3__117bad_function_callD1Ev, symObjAddr: 0x45C4, symBinAddr: 0x100014544, symSize: 0x2C }
  - { offsetInCU: 0x14F39, offset: 0x3F649, size: 0x8, addend: 0x0, symName: __ZNSt3__117bad_function_callC2Ev, symObjAddr: 0x45F0, symBinAddr: 0x100014570, symSize: 0x44 }
  - { offsetInCU: 0x14F65, offset: 0x3F675, size: 0x8, addend: 0x0, symName: __ZNSt3__117bad_function_callD0Ev, symObjAddr: 0x4634, symBinAddr: 0x1000145B4, symSize: 0x30 }
  - { offsetInCU: 0x14F8F, offset: 0x3F69F, size: 0x8, addend: 0x0, symName: __ZNSt3__117bad_function_callD2Ev, symObjAddr: 0x4664, symBinAddr: 0x1000145E4, symSize: 0x2C }
  - { offsetInCU: 0x14FB9, offset: 0x3F6C9, size: 0x8, addend: 0x0, symName: __ZNSt3__120back_insert_iteratorI8CardDeckEC1B7v160006ERS1_, symObjAddr: 0x4690, symBinAddr: 0x100014610, symSize: 0x34 }
  - { offsetInCU: 0x14FF1, offset: 0x3F701, size: 0x8, addend: 0x0, symName: __ZNSt3__120back_insert_iteratorI8CardDeckEC2B7v160006ERS1_, symObjAddr: 0x46C4, symBinAddr: 0x100014644, symSize: 0x20 }
  - { offsetInCU: 0x15029, offset: 0x3F739, size: 0x8, addend: 0x0, symName: __ZNSt3__18functionIFb4CardEED2Ev, symObjAddr: 0x46E4, symBinAddr: 0x100014664, symSize: 0x2C }
  - { offsetInCU: 0x15055, offset: 0x3F765, size: 0x8, addend: 0x0, symName: __ZNSt3__110__function12__value_funcIFb4CardEED1B7v160006Ev, symObjAddr: 0x4710, symBinAddr: 0x100014690, symSize: 0x2C }
  - { offsetInCU: 0x1507F, offset: 0x3F78F, size: 0x8, addend: 0x0, symName: __ZNSt3__110__function12__value_funcIFb4CardEED2B7v160006Ev, symObjAddr: 0x473C, symBinAddr: 0x1000146BC, symSize: 0x90 }
  - { offsetInCU: 0x150A9, offset: 0x3F7B9, size: 0x8, addend: 0x0, symName: __ZNSt3__116__variant_detail8__access7__union9__get_altB7v160006IRKNS0_7__unionILNS0_6_TraitE0ELm0EJ4Suit5ColorEEEEEODaOT_NS_16in_place_index_tILm0EEE, symObjAddr: 0x47CC, symBinAddr: 0x10001474C, symSize: 0x14 }
  - { offsetInCU: 0x150EB, offset: 0x3F7FB, size: 0x8, addend: 0x0, symName: __ZNSt3__116__variant_detail8__access6__base9__get_altB7v160006ILm1ERKNS0_6__baseILNS0_6_TraitE0EJ4Suit5ColorEEEEEODaOT0_, symObjAddr: 0x480C, symBinAddr: 0x10001478C, symSize: 0x24 }
  - { offsetInCU: 0x15122, offset: 0x3F832, size: 0x8, addend: 0x0, symName: '__ZNKSt3__116__variant_detail12__visitation9__variant15__value_visitorIZ18find_best_sandwich8CardDeckE3$_4EclB7v160006IJRKNS0_5__altILm1E5ColorEEEEEDcDpOT_', symObjAddr: 0x4830, symBinAddr: 0x1000147B0, symSize: 0x3C }
  - { offsetInCU: 0x1516C, offset: 0x3F87C, size: 0x8, addend: 0x0, symName: '__ZNSt3__116__variant_detail12__visitation9__variant36__std_visit_exhaustive_visitor_checkIZ18find_best_sandwich8CardDeckE3$_4JRK5ColorEEEvv', symObjAddr: 0x486C, symBinAddr: 0x1000147EC, symSize: 0x4 }
  - { offsetInCU: 0x15195, offset: 0x3F8A5, size: 0x8, addend: 0x0, symName: '__ZZ18find_best_sandwich8CardDeckENK3$_4clIRK5ColorEEDaOT_', symObjAddr: 0x489C, symBinAddr: 0x10001481C, symSize: 0xE8 }
  - { offsetInCU: 0x151D6, offset: 0x3F8E6, size: 0x8, addend: 0x0, symName: __ZNSt3__116__variant_detail8__access7__union9__get_altB7v160006IRKNS0_7__unionILNS0_6_TraitE0ELm0EJ4Suit5ColorEEELm1EEEODaOT_NS_16in_place_index_tIXT0_EEE, symObjAddr: 0x4984, symBinAddr: 0x100014904, symSize: 0x24 }
  - { offsetInCU: 0x15218, offset: 0x3F928, size: 0x8, addend: 0x0, symName: __ZNSt3__116__variant_detail8__access7__union9__get_altB7v160006IRKNS0_7__unionILNS0_6_TraitE0ELm1EJ5ColorEEEEEODaOT_NS_16in_place_index_tILm0EEE, symObjAddr: 0x49A8, symBinAddr: 0x100014928, symSize: 0x14 }
  - { offsetInCU: 0x15250, offset: 0x3F960, size: 0x8, addend: 0x0, symName: '__ZNSt3__116__variant_detail12__visitation6__base4__atB7v160006IPFvONS1_9__variant15__value_visitorIZ18find_best_sandwich8CardDeckE3$_4EERKNS0_6__baseILNS0_6_TraitE0EJ4Suit5ColorEEEEEERKT_SL_', symObjAddr: 0x49BC, symBinAddr: 0x10001493C, symSize: 0x14 }
  - { offsetInCU: 0x1527D, offset: 0x3F98D, size: 0x8, addend: 0x0, symName: '__ZNKSt3__18__farrayIPFvONS_16__variant_detail12__visitation9__variant15__value_visitorIZ18find_best_sandwich8CardDeckE3$_4EERKNS1_6__baseILNS1_6_TraitE0EJ4Suit5ColorEEEELm2EEixB7v160006Em', symObjAddr: 0x49D0, symBinAddr: 0x100014950, symSize: 0x20 }
  - { offsetInCU: 0x152B2, offset: 0x3F9C2, size: 0x8, addend: 0x0, symName: __ZNSt3__110__get_pairILm0EE3getB7v160006I8CardDeckS3_EERKT_RKNS_4pairIS4_T0_EE, symObjAddr: 0x49F0, symBinAddr: 0x100014970, symSize: 0x14 }
  - { offsetInCU: 0x152E8, offset: 0x3F9F8, size: 0x8, addend: 0x0, symName: __ZNSt3__110__get_pairILm1EE3getB7v160006I8CardDeckS3_EERKT0_RKNS_4pairIT_S4_EE, symObjAddr: 0x4A04, symBinAddr: 0x100014984, symSize: 0x18 }
  - { offsetInCU: 0x15323, offset: 0x3FA33, size: 0x8, addend: 0x0, symName: __ZNSt3__15tupleIJbi8CardDeckS1_EEC1B7v160006IJbiS1_RS1_ELi0EEEDpOT_, symObjAddr: 0x4A54, symBinAddr: 0x10001499C, symSize: 0x4C }
  - { offsetInCU: 0x153A9, offset: 0x3FAB9, size: 0x8, addend: 0x0, symName: __ZNSt3__15tupleIJbi8CardDeckS1_EEC2B7v160006IJbiS1_RS1_ELi0EEEDpOT_, symObjAddr: 0x4AA0, symBinAddr: 0x1000149E8, symSize: 0x4C }
  - { offsetInCU: 0x1542F, offset: 0x3FB3F, size: 0x8, addend: 0x0, symName: __ZNSt3__112__tuple_implINS_15__tuple_indicesIJLm0ELm1ELm2ELm3EEEEJbi8CardDeckS3_EEC1B7v160006IJLm0ELm1ELm2ELm3EEJbiS3_S3_EJEJEJbiS3_RS3_EEENS1_IJXspT_EEEENS_13__tuple_typesIJDpT0_EEENS1_IJXspT1_EEEENS8_IJDpT2_EEEDpOT3_, symObjAddr: 0x4AEC, symBinAddr: 0x100014A34, symSize: 0x4C }
  - { offsetInCU: 0x1551D, offset: 0x3FC2D, size: 0x8, addend: 0x0, symName: __ZNSt3__112__tuple_implINS_15__tuple_indicesIJLm0ELm1ELm2ELm3EEEEJbi8CardDeckS3_EEC2B7v160006IJLm0ELm1ELm2ELm3EEJbiS3_S3_EJEJEJbiS3_RS3_EEENS1_IJXspT_EEEENS_13__tuple_typesIJDpT0_EEENS1_IJXspT1_EEEENS8_IJDpT2_EEEDpOT3_, symObjAddr: 0x4B38, symBinAddr: 0x100014A80, symSize: 0x98 }
  - { offsetInCU: 0x1560B, offset: 0x3FD1B, size: 0x8, addend: 0x0, symName: __ZNSt3__112__tuple_leafILm1EiLb0EEC2B7v160006IivEEOT_, symObjAddr: 0x4BF8, symBinAddr: 0x100014B18, symSize: 0x24 }
  - { offsetInCU: 0x1564E, offset: 0x3FD5E, size: 0x8, addend: 0x0, symName: __ZNSt3__112__tuple_leafILm2E8CardDeckLb0EEC2B7v160006IS1_vEEOT_, symObjAddr: 0x4C1C, symBinAddr: 0x100014B3C, symSize: 0x34 }
  - { offsetInCU: 0x15691, offset: 0x3FDA1, size: 0x8, addend: 0x0, symName: __ZNSt3__15tupleIJbm8CardDeckS1_EEC2B7v160006IJbiS1_S1_ELi0EEEONS0_IJDpT_EEE, symObjAddr: 0x4CB0, symBinAddr: 0x100014B70, symSize: 0x34 }
  - { offsetInCU: 0x156EA, offset: 0x3FDFA, size: 0x8, addend: 0x0, symName: __ZNSt3__112__tuple_implINS_15__tuple_indicesIJLm0ELm1ELm2ELm3EEEEJbm8CardDeckS3_EEC1B7v160006INS_5tupleIJbiS3_S3_EEEvEEOT_, symObjAddr: 0x4CE4, symBinAddr: 0x100014BA4, symSize: 0x34 }
  - { offsetInCU: 0x1572D, offset: 0x3FE3D, size: 0x8, addend: 0x0, symName: __ZNSt3__112__tuple_implINS_15__tuple_indicesIJLm0ELm1ELm2ELm3EEEEJbm8CardDeckS3_EEC2B7v160006INS_5tupleIJbiS3_S3_EEEvEEOT_, symObjAddr: 0x4D18, symBinAddr: 0x100014BD8, symSize: 0x88 }
  - { offsetInCU: 0x15770, offset: 0x3FE80, size: 0x8, addend: 0x0, symName: __ZNSt3__112__tuple_leafILm1EmLb0EEC2B7v160006IivEEOT_, symObjAddr: 0x4DEC, symBinAddr: 0x100014CAC, symSize: 0x24 }
  - { offsetInCU: 0x157B3, offset: 0x3FEC3, size: 0x8, addend: 0x0, symName: __ZNSt3__112__tuple_leafILm0EbLb0EE3getB7v160006Ev, symObjAddr: 0x4E94, symBinAddr: 0x100014D20, symSize: 0x14 }
  - { offsetInCU: 0x157D9, offset: 0x3FEE9, size: 0x8, addend: 0x0, symName: __ZNSt3__112__tuple_leafILm1EiLb0EE3getB7v160006Ev, symObjAddr: 0x4EA8, symBinAddr: 0x100014D34, symSize: 0x14 }
  - { offsetInCU: 0x157FF, offset: 0x3FF0F, size: 0x8, addend: 0x0, symName: __ZNSt3__112__tuple_leafILm2E8CardDeckLb0EE3getB7v160006Ev, symObjAddr: 0x4EBC, symBinAddr: 0x100014D48, symSize: 0x14 }
  - { offsetInCU: 0x15825, offset: 0x3FF35, size: 0x8, addend: 0x0, symName: __ZNSt3__112__tuple_leafILm3E8CardDeckLb0EE3getB7v160006Ev, symObjAddr: 0x4ED0, symBinAddr: 0x100014D5C, symSize: 0x14 }
  - { offsetInCU: 0x1584B, offset: 0x3FF5B, size: 0x8, addend: 0x0, symName: __ZNSt3__15tupleIJbi8CardDeckS1_EED2Ev, symObjAddr: 0x4EE4, symBinAddr: 0x100014D70, symSize: 0x2C }
  - { offsetInCU: 0x15878, offset: 0x3FF88, size: 0x8, addend: 0x0, symName: __ZNSt3__112__tuple_implINS_15__tuple_indicesIJLm0ELm1ELm2ELm3EEEEJbi8CardDeckS3_EED1Ev, symObjAddr: 0x4F10, symBinAddr: 0x100014D9C, symSize: 0x2C }
  - { offsetInCU: 0x158A5, offset: 0x3FFB5, size: 0x8, addend: 0x0, symName: __ZNSt3__112__tuple_implINS_15__tuple_indicesIJLm0ELm1ELm2ELm3EEEEJbi8CardDeckS3_EED2Ev, symObjAddr: 0x4F3C, symBinAddr: 0x100014DC8, symSize: 0x3C }
  - { offsetInCU: 0x158D2, offset: 0x3FFE2, size: 0x8, addend: 0x0, symName: '__ZNSt3__18functionIFb4CardEEC2IZ6filter4SuitE3$_0vEET_', symObjAddr: 0x4FA4, symBinAddr: 0x100014E04, symSize: 0x38 }
  - { offsetInCU: 0x15917, offset: 0x40027, size: 0x8, addend: 0x0, symName: '__ZNSt3__110__function12__value_funcIFb4CardEEC1B7v160006IZ6filter4SuitE3$_0vEEOT_', symObjAddr: 0x4FDC, symBinAddr: 0x100014E3C, symSize: 0x50 }
  - { offsetInCU: 0x1595A, offset: 0x4006A, size: 0x8, addend: 0x0, symName: '__ZNSt3__19allocatorIZ6filter4SuitE3$_0EC1B7v160006Ev', symObjAddr: 0x502C, symBinAddr: 0x100014E8C, symSize: 0x2C }
  - { offsetInCU: 0x15984, offset: 0x40094, size: 0x8, addend: 0x0, symName: '__ZNSt3__110__function12__value_funcIFb4CardEEC1B7v160006IZ6filter4SuitE3$_0NS_9allocatorIS7_EEEEOT_RKT0_', symObjAddr: 0x5058, symBinAddr: 0x100014EB8, symSize: 0x3C }
  - { offsetInCU: 0x159DE, offset: 0x400EE, size: 0x8, addend: 0x0, symName: '__ZNSt3__19allocatorIZ6filter4SuitE3$_0EC2B7v160006Ev', symObjAddr: 0x5094, symBinAddr: 0x100014EF4, symSize: 0x2C }
  - { offsetInCU: 0x15A08, offset: 0x40118, size: 0x8, addend: 0x0, symName: '__ZNSt3__116__non_trivial_ifILb1ENS_9allocatorIZ6filter4SuitE3$_0EEEC2B7v160006Ev', symObjAddr: 0x50C0, symBinAddr: 0x100014F20, symSize: 0x14 }
  - { offsetInCU: 0x15A32, offset: 0x40142, size: 0x8, addend: 0x0, symName: '__ZNSt3__110__function12__value_funcIFb4CardEEC2B7v160006IZ6filter4SuitE3$_0NS_9allocatorIS7_EEEEOT_RKT0_', symObjAddr: 0x50D4, symBinAddr: 0x100014F34, symSize: 0x94 }
  - { offsetInCU: 0x15AD8, offset: 0x401E8, size: 0x8, addend: 0x0, symName: '__ZNSt3__19allocatorINS_10__function6__funcIZ6filter4SuitE3$_0NS0_IS4_EEFb4CardEEEEC1B7v160006IS4_EERKNS0_IT_EE', symObjAddr: 0x5180, symBinAddr: 0x100014FE0, symSize: 0x34 }
  - { offsetInCU: 0x15B1B, offset: 0x4022B, size: 0x8, addend: 0x0, symName: '__ZNSt3__19allocatorIZ6filter4SuitE3$_0EC1B7v160006INS_10__function6__funcIS2_S3_Fb4CardEEEEERKNS0_IT_EE', symObjAddr: 0x51B4, symBinAddr: 0x100015014, symSize: 0x34 }
  - { offsetInCU: 0x15B59, offset: 0x40269, size: 0x8, addend: 0x0, symName: '__ZNSt3__110__function6__funcIZ6filter4SuitE3$_0NS_9allocatorIS3_EEFb4CardEEC1B7v160006EOS3_OS5_', symObjAddr: 0x51E8, symBinAddr: 0x100015048, symSize: 0x3C }
  - { offsetInCU: 0x15BA1, offset: 0x402B1, size: 0x8, addend: 0x0, symName: '__ZNSt3__19allocatorINS_10__function6__funcIZ6filter4SuitE3$_0NS0_IS4_EEFb4CardEEEEC2B7v160006IS4_EERKNS0_IT_EE', symObjAddr: 0x5224, symBinAddr: 0x100015084, symSize: 0x30 }
  - { offsetInCU: 0x15BDF, offset: 0x402EF, size: 0x8, addend: 0x0, symName: '__ZNSt3__116__non_trivial_ifILb1ENS_9allocatorINS_10__function6__funcIZ6filter4SuitE3$_0NS1_IS5_EEFb4CardEEEEEEC2B7v160006Ev', symObjAddr: 0x5254, symBinAddr: 0x1000150B4, symSize: 0x14 }
  - { offsetInCU: 0x15C09, offset: 0x40319, size: 0x8, addend: 0x0, symName: '__ZNSt3__19allocatorIZ6filter4SuitE3$_0EC2B7v160006INS_10__function6__funcIS2_S3_Fb4CardEEEEERKNS0_IT_EE', symObjAddr: 0x5268, symBinAddr: 0x1000150C8, symSize: 0x30 }
  - { offsetInCU: 0x15C47, offset: 0x40357, size: 0x8, addend: 0x0, symName: '__ZNSt3__110__function6__funcIZ6filter4SuitE3$_0NS_9allocatorIS3_EEFb4CardEEC2B7v160006EOS3_OS5_', symObjAddr: 0x5298, symBinAddr: 0x1000150F8, symSize: 0x88 }
  - { offsetInCU: 0x15C8F, offset: 0x4039F, size: 0x8, addend: 0x0, symName: __ZNSt3__110__function6__baseIFb4CardEEC2B7v160006Ev, symObjAddr: 0x5320, symBinAddr: 0x100015180, symSize: 0x24 }
  - { offsetInCU: 0x15CB9, offset: 0x403C9, size: 0x8, addend: 0x0, symName: '__ZNSt3__110__function12__alloc_funcIZ6filter4SuitE3$_0NS_9allocatorIS3_EEFb4CardEEC1B7v160006EOS3_OS5_', symObjAddr: 0x5344, symBinAddr: 0x1000151A4, symSize: 0x3C }
  - { offsetInCU: 0x15CFF, offset: 0x4040F, size: 0x8, addend: 0x0, symName: __ZNSt3__110__function6__baseIFb4CardEED2Ev, symObjAddr: 0x5380, symBinAddr: 0x1000151E0, symSize: 0x14 }
  - { offsetInCU: 0x15D29, offset: 0x40439, size: 0x8, addend: 0x0, symName: '__ZNSt3__110__function6__funcIZ6filter4SuitE3$_0NS_9allocatorIS3_EEFb4CardEED1Ev', symObjAddr: 0x5394, symBinAddr: 0x1000151F4, symSize: 0x2C }
  - { offsetInCU: 0x15D56, offset: 0x40466, size: 0x8, addend: 0x0, symName: '__ZNSt3__110__function6__funcIZ6filter4SuitE3$_0NS_9allocatorIS3_EEFb4CardEED0Ev', symObjAddr: 0x53C0, symBinAddr: 0x100015220, symSize: 0x30 }
  - { offsetInCU: 0x15D83, offset: 0x40493, size: 0x8, addend: 0x0, symName: '__ZNKSt3__110__function6__funcIZ6filter4SuitE3$_0NS_9allocatorIS3_EEFb4CardEE7__cloneEv', symObjAddr: 0x53F0, symBinAddr: 0x100015250, symSize: 0xFC }
  - { offsetInCU: 0x15DD5, offset: 0x404E5, size: 0x8, addend: 0x0, symName: '__ZNKSt3__110__function6__funcIZ6filter4SuitE3$_0NS_9allocatorIS3_EEFb4CardEE7__cloneEPNS0_6__baseIS7_EE', symObjAddr: 0x54EC, symBinAddr: 0x10001534C, symSize: 0x58 }
  - { offsetInCU: 0x15E0C, offset: 0x4051C, size: 0x8, addend: 0x0, symName: '__ZNSt3__110__function6__funcIZ6filter4SuitE3$_0NS_9allocatorIS3_EEFb4CardEE7destroyEv', symObjAddr: 0x5544, symBinAddr: 0x1000153A4, symSize: 0x28 }
  - { offsetInCU: 0x15E34, offset: 0x40544, size: 0x8, addend: 0x0, symName: '__ZNSt3__110__function6__funcIZ6filter4SuitE3$_0NS_9allocatorIS3_EEFb4CardEE18destroy_deallocateEv', symObjAddr: 0x556C, symBinAddr: 0x1000153CC, symSize: 0x58 }
  - { offsetInCU: 0x15E77, offset: 0x40587, size: 0x8, addend: 0x0, symName: '__ZNSt3__110__function6__funcIZ6filter4SuitE3$_0NS_9allocatorIS3_EEFb4CardEEclEOS6_', symObjAddr: 0x55C4, symBinAddr: 0x100015424, symSize: 0x34 }
  - { offsetInCU: 0x15EAE, offset: 0x405BE, size: 0x8, addend: 0x0, symName: '__ZNKSt3__110__function6__funcIZ6filter4SuitE3$_0NS_9allocatorIS3_EEFb4CardEE6targetERKSt9type_info', symObjAddr: 0x55F8, symBinAddr: 0x100015458, symSize: 0x60 }
  - { offsetInCU: 0x15EE5, offset: 0x405F5, size: 0x8, addend: 0x0, symName: '__ZNKSt3__110__function6__funcIZ6filter4SuitE3$_0NS_9allocatorIS3_EEFb4CardEE11target_typeEv', symObjAddr: 0x5658, symBinAddr: 0x1000154B8, symSize: 0x18 }
  - { offsetInCU: 0x15F0D, offset: 0x4061D, size: 0x8, addend: 0x0, symName: __ZNSt3__110__function6__baseIFb4CardEED1Ev, symObjAddr: 0x5670, symBinAddr: 0x1000154D0, symSize: 0x14 }
  - { offsetInCU: 0x15F37, offset: 0x40647, size: 0x8, addend: 0x0, symName: __ZNSt3__110__function6__baseIFb4CardEED0Ev, symObjAddr: 0x5684, symBinAddr: 0x1000154E4, symSize: 0xC }
  - { offsetInCU: 0x15F61, offset: 0x40671, size: 0x8, addend: 0x0, symName: '__ZNSt3__110__function12__alloc_funcIZ6filter4SuitE3$_0NS_9allocatorIS3_EEFb4CardEEC2B7v160006EOS3_OS5_', symObjAddr: 0x5690, symBinAddr: 0x1000154F0, symSize: 0x5C }
  - { offsetInCU: 0x15FA7, offset: 0x406B7, size: 0x8, addend: 0x0, symName: '__ZNSt3__117__compressed_pairIZ6filter4SuitE3$_0NS_9allocatorIS2_EEEC1B7v160006IJOS2_EJOS4_EEENS_21piecewise_construct_tENS_5tupleIJDpT_EEENSA_IJDpT0_EEE', symObjAddr: 0x5744, symBinAddr: 0x1000155A4, symSize: 0x3C }
  - { offsetInCU: 0x16011, offset: 0x40721, size: 0x8, addend: 0x0, symName: '__ZNSt3__15tupleIJOZ6filter4SuitE3$_0EEC1B7v160006IJS2_ELi0EEEDpOT_', symObjAddr: 0x5780, symBinAddr: 0x1000155E0, symSize: 0x34 }
  - { offsetInCU: 0x1605B, offset: 0x4076B, size: 0x8, addend: 0x0, symName: '__ZNSt3__15tupleIJOZ6filter4SuitE3$_0EEC2B7v160006IJS2_ELi0EEEDpOT_', symObjAddr: 0x57B4, symBinAddr: 0x100015614, symSize: 0x34 }
  - { offsetInCU: 0x160A5, offset: 0x407B5, size: 0x8, addend: 0x0, symName: '__ZNSt3__112__tuple_implINS_15__tuple_indicesIJLm0EEEEJOZ6filter4SuitE3$_0EEC1B7v160006IJLm0EEJS5_EJEJEJS4_EEENS1_IJXspT_EEEENS_13__tuple_typesIJDpT0_EEENS1_IJXspT1_EEEENS9_IJDpT2_EEEDpOT3_', symObjAddr: 0x57E8, symBinAddr: 0x100015648, symSize: 0x34 }
  - { offsetInCU: 0x16136, offset: 0x40846, size: 0x8, addend: 0x0, symName: '__ZNSt3__112__tuple_implINS_15__tuple_indicesIJLm0EEEEJOZ6filter4SuitE3$_0EEC2B7v160006IJLm0EEJS5_EJEJEJS4_EEENS1_IJXspT_EEEENS_13__tuple_typesIJDpT0_EEENS1_IJXspT1_EEEENS9_IJDpT2_EEEDpOT3_', symObjAddr: 0x581C, symBinAddr: 0x10001567C, symSize: 0x34 }
  - { offsetInCU: 0x161C7, offset: 0x408D7, size: 0x8, addend: 0x0, symName: '__ZNSt3__112__tuple_leafILm0EOZ6filter4SuitE3$_0Lb0EEC2B7v160006IS2_vEEOT_', symObjAddr: 0x5850, symBinAddr: 0x1000156B0, symSize: 0x20 }
  - { offsetInCU: 0x1620A, offset: 0x4091A, size: 0x8, addend: 0x0, symName: '__ZNSt3__15tupleIJONS_9allocatorIZ6filter4SuitE3$_0EEEEC1B7v160006IJS4_ELi0EEEDpOT_', symObjAddr: 0x5870, symBinAddr: 0x1000156D0, symSize: 0x34 }
  - { offsetInCU: 0x16254, offset: 0x40964, size: 0x8, addend: 0x0, symName: '__ZNSt3__15tupleIJONS_9allocatorIZ6filter4SuitE3$_0EEEEC2B7v160006IJS4_ELi0EEEDpOT_', symObjAddr: 0x58A4, symBinAddr: 0x100015704, symSize: 0x34 }
  - { offsetInCU: 0x1629E, offset: 0x409AE, size: 0x8, addend: 0x0, symName: '__ZNSt3__112__tuple_implINS_15__tuple_indicesIJLm0EEEEJONS_9allocatorIZ6filter4SuitE3$_0EEEEC1B7v160006IJLm0EEJS7_EJEJEJS6_EEENS1_IJXspT_EEEENS_13__tuple_typesIJDpT0_EEENS1_IJXspT1_EEEENSB_IJDpT2_EEEDpOT3_', symObjAddr: 0x58D8, symBinAddr: 0x100015738, symSize: 0x34 }
  - { offsetInCU: 0x1632F, offset: 0x40A3F, size: 0x8, addend: 0x0, symName: '__ZNSt3__112__tuple_implINS_15__tuple_indicesIJLm0EEEEJONS_9allocatorIZ6filter4SuitE3$_0EEEEC2B7v160006IJLm0EEJS7_EJEJEJS6_EEENS1_IJXspT_EEEENS_13__tuple_typesIJDpT0_EEENS1_IJXspT1_EEEENSB_IJDpT2_EEEDpOT3_', symObjAddr: 0x590C, symBinAddr: 0x10001576C, symSize: 0x34 }
  - { offsetInCU: 0x163C0, offset: 0x40AD0, size: 0x8, addend: 0x0, symName: '__ZNSt3__112__tuple_leafILm0EONS_9allocatorIZ6filter4SuitE3$_0EELb0EEC2B7v160006IS4_vEEOT_', symObjAddr: 0x5940, symBinAddr: 0x1000157A0, symSize: 0x20 }
  - { offsetInCU: 0x16403, offset: 0x40B13, size: 0x8, addend: 0x0, symName: '__ZNSt3__117__compressed_pairIZ6filter4SuitE3$_0NS_9allocatorIS2_EEEC2B7v160006IJOS2_EJOS4_EEENS_21piecewise_construct_tENS_5tupleIJDpT_EEENSA_IJDpT0_EEE', symObjAddr: 0x5960, symBinAddr: 0x1000157C0, symSize: 0x54 }
  - { offsetInCU: 0x1646D, offset: 0x40B7D, size: 0x8, addend: 0x0, symName: '__ZNSt3__122__compressed_pair_elemIZ6filter4SuitE3$_0Li0ELb0EEC2B7v160006IJOS2_EJLm0EEEENS_21piecewise_construct_tENS_5tupleIJDpT_EEENS_15__tuple_indicesIJXspT0_EEEE', symObjAddr: 0x59B4, symBinAddr: 0x100015814, symSize: 0x44 }
  - { offsetInCU: 0x164D2, offset: 0x40BE2, size: 0x8, addend: 0x0, symName: '__ZNSt3__122__compressed_pair_elemINS_9allocatorIZ6filter4SuitE3$_0EELi1ELb1EEC2B7v160006IJOS4_EJLm0EEEENS_21piecewise_construct_tENS_5tupleIJDpT_EEENS_15__tuple_indicesIJXspT0_EEEE', symObjAddr: 0x59F8, symBinAddr: 0x100015858, symSize: 0x38 }
  - { offsetInCU: 0x16537, offset: 0x40C47, size: 0x8, addend: 0x0, symName: '__ZNSt3__112__tuple_leafILm0EOZ6filter4SuitE3$_0Lb0EE3getB7v160006Ev', symObjAddr: 0x5A54, symBinAddr: 0x1000158B4, symSize: 0x18 }
  - { offsetInCU: 0x1655D, offset: 0x40C6D, size: 0x8, addend: 0x0, symName: '__ZNSt3__112__tuple_leafILm0EONS_9allocatorIZ6filter4SuitE3$_0EELb0EE3getB7v160006Ev', symObjAddr: 0x5A90, symBinAddr: 0x1000158F0, symSize: 0x18 }
  - { offsetInCU: 0x16583, offset: 0x40C93, size: 0x8, addend: 0x0, symName: '__ZNSt3__110__function6__funcIZ6filter4SuitE3$_0NS_9allocatorIS3_EEFb4CardEED2Ev', symObjAddr: 0x5AA8, symBinAddr: 0x100015908, symSize: 0x2C }
  - { offsetInCU: 0x165B0, offset: 0x40CC0, size: 0x8, addend: 0x0, symName: '__ZNKSt3__110__function12__alloc_funcIZ6filter4SuitE3$_0NS_9allocatorIS3_EEFb4CardEE15__get_allocatorB7v160006Ev', symObjAddr: 0x5AD4, symBinAddr: 0x100015934, symSize: 0x24 }
  - { offsetInCU: 0x165D6, offset: 0x40CE6, size: 0x8, addend: 0x0, symName: '__ZNSt3__19allocatorINS_10__function6__funcIZ6filter4SuitE3$_0NS0_IS4_EEFb4CardEEEE8allocateB7v160006Em', symObjAddr: 0x5AF8, symBinAddr: 0x100015958, symSize: 0x58 }
  - { offsetInCU: 0x16619, offset: 0x40D29, size: 0x8, addend: 0x0, symName: '__ZNSt3__122__allocator_destructorINS_9allocatorINS_10__function6__funcIZ6filter4SuitE3$_0NS1_IS5_EEFb4CardEEEEEEC1B7v160006ERSA_m', symObjAddr: 0x5B50, symBinAddr: 0x1000159B0, symSize: 0x3C }
  - { offsetInCU: 0x166EB, offset: 0x40DFB, size: 0x8, addend: 0x0, symName: '__ZNSt3__110unique_ptrINS_10__function6__funcIZ6filter4SuitE3$_0NS_9allocatorIS4_EEFb4CardEEENS_22__allocator_destructorINS5_IS9_EEEEEC1B7v160006ILb1EvEEPS9_NS_16__dependent_typeINS_27__unique_ptr_deleter_sfinaeISC_EEXT_EE20__good_rval_ref_typeE', symObjAddr: 0x5B8C, symBinAddr: 0x1000159EC, symSize: 0x3C }
  - { offsetInCU: 0x1673C, offset: 0x40E4C, size: 0x8, addend: 0x0, symName: '__ZNKSt3__110unique_ptrINS_10__function6__funcIZ6filter4SuitE3$_0NS_9allocatorIS4_EEFb4CardEEENS_22__allocator_destructorINS5_IS9_EEEEE3getB7v160006Ev', symObjAddr: 0x5BC8, symBinAddr: 0x100015A28, symSize: 0x28 }
  - { offsetInCU: 0x16762, offset: 0x40E72, size: 0x8, addend: 0x0, symName: '__ZNKSt3__110__function12__alloc_funcIZ6filter4SuitE3$_0NS_9allocatorIS3_EEFb4CardEE8__targetB7v160006Ev', symObjAddr: 0x5BF0, symBinAddr: 0x100015A50, symSize: 0x24 }
  - { offsetInCU: 0x16788, offset: 0x40E98, size: 0x8, addend: 0x0, symName: '__ZNSt3__110__function6__funcIZ6filter4SuitE3$_0NS_9allocatorIS3_EEFb4CardEEC1B7v160006ERKS3_OS5_', symObjAddr: 0x5C14, symBinAddr: 0x100015A74, symSize: 0x3C }
  - { offsetInCU: 0x167D0, offset: 0x40EE0, size: 0x8, addend: 0x0, symName: '__ZNSt3__110unique_ptrINS_10__function6__funcIZ6filter4SuitE3$_0NS_9allocatorIS4_EEFb4CardEEENS_22__allocator_destructorINS5_IS9_EEEEE7releaseB7v160006Ev', symObjAddr: 0x5C50, symBinAddr: 0x100015AB0, symSize: 0x44 }
  - { offsetInCU: 0x16805, offset: 0x40F15, size: 0x8, addend: 0x0, symName: '__ZNSt3__110unique_ptrINS_10__function6__funcIZ6filter4SuitE3$_0NS_9allocatorIS4_EEFb4CardEEENS_22__allocator_destructorINS5_IS9_EEEEED1B7v160006Ev', symObjAddr: 0x5C94, symBinAddr: 0x100015AF4, symSize: 0x2C }
  - { offsetInCU: 0x1682F, offset: 0x40F3F, size: 0x8, addend: 0x0, symName: '__ZNKSt3__117__compressed_pairIZ6filter4SuitE3$_0NS_9allocatorIS2_EEE6secondB7v160006Ev', symObjAddr: 0x5CC0, symBinAddr: 0x100015B20, symSize: 0x24 }
  - { offsetInCU: 0x16855, offset: 0x40F65, size: 0x8, addend: 0x0, symName: '__ZNKSt3__122__compressed_pair_elemINS_9allocatorIZ6filter4SuitE3$_0EELi1ELb1EE5__getB7v160006Ev', symObjAddr: 0x5CE4, symBinAddr: 0x100015B44, symSize: 0x14 }
  - { offsetInCU: 0x16885, offset: 0x40F95, size: 0x8, addend: 0x0, symName: '__ZNSt3__116allocator_traitsINS_9allocatorINS_10__function6__funcIZ6filter4SuitE3$_0NS1_IS5_EEFb4CardEEEEEE8max_sizeB7v160006ISA_vEEmRKSA_', symObjAddr: 0x5CF8, symBinAddr: 0x100015B58, symSize: 0x24 }
  - { offsetInCU: 0x168B3, offset: 0x40FC3, size: 0x8, addend: 0x0, symName: '__ZNKSt3__19allocatorINS_10__function6__funcIZ6filter4SuitE3$_0NS0_IS4_EEFb4CardEEEE8max_sizeB7v160006Ev', symObjAddr: 0x5DB0, symBinAddr: 0x100015B7C, symSize: 0x14 }
  - { offsetInCU: 0x168D9, offset: 0x40FE9, size: 0x8, addend: 0x0, symName: '__ZNSt3__122__allocator_destructorINS_9allocatorINS_10__function6__funcIZ6filter4SuitE3$_0NS1_IS5_EEFb4CardEEEEEEC2B7v160006ERSA_m', symObjAddr: 0x5E14, symBinAddr: 0x100015B90, symSize: 0x2C }
  - { offsetInCU: 0x1691F, offset: 0x4102F, size: 0x8, addend: 0x0, symName: '__ZNSt3__110unique_ptrINS_10__function6__funcIZ6filter4SuitE3$_0NS_9allocatorIS4_EEFb4CardEEENS_22__allocator_destructorINS5_IS9_EEEEEC2B7v160006ILb1EvEEPS9_NS_16__dependent_typeINS_27__unique_ptr_deleter_sfinaeISC_EEXT_EE20__good_rval_ref_typeE', symObjAddr: 0x5E40, symBinAddr: 0x100015BBC, symSize: 0x48 }
  - { offsetInCU: 0x16970, offset: 0x41080, size: 0x8, addend: 0x0, symName: '__ZNSt3__117__compressed_pairIPNS_10__function6__funcIZ6filter4SuitE3$_0NS_9allocatorIS4_EEFb4CardEEENS_22__allocator_destructorINS5_IS9_EEEEEC1B7v160006IRSA_SD_EEOT_OT0_', symObjAddr: 0x5E88, symBinAddr: 0x100015C04, symSize: 0x3C }
  - { offsetInCU: 0x169C8, offset: 0x410D8, size: 0x8, addend: 0x0, symName: '__ZNSt3__117__compressed_pairIPNS_10__function6__funcIZ6filter4SuitE3$_0NS_9allocatorIS4_EEFb4CardEEENS_22__allocator_destructorINS5_IS9_EEEEEC2B7v160006IRSA_SD_EEOT_OT0_', symObjAddr: 0x5EC4, symBinAddr: 0x100015C40, symSize: 0x48 }
  - { offsetInCU: 0x16A20, offset: 0x41130, size: 0x8, addend: 0x0, symName: '__ZNSt3__122__compressed_pair_elemIPNS_10__function6__funcIZ6filter4SuitE3$_0NS_9allocatorIS4_EEFb4CardEEELi0ELb0EEC2B7v160006IRSA_vEEOT_', symObjAddr: 0x5F0C, symBinAddr: 0x100015C88, symSize: 0x24 }
  - { offsetInCU: 0x16A62, offset: 0x41172, size: 0x8, addend: 0x0, symName: '__ZNSt3__122__compressed_pair_elemINS_22__allocator_destructorINS_9allocatorINS_10__function6__funcIZ6filter4SuitE3$_0NS2_IS6_EEFb4CardEEEEEEELi1ELb0EEC2B7v160006ISC_vEEOT_', symObjAddr: 0x5F30, symBinAddr: 0x100015CAC, symSize: 0x24 }
  - { offsetInCU: 0x16AA4, offset: 0x411B4, size: 0x8, addend: 0x0, symName: '__ZNKSt3__117__compressed_pairIPNS_10__function6__funcIZ6filter4SuitE3$_0NS_9allocatorIS4_EEFb4CardEEENS_22__allocator_destructorINS5_IS9_EEEEE5firstB7v160006Ev', symObjAddr: 0x5F54, symBinAddr: 0x100015CD0, symSize: 0x24 }
  - { offsetInCU: 0x16ACA, offset: 0x411DA, size: 0x8, addend: 0x0, symName: '__ZNKSt3__122__compressed_pair_elemIPNS_10__function6__funcIZ6filter4SuitE3$_0NS_9allocatorIS4_EEFb4CardEEELi0ELb0EE5__getB7v160006Ev', symObjAddr: 0x5F78, symBinAddr: 0x100015CF4, symSize: 0x14 }
  - { offsetInCU: 0x16AF0, offset: 0x41200, size: 0x8, addend: 0x0, symName: '__ZNKSt3__117__compressed_pairIZ6filter4SuitE3$_0NS_9allocatorIS2_EEE5firstB7v160006Ev', symObjAddr: 0x5F8C, symBinAddr: 0x100015D08, symSize: 0x24 }
  - { offsetInCU: 0x16B16, offset: 0x41226, size: 0x8, addend: 0x0, symName: '__ZNKSt3__122__compressed_pair_elemIZ6filter4SuitE3$_0Li0ELb0EE5__getB7v160006Ev', symObjAddr: 0x5FB0, symBinAddr: 0x100015D2C, symSize: 0x14 }
  - { offsetInCU: 0x16B3C, offset: 0x4124C, size: 0x8, addend: 0x0, symName: '__ZNSt3__110__function6__funcIZ6filter4SuitE3$_0NS_9allocatorIS3_EEFb4CardEEC2B7v160006ERKS3_OS5_', symObjAddr: 0x5FC4, symBinAddr: 0x100015D40, symSize: 0x88 }
  - { offsetInCU: 0x16B84, offset: 0x41294, size: 0x8, addend: 0x0, symName: '__ZNSt3__110__function12__alloc_funcIZ6filter4SuitE3$_0NS_9allocatorIS3_EEFb4CardEEC1B7v160006ERKS3_OS5_', symObjAddr: 0x604C, symBinAddr: 0x100015DC8, symSize: 0x3C }
  - { offsetInCU: 0x16BCA, offset: 0x412DA, size: 0x8, addend: 0x0, symName: '__ZNSt3__110__function12__alloc_funcIZ6filter4SuitE3$_0NS_9allocatorIS3_EEFb4CardEEC2B7v160006ERKS3_OS5_', symObjAddr: 0x6088, symBinAddr: 0x100015E04, symSize: 0x5C }
  - { offsetInCU: 0x16C10, offset: 0x41320, size: 0x8, addend: 0x0, symName: '__ZNSt3__117__compressed_pairIZ6filter4SuitE3$_0NS_9allocatorIS2_EEEC1B7v160006IJRKS2_EJOS4_EEENS_21piecewise_construct_tENS_5tupleIJDpT_EEENSB_IJDpT0_EEE', symObjAddr: 0x6110, symBinAddr: 0x100015E8C, symSize: 0x3C }
  - { offsetInCU: 0x16C7A, offset: 0x4138A, size: 0x8, addend: 0x0, symName: '__ZNSt3__15tupleIJRKZ6filter4SuitE3$_0EEC1B7v160006INS_4_AndELi0EEES4_', symObjAddr: 0x614C, symBinAddr: 0x100015EC8, symSize: 0x34 }
  - { offsetInCU: 0x16CC3, offset: 0x413D3, size: 0x8, addend: 0x0, symName: '__ZNSt3__15tupleIJRKZ6filter4SuitE3$_0EEC2B7v160006INS_4_AndELi0EEES4_', symObjAddr: 0x6180, symBinAddr: 0x100015EFC, symSize: 0x34 }
  - { offsetInCU: 0x16D0C, offset: 0x4141C, size: 0x8, addend: 0x0, symName: '__ZNSt3__112__tuple_implINS_15__tuple_indicesIJLm0EEEEJRKZ6filter4SuitE3$_0EEC1B7v160006IJLm0EEJS6_EJEJEJS6_EEENS1_IJXspT_EEEENS_13__tuple_typesIJDpT0_EEENS1_IJXspT1_EEEENSA_IJDpT2_EEEDpOT3_', symObjAddr: 0x61B4, symBinAddr: 0x100015F30, symSize: 0x34 }
  - { offsetInCU: 0x16D9D, offset: 0x414AD, size: 0x8, addend: 0x0, symName: '__ZNSt3__112__tuple_implINS_15__tuple_indicesIJLm0EEEEJRKZ6filter4SuitE3$_0EEC2B7v160006IJLm0EEJS6_EJEJEJS6_EEENS1_IJXspT_EEEENS_13__tuple_typesIJDpT0_EEENS1_IJXspT1_EEEENSA_IJDpT2_EEEDpOT3_', symObjAddr: 0x61E8, symBinAddr: 0x100015F64, symSize: 0x34 }
  - { offsetInCU: 0x16E2E, offset: 0x4153E, size: 0x8, addend: 0x0, symName: '__ZNSt3__112__tuple_leafILm0ERKZ6filter4SuitE3$_0Lb0EEC2B7v160006IS4_vEEOT_', symObjAddr: 0x621C, symBinAddr: 0x100015F98, symSize: 0x20 }
  - { offsetInCU: 0x16E71, offset: 0x41581, size: 0x8, addend: 0x0, symName: '__ZNSt3__117__compressed_pairIZ6filter4SuitE3$_0NS_9allocatorIS2_EEEC2B7v160006IJRKS2_EJOS4_EEENS_21piecewise_construct_tENS_5tupleIJDpT_EEENSB_IJDpT0_EEE', symObjAddr: 0x623C, symBinAddr: 0x100015FB8, symSize: 0x54 }
  - { offsetInCU: 0x16EDB, offset: 0x415EB, size: 0x8, addend: 0x0, symName: '__ZNSt3__122__compressed_pair_elemIZ6filter4SuitE3$_0Li0ELb0EEC2B7v160006IJRKS2_EJLm0EEEENS_21piecewise_construct_tENS_5tupleIJDpT_EEENS_15__tuple_indicesIJXspT0_EEEE', symObjAddr: 0x6290, symBinAddr: 0x10001600C, symSize: 0x44 }
  - { offsetInCU: 0x16F40, offset: 0x41650, size: 0x8, addend: 0x0, symName: '__ZNSt3__112__tuple_leafILm0ERKZ6filter4SuitE3$_0Lb0EE3getB7v160006Ev', symObjAddr: 0x62F8, symBinAddr: 0x100016074, symSize: 0x18 }
  - { offsetInCU: 0x16F66, offset: 0x41676, size: 0x8, addend: 0x0, symName: '__ZNSt3__117__compressed_pairIPNS_10__function6__funcIZ6filter4SuitE3$_0NS_9allocatorIS4_EEFb4CardEEENS_22__allocator_destructorINS5_IS9_EEEEE5firstB7v160006Ev', symObjAddr: 0x6310, symBinAddr: 0x10001608C, symSize: 0x24 }
  - { offsetInCU: 0x16F8C, offset: 0x4169C, size: 0x8, addend: 0x0, symName: '__ZNSt3__122__compressed_pair_elemIPNS_10__function6__funcIZ6filter4SuitE3$_0NS_9allocatorIS4_EEFb4CardEEELi0ELb0EE5__getB7v160006Ev', symObjAddr: 0x6334, symBinAddr: 0x1000160B0, symSize: 0x14 }
  - { offsetInCU: 0x16FB2, offset: 0x416C2, size: 0x8, addend: 0x0, symName: '__ZNSt3__110unique_ptrINS_10__function6__funcIZ6filter4SuitE3$_0NS_9allocatorIS4_EEFb4CardEEENS_22__allocator_destructorINS5_IS9_EEEEED2B7v160006Ev', symObjAddr: 0x6348, symBinAddr: 0x1000160C4, symSize: 0x30 }
  - { offsetInCU: 0x16FDC, offset: 0x416EC, size: 0x8, addend: 0x0, symName: '__ZNSt3__110unique_ptrINS_10__function6__funcIZ6filter4SuitE3$_0NS_9allocatorIS4_EEFb4CardEEENS_22__allocator_destructorINS5_IS9_EEEEE5resetB7v160006EPS9_', symObjAddr: 0x6378, symBinAddr: 0x1000160F4, symSize: 0x78 }
  - { offsetInCU: 0x17020, offset: 0x41730, size: 0x8, addend: 0x0, symName: '__ZNSt3__117__compressed_pairIPNS_10__function6__funcIZ6filter4SuitE3$_0NS_9allocatorIS4_EEFb4CardEEENS_22__allocator_destructorINS5_IS9_EEEEE6secondB7v160006Ev', symObjAddr: 0x63F0, symBinAddr: 0x10001616C, symSize: 0x28 }
  - { offsetInCU: 0x17046, offset: 0x41756, size: 0x8, addend: 0x0, symName: '__ZNSt3__122__allocator_destructorINS_9allocatorINS_10__function6__funcIZ6filter4SuitE3$_0NS1_IS5_EEFb4CardEEEEEEclB7v160006EPS9_', symObjAddr: 0x6418, symBinAddr: 0x100016194, symSize: 0x34 }
  - { offsetInCU: 0x1707A, offset: 0x4178A, size: 0x8, addend: 0x0, symName: '__ZNSt3__122__compressed_pair_elemINS_22__allocator_destructorINS_9allocatorINS_10__function6__funcIZ6filter4SuitE3$_0NS2_IS6_EEFb4CardEEEEEEELi1ELb0EE5__getB7v160006Ev', symObjAddr: 0x644C, symBinAddr: 0x1000161C8, symSize: 0x14 }
  - { offsetInCU: 0x170A0, offset: 0x417B0, size: 0x8, addend: 0x0, symName: '__ZNSt3__116allocator_traitsINS_9allocatorINS_10__function6__funcIZ6filter4SuitE3$_0NS1_IS5_EEFb4CardEEEEEE10deallocateB7v160006ERSA_PS9_m', symObjAddr: 0x6460, symBinAddr: 0x1000161DC, symSize: 0x34 }
  - { offsetInCU: 0x170E2, offset: 0x417F2, size: 0x8, addend: 0x0, symName: '__ZNSt3__19allocatorINS_10__function6__funcIZ6filter4SuitE3$_0NS0_IS4_EEFb4CardEEEE10deallocateB7v160006EPS8_m', symObjAddr: 0x6494, symBinAddr: 0x100016210, symSize: 0x40 }
  - { offsetInCU: 0x17124, offset: 0x41834, size: 0x8, addend: 0x0, symName: '__ZNSt3__110__function6__funcIZ6filter4SuitE3$_0NS_9allocatorIS3_EEFb4CardEEC1B7v160006ERKS3_RKS5_', symObjAddr: 0x64D4, symBinAddr: 0x100016250, symSize: 0x3C }
  - { offsetInCU: 0x1716C, offset: 0x4187C, size: 0x8, addend: 0x0, symName: '__ZNSt3__110__function6__funcIZ6filter4SuitE3$_0NS_9allocatorIS3_EEFb4CardEEC2B7v160006ERKS3_RKS5_', symObjAddr: 0x6510, symBinAddr: 0x10001628C, symSize: 0x88 }
  - { offsetInCU: 0x171B4, offset: 0x418C4, size: 0x8, addend: 0x0, symName: '__ZNSt3__110__function12__alloc_funcIZ6filter4SuitE3$_0NS_9allocatorIS3_EEFb4CardEEC1B7v160006ERKS3_RKS5_', symObjAddr: 0x6598, symBinAddr: 0x100016314, symSize: 0x3C }
  - { offsetInCU: 0x171FA, offset: 0x4190A, size: 0x8, addend: 0x0, symName: '__ZNSt3__110__function12__alloc_funcIZ6filter4SuitE3$_0NS_9allocatorIS3_EEFb4CardEEC2B7v160006ERKS3_RKS5_', symObjAddr: 0x65D4, symBinAddr: 0x100016350, symSize: 0x5C }
  - { offsetInCU: 0x17240, offset: 0x41950, size: 0x8, addend: 0x0, symName: '__ZNSt3__117__compressed_pairIZ6filter4SuitE3$_0NS_9allocatorIS2_EEEC1B7v160006IJRKS2_EJRKS4_EEENS_21piecewise_construct_tENS_5tupleIJDpT_EEENSC_IJDpT0_EEE', symObjAddr: 0x665C, symBinAddr: 0x1000163D8, symSize: 0x3C }
  - { offsetInCU: 0x172AA, offset: 0x419BA, size: 0x8, addend: 0x0, symName: '__ZNSt3__15tupleIJRKNS_9allocatorIZ6filter4SuitE3$_0EEEEC1B7v160006INS_4_AndELi0EEES6_', symObjAddr: 0x6698, symBinAddr: 0x100016414, symSize: 0x34 }
  - { offsetInCU: 0x172F3, offset: 0x41A03, size: 0x8, addend: 0x0, symName: '__ZNSt3__15tupleIJRKNS_9allocatorIZ6filter4SuitE3$_0EEEEC2B7v160006INS_4_AndELi0EEES6_', symObjAddr: 0x66CC, symBinAddr: 0x100016448, symSize: 0x34 }
  - { offsetInCU: 0x1733C, offset: 0x41A4C, size: 0x8, addend: 0x0, symName: '__ZNSt3__112__tuple_implINS_15__tuple_indicesIJLm0EEEEJRKNS_9allocatorIZ6filter4SuitE3$_0EEEEC1B7v160006IJLm0EEJS8_EJEJEJS8_EEENS1_IJXspT_EEEENS_13__tuple_typesIJDpT0_EEENS1_IJXspT1_EEEENSC_IJDpT2_EEEDpOT3_', symObjAddr: 0x6700, symBinAddr: 0x10001647C, symSize: 0x34 }
  - { offsetInCU: 0x173CD, offset: 0x41ADD, size: 0x8, addend: 0x0, symName: '__ZNSt3__112__tuple_implINS_15__tuple_indicesIJLm0EEEEJRKNS_9allocatorIZ6filter4SuitE3$_0EEEEC2B7v160006IJLm0EEJS8_EJEJEJS8_EEENS1_IJXspT_EEEENS_13__tuple_typesIJDpT0_EEENS1_IJXspT1_EEEENSC_IJDpT2_EEEDpOT3_', symObjAddr: 0x6734, symBinAddr: 0x1000164B0, symSize: 0x34 }
  - { offsetInCU: 0x1745E, offset: 0x41B6E, size: 0x8, addend: 0x0, symName: '__ZNSt3__112__tuple_leafILm0ERKNS_9allocatorIZ6filter4SuitE3$_0EELb0EEC2B7v160006IS6_vEEOT_', symObjAddr: 0x6768, symBinAddr: 0x1000164E4, symSize: 0x20 }
  - { offsetInCU: 0x174A1, offset: 0x41BB1, size: 0x8, addend: 0x0, symName: '__ZNSt3__117__compressed_pairIZ6filter4SuitE3$_0NS_9allocatorIS2_EEEC2B7v160006IJRKS2_EJRKS4_EEENS_21piecewise_construct_tENS_5tupleIJDpT_EEENSC_IJDpT0_EEE', symObjAddr: 0x6788, symBinAddr: 0x100016504, symSize: 0x54 }
  - { offsetInCU: 0x1750B, offset: 0x41C1B, size: 0x8, addend: 0x0, symName: '__ZNSt3__122__compressed_pair_elemINS_9allocatorIZ6filter4SuitE3$_0EELi1ELb1EEC2B7v160006IJRKS4_EJLm0EEEENS_21piecewise_construct_tENS_5tupleIJDpT_EEENS_15__tuple_indicesIJXspT0_EEEE', symObjAddr: 0x67DC, symBinAddr: 0x100016558, symSize: 0x38 }
  - { offsetInCU: 0x17570, offset: 0x41C80, size: 0x8, addend: 0x0, symName: '__ZNSt3__112__tuple_leafILm0ERKNS_9allocatorIZ6filter4SuitE3$_0EELb0EE3getB7v160006Ev', symObjAddr: 0x6838, symBinAddr: 0x1000165B4, symSize: 0x18 }
  - { offsetInCU: 0x17596, offset: 0x41CA6, size: 0x8, addend: 0x0, symName: '__ZNSt3__110__function12__alloc_funcIZ6filter4SuitE3$_0NS_9allocatorIS3_EEFb4CardEE7destroyB7v160006Ev', symObjAddr: 0x6850, symBinAddr: 0x1000165CC, symSize: 0x10 }
  - { offsetInCU: 0x175BC, offset: 0x41CCC, size: 0x8, addend: 0x0, symName: '__ZNSt3__110__function12__alloc_funcIZ6filter4SuitE3$_0NS_9allocatorIS3_EEFb4CardEEclB7v160006EOS6_', symObjAddr: 0x6860, symBinAddr: 0x1000165DC, symSize: 0x34 }
  - { offsetInCU: 0x175F0, offset: 0x41D00, size: 0x8, addend: 0x0, symName: '__ZNSt3__128__invoke_void_return_wrapperIbLb0EE6__callIJRZ6filter4SuitE3$_04CardEEEbDpOT_', symObjAddr: 0x6894, symBinAddr: 0x100016610, symSize: 0x30 }
  - { offsetInCU: 0x17633, offset: 0x41D43, size: 0x8, addend: 0x0, symName: '__ZNSt3__117__compressed_pairIZ6filter4SuitE3$_0NS_9allocatorIS2_EEE5firstB7v160006Ev', symObjAddr: 0x68C4, symBinAddr: 0x100016640, symSize: 0x24 }
  - { offsetInCU: 0x1765E, offset: 0x41D6E, size: 0x8, addend: 0x0, symName: '__ZZ6filter4SuitENK3$_0clE4Card', symObjAddr: 0x697C, symBinAddr: 0x1000166F8, symSize: 0x9C }
  - { offsetInCU: 0x17696, offset: 0x41DA6, size: 0x8, addend: 0x0, symName: '__ZNSt3__122__compressed_pair_elemIZ6filter4SuitE3$_0Li0ELb0EE5__getB7v160006Ev', symObjAddr: 0x6A18, symBinAddr: 0x100016794, symSize: 0x14 }
  - { offsetInCU: 0x176F2, offset: 0x41E02, size: 0x8, addend: 0x0, symName: __ZNKSt9type_infoeqB7v160006ERKS_, symObjAddr: 0x6A2C, symBinAddr: 0x1000167A8, symSize: 0xDC }
  - { offsetInCU: 0x17790, offset: 0x41EA0, size: 0x8, addend: 0x0, symName: __ZNSt27__type_info_implementations30__non_unique_arm_rtti_bit_impl21__is_type_name_uniqueB7v160006Em, symObjAddr: 0x6B08, symBinAddr: 0x100016884, symSize: 0x20 }
  - { offsetInCU: 0x177B4, offset: 0x41EC4, size: 0x8, addend: 0x0, symName: '__ZNSt3__18functionIFb4CardEEC2IZ6filter5ColorE3$_1vEET_', symObjAddr: 0x6B28, symBinAddr: 0x1000168A4, symSize: 0x38 }
  - { offsetInCU: 0x177F9, offset: 0x41F09, size: 0x8, addend: 0x0, symName: '__ZNSt3__110__function12__value_funcIFb4CardEEC1B7v160006IZ6filter5ColorE3$_1vEEOT_', symObjAddr: 0x6B60, symBinAddr: 0x1000168DC, symSize: 0x50 }
  - { offsetInCU: 0x1783C, offset: 0x41F4C, size: 0x8, addend: 0x0, symName: '__ZNSt3__19allocatorIZ6filter5ColorE3$_1EC1B7v160006Ev', symObjAddr: 0x6BB0, symBinAddr: 0x10001692C, symSize: 0x2C }
  - { offsetInCU: 0x17866, offset: 0x41F76, size: 0x8, addend: 0x0, symName: '__ZNSt3__110__function12__value_funcIFb4CardEEC1B7v160006IZ6filter5ColorE3$_1NS_9allocatorIS7_EEEEOT_RKT0_', symObjAddr: 0x6BDC, symBinAddr: 0x100016958, symSize: 0x3C }
  - { offsetInCU: 0x178C0, offset: 0x41FD0, size: 0x8, addend: 0x0, symName: '__ZNSt3__19allocatorIZ6filter5ColorE3$_1EC2B7v160006Ev', symObjAddr: 0x6C18, symBinAddr: 0x100016994, symSize: 0x2C }
  - { offsetInCU: 0x178EA, offset: 0x41FFA, size: 0x8, addend: 0x0, symName: '__ZNSt3__116__non_trivial_ifILb1ENS_9allocatorIZ6filter5ColorE3$_1EEEC2B7v160006Ev', symObjAddr: 0x6C44, symBinAddr: 0x1000169C0, symSize: 0x14 }
  - { offsetInCU: 0x17914, offset: 0x42024, size: 0x8, addend: 0x0, symName: '__ZNSt3__110__function12__value_funcIFb4CardEEC2B7v160006IZ6filter5ColorE3$_1NS_9allocatorIS7_EEEEOT_RKT0_', symObjAddr: 0x6C58, symBinAddr: 0x1000169D4, symSize: 0x94 }
  - { offsetInCU: 0x179BA, offset: 0x420CA, size: 0x8, addend: 0x0, symName: '__ZNSt3__19allocatorINS_10__function6__funcIZ6filter5ColorE3$_1NS0_IS4_EEFb4CardEEEEC1B7v160006IS4_EERKNS0_IT_EE', symObjAddr: 0x6D04, symBinAddr: 0x100016A80, symSize: 0x34 }
  - { offsetInCU: 0x179FD, offset: 0x4210D, size: 0x8, addend: 0x0, symName: '__ZNSt3__19allocatorIZ6filter5ColorE3$_1EC1B7v160006INS_10__function6__funcIS2_S3_Fb4CardEEEEERKNS0_IT_EE', symObjAddr: 0x6D38, symBinAddr: 0x100016AB4, symSize: 0x34 }
  - { offsetInCU: 0x17A3B, offset: 0x4214B, size: 0x8, addend: 0x0, symName: '__ZNSt3__110__function6__funcIZ6filter5ColorE3$_1NS_9allocatorIS3_EEFb4CardEEC1B7v160006EOS3_OS5_', symObjAddr: 0x6D6C, symBinAddr: 0x100016AE8, symSize: 0x3C }
  - { offsetInCU: 0x17A83, offset: 0x42193, size: 0x8, addend: 0x0, symName: '__ZNSt3__19allocatorINS_10__function6__funcIZ6filter5ColorE3$_1NS0_IS4_EEFb4CardEEEEC2B7v160006IS4_EERKNS0_IT_EE', symObjAddr: 0x6DA8, symBinAddr: 0x100016B24, symSize: 0x30 }
  - { offsetInCU: 0x17AC1, offset: 0x421D1, size: 0x8, addend: 0x0, symName: '__ZNSt3__116__non_trivial_ifILb1ENS_9allocatorINS_10__function6__funcIZ6filter5ColorE3$_1NS1_IS5_EEFb4CardEEEEEEC2B7v160006Ev', symObjAddr: 0x6DD8, symBinAddr: 0x100016B54, symSize: 0x14 }
  - { offsetInCU: 0x17AEB, offset: 0x421FB, size: 0x8, addend: 0x0, symName: '__ZNSt3__19allocatorIZ6filter5ColorE3$_1EC2B7v160006INS_10__function6__funcIS2_S3_Fb4CardEEEEERKNS0_IT_EE', symObjAddr: 0x6DEC, symBinAddr: 0x100016B68, symSize: 0x30 }
  - { offsetInCU: 0x17B29, offset: 0x42239, size: 0x8, addend: 0x0, symName: '__ZNSt3__110__function6__funcIZ6filter5ColorE3$_1NS_9allocatorIS3_EEFb4CardEEC2B7v160006EOS3_OS5_', symObjAddr: 0x6E1C, symBinAddr: 0x100016B98, symSize: 0x88 }
  - { offsetInCU: 0x17B71, offset: 0x42281, size: 0x8, addend: 0x0, symName: '__ZNSt3__110__function12__alloc_funcIZ6filter5ColorE3$_1NS_9allocatorIS3_EEFb4CardEEC1B7v160006EOS3_OS5_', symObjAddr: 0x6EA4, symBinAddr: 0x100016C20, symSize: 0x3C }
  - { offsetInCU: 0x17BB7, offset: 0x422C7, size: 0x8, addend: 0x0, symName: '__ZNSt3__110__function6__funcIZ6filter5ColorE3$_1NS_9allocatorIS3_EEFb4CardEED1Ev', symObjAddr: 0x6EE0, symBinAddr: 0x100016C5C, symSize: 0x2C }
  - { offsetInCU: 0x17BE4, offset: 0x422F4, size: 0x8, addend: 0x0, symName: '__ZNSt3__110__function6__funcIZ6filter5ColorE3$_1NS_9allocatorIS3_EEFb4CardEED0Ev', symObjAddr: 0x6F0C, symBinAddr: 0x100016C88, symSize: 0x30 }
  - { offsetInCU: 0x17C11, offset: 0x42321, size: 0x8, addend: 0x0, symName: '__ZNKSt3__110__function6__funcIZ6filter5ColorE3$_1NS_9allocatorIS3_EEFb4CardEE7__cloneEv', symObjAddr: 0x6F3C, symBinAddr: 0x100016CB8, symSize: 0xFC }
  - { offsetInCU: 0x17C63, offset: 0x42373, size: 0x8, addend: 0x0, symName: '__ZNKSt3__110__function6__funcIZ6filter5ColorE3$_1NS_9allocatorIS3_EEFb4CardEE7__cloneEPNS0_6__baseIS7_EE', symObjAddr: 0x7038, symBinAddr: 0x100016DB4, symSize: 0x58 }
  - { offsetInCU: 0x17C9A, offset: 0x423AA, size: 0x8, addend: 0x0, symName: '__ZNSt3__110__function6__funcIZ6filter5ColorE3$_1NS_9allocatorIS3_EEFb4CardEE7destroyEv', symObjAddr: 0x7090, symBinAddr: 0x100016E0C, symSize: 0x28 }
  - { offsetInCU: 0x17CC2, offset: 0x423D2, size: 0x8, addend: 0x0, symName: '__ZNSt3__110__function6__funcIZ6filter5ColorE3$_1NS_9allocatorIS3_EEFb4CardEE18destroy_deallocateEv', symObjAddr: 0x70B8, symBinAddr: 0x100016E34, symSize: 0x58 }
  - { offsetInCU: 0x17D05, offset: 0x42415, size: 0x8, addend: 0x0, symName: '__ZNSt3__110__function6__funcIZ6filter5ColorE3$_1NS_9allocatorIS3_EEFb4CardEEclEOS6_', symObjAddr: 0x7110, symBinAddr: 0x100016E8C, symSize: 0x34 }
  - { offsetInCU: 0x17D3C, offset: 0x4244C, size: 0x8, addend: 0x0, symName: '__ZNKSt3__110__function6__funcIZ6filter5ColorE3$_1NS_9allocatorIS3_EEFb4CardEE6targetERKSt9type_info', symObjAddr: 0x7144, symBinAddr: 0x100016EC0, symSize: 0x60 }
  - { offsetInCU: 0x17D73, offset: 0x42483, size: 0x8, addend: 0x0, symName: '__ZNKSt3__110__function6__funcIZ6filter5ColorE3$_1NS_9allocatorIS3_EEFb4CardEE11target_typeEv', symObjAddr: 0x71A4, symBinAddr: 0x100016F20, symSize: 0x18 }
  - { offsetInCU: 0x17D9B, offset: 0x424AB, size: 0x8, addend: 0x0, symName: '__ZNSt3__110__function12__alloc_funcIZ6filter5ColorE3$_1NS_9allocatorIS3_EEFb4CardEEC2B7v160006EOS3_OS5_', symObjAddr: 0x71BC, symBinAddr: 0x100016F38, symSize: 0x5C }
  - { offsetInCU: 0x17DE1, offset: 0x424F1, size: 0x8, addend: 0x0, symName: '__ZNSt3__117__compressed_pairIZ6filter5ColorE3$_1NS_9allocatorIS2_EEEC1B7v160006IJOS2_EJOS4_EEENS_21piecewise_construct_tENS_5tupleIJDpT_EEENSA_IJDpT0_EEE', symObjAddr: 0x7270, symBinAddr: 0x100016FEC, symSize: 0x3C }
  - { offsetInCU: 0x17E4B, offset: 0x4255B, size: 0x8, addend: 0x0, symName: '__ZNSt3__15tupleIJOZ6filter5ColorE3$_1EEC1B7v160006IJS2_ELi0EEEDpOT_', symObjAddr: 0x72AC, symBinAddr: 0x100017028, symSize: 0x34 }
  - { offsetInCU: 0x17E95, offset: 0x425A5, size: 0x8, addend: 0x0, symName: '__ZNSt3__15tupleIJOZ6filter5ColorE3$_1EEC2B7v160006IJS2_ELi0EEEDpOT_', symObjAddr: 0x72E0, symBinAddr: 0x10001705C, symSize: 0x34 }
  - { offsetInCU: 0x17EDF, offset: 0x425EF, size: 0x8, addend: 0x0, symName: '__ZNSt3__112__tuple_implINS_15__tuple_indicesIJLm0EEEEJOZ6filter5ColorE3$_1EEC1B7v160006IJLm0EEJS5_EJEJEJS4_EEENS1_IJXspT_EEEENS_13__tuple_typesIJDpT0_EEENS1_IJXspT1_EEEENS9_IJDpT2_EEEDpOT3_', symObjAddr: 0x7314, symBinAddr: 0x100017090, symSize: 0x34 }
  - { offsetInCU: 0x17F70, offset: 0x42680, size: 0x8, addend: 0x0, symName: '__ZNSt3__112__tuple_implINS_15__tuple_indicesIJLm0EEEEJOZ6filter5ColorE3$_1EEC2B7v160006IJLm0EEJS5_EJEJEJS4_EEENS1_IJXspT_EEEENS_13__tuple_typesIJDpT0_EEENS1_IJXspT1_EEEENS9_IJDpT2_EEEDpOT3_', symObjAddr: 0x7348, symBinAddr: 0x1000170C4, symSize: 0x34 }
  - { offsetInCU: 0x18001, offset: 0x42711, size: 0x8, addend: 0x0, symName: '__ZNSt3__112__tuple_leafILm0EOZ6filter5ColorE3$_1Lb0EEC2B7v160006IS2_vEEOT_', symObjAddr: 0x737C, symBinAddr: 0x1000170F8, symSize: 0x20 }
  - { offsetInCU: 0x18044, offset: 0x42754, size: 0x8, addend: 0x0, symName: '__ZNSt3__15tupleIJONS_9allocatorIZ6filter5ColorE3$_1EEEEC1B7v160006IJS4_ELi0EEEDpOT_', symObjAddr: 0x739C, symBinAddr: 0x100017118, symSize: 0x34 }
  - { offsetInCU: 0x1808E, offset: 0x4279E, size: 0x8, addend: 0x0, symName: '__ZNSt3__15tupleIJONS_9allocatorIZ6filter5ColorE3$_1EEEEC2B7v160006IJS4_ELi0EEEDpOT_', symObjAddr: 0x73D0, symBinAddr: 0x10001714C, symSize: 0x34 }
  - { offsetInCU: 0x180D8, offset: 0x427E8, size: 0x8, addend: 0x0, symName: '__ZNSt3__112__tuple_implINS_15__tuple_indicesIJLm0EEEEJONS_9allocatorIZ6filter5ColorE3$_1EEEEC1B7v160006IJLm0EEJS7_EJEJEJS6_EEENS1_IJXspT_EEEENS_13__tuple_typesIJDpT0_EEENS1_IJXspT1_EEEENSB_IJDpT2_EEEDpOT3_', symObjAddr: 0x7404, symBinAddr: 0x100017180, symSize: 0x34 }
  - { offsetInCU: 0x18169, offset: 0x42879, size: 0x8, addend: 0x0, symName: '__ZNSt3__112__tuple_implINS_15__tuple_indicesIJLm0EEEEJONS_9allocatorIZ6filter5ColorE3$_1EEEEC2B7v160006IJLm0EEJS7_EJEJEJS6_EEENS1_IJXspT_EEEENS_13__tuple_typesIJDpT0_EEENS1_IJXspT1_EEEENSB_IJDpT2_EEEDpOT3_', symObjAddr: 0x7438, symBinAddr: 0x1000171B4, symSize: 0x34 }
  - { offsetInCU: 0x181FA, offset: 0x4290A, size: 0x8, addend: 0x0, symName: '__ZNSt3__112__tuple_leafILm0EONS_9allocatorIZ6filter5ColorE3$_1EELb0EEC2B7v160006IS4_vEEOT_', symObjAddr: 0x746C, symBinAddr: 0x1000171E8, symSize: 0x20 }
  - { offsetInCU: 0x1823D, offset: 0x4294D, size: 0x8, addend: 0x0, symName: '__ZNSt3__117__compressed_pairIZ6filter5ColorE3$_1NS_9allocatorIS2_EEEC2B7v160006IJOS2_EJOS4_EEENS_21piecewise_construct_tENS_5tupleIJDpT_EEENSA_IJDpT0_EEE', symObjAddr: 0x748C, symBinAddr: 0x100017208, symSize: 0x54 }
  - { offsetInCU: 0x182A7, offset: 0x429B7, size: 0x8, addend: 0x0, symName: '__ZNSt3__122__compressed_pair_elemIZ6filter5ColorE3$_1Li0ELb0EEC2B7v160006IJOS2_EJLm0EEEENS_21piecewise_construct_tENS_5tupleIJDpT_EEENS_15__tuple_indicesIJXspT0_EEEE', symObjAddr: 0x74E0, symBinAddr: 0x10001725C, symSize: 0x44 }
  - { offsetInCU: 0x1830C, offset: 0x42A1C, size: 0x8, addend: 0x0, symName: '__ZNSt3__122__compressed_pair_elemINS_9allocatorIZ6filter5ColorE3$_1EELi1ELb1EEC2B7v160006IJOS4_EJLm0EEEENS_21piecewise_construct_tENS_5tupleIJDpT_EEENS_15__tuple_indicesIJXspT0_EEEE', symObjAddr: 0x7524, symBinAddr: 0x1000172A0, symSize: 0x38 }
  - { offsetInCU: 0x18371, offset: 0x42A81, size: 0x8, addend: 0x0, symName: '__ZNSt3__112__tuple_leafILm0EOZ6filter5ColorE3$_1Lb0EE3getB7v160006Ev', symObjAddr: 0x7580, symBinAddr: 0x1000172FC, symSize: 0x18 }
  - { offsetInCU: 0x18397, offset: 0x42AA7, size: 0x8, addend: 0x0, symName: '__ZNSt3__112__tuple_leafILm0EONS_9allocatorIZ6filter5ColorE3$_1EELb0EE3getB7v160006Ev', symObjAddr: 0x75BC, symBinAddr: 0x100017338, symSize: 0x18 }
  - { offsetInCU: 0x183BD, offset: 0x42ACD, size: 0x8, addend: 0x0, symName: '__ZNSt3__110__function6__funcIZ6filter5ColorE3$_1NS_9allocatorIS3_EEFb4CardEED2Ev', symObjAddr: 0x75D4, symBinAddr: 0x100017350, symSize: 0x2C }
  - { offsetInCU: 0x183EA, offset: 0x42AFA, size: 0x8, addend: 0x0, symName: '__ZNKSt3__110__function12__alloc_funcIZ6filter5ColorE3$_1NS_9allocatorIS3_EEFb4CardEE15__get_allocatorB7v160006Ev', symObjAddr: 0x7600, symBinAddr: 0x10001737C, symSize: 0x24 }
  - { offsetInCU: 0x18410, offset: 0x42B20, size: 0x8, addend: 0x0, symName: '__ZNSt3__19allocatorINS_10__function6__funcIZ6filter5ColorE3$_1NS0_IS4_EEFb4CardEEEE8allocateB7v160006Em', symObjAddr: 0x7624, symBinAddr: 0x1000173A0, symSize: 0x58 }
  - { offsetInCU: 0x18453, offset: 0x42B63, size: 0x8, addend: 0x0, symName: '__ZNSt3__122__allocator_destructorINS_9allocatorINS_10__function6__funcIZ6filter5ColorE3$_1NS1_IS5_EEFb4CardEEEEEEC1B7v160006ERSA_m', symObjAddr: 0x767C, symBinAddr: 0x1000173F8, symSize: 0x3C }
  - { offsetInCU: 0x18525, offset: 0x42C35, size: 0x8, addend: 0x0, symName: '__ZNSt3__110unique_ptrINS_10__function6__funcIZ6filter5ColorE3$_1NS_9allocatorIS4_EEFb4CardEEENS_22__allocator_destructorINS5_IS9_EEEEEC1B7v160006ILb1EvEEPS9_NS_16__dependent_typeINS_27__unique_ptr_deleter_sfinaeISC_EEXT_EE20__good_rval_ref_typeE', symObjAddr: 0x76B8, symBinAddr: 0x100017434, symSize: 0x3C }
  - { offsetInCU: 0x18576, offset: 0x42C86, size: 0x8, addend: 0x0, symName: '__ZNKSt3__110unique_ptrINS_10__function6__funcIZ6filter5ColorE3$_1NS_9allocatorIS4_EEFb4CardEEENS_22__allocator_destructorINS5_IS9_EEEEE3getB7v160006Ev', symObjAddr: 0x76F4, symBinAddr: 0x100017470, symSize: 0x28 }
  - { offsetInCU: 0x1859C, offset: 0x42CAC, size: 0x8, addend: 0x0, symName: '__ZNKSt3__110__function12__alloc_funcIZ6filter5ColorE3$_1NS_9allocatorIS3_EEFb4CardEE8__targetB7v160006Ev', symObjAddr: 0x771C, symBinAddr: 0x100017498, symSize: 0x24 }
  - { offsetInCU: 0x185C2, offset: 0x42CD2, size: 0x8, addend: 0x0, symName: '__ZNSt3__110__function6__funcIZ6filter5ColorE3$_1NS_9allocatorIS3_EEFb4CardEEC1B7v160006ERKS3_OS5_', symObjAddr: 0x7740, symBinAddr: 0x1000174BC, symSize: 0x3C }
  - { offsetInCU: 0x1860A, offset: 0x42D1A, size: 0x8, addend: 0x0, symName: '__ZNSt3__110unique_ptrINS_10__function6__funcIZ6filter5ColorE3$_1NS_9allocatorIS4_EEFb4CardEEENS_22__allocator_destructorINS5_IS9_EEEEE7releaseB7v160006Ev', symObjAddr: 0x777C, symBinAddr: 0x1000174F8, symSize: 0x44 }
  - { offsetInCU: 0x1863F, offset: 0x42D4F, size: 0x8, addend: 0x0, symName: '__ZNSt3__110unique_ptrINS_10__function6__funcIZ6filter5ColorE3$_1NS_9allocatorIS4_EEFb4CardEEENS_22__allocator_destructorINS5_IS9_EEEEED1B7v160006Ev', symObjAddr: 0x77C0, symBinAddr: 0x10001753C, symSize: 0x2C }
  - { offsetInCU: 0x18669, offset: 0x42D79, size: 0x8, addend: 0x0, symName: '__ZNKSt3__117__compressed_pairIZ6filter5ColorE3$_1NS_9allocatorIS2_EEE6secondB7v160006Ev', symObjAddr: 0x77EC, symBinAddr: 0x100017568, symSize: 0x24 }
  - { offsetInCU: 0x1868F, offset: 0x42D9F, size: 0x8, addend: 0x0, symName: '__ZNKSt3__122__compressed_pair_elemINS_9allocatorIZ6filter5ColorE3$_1EELi1ELb1EE5__getB7v160006Ev', symObjAddr: 0x7810, symBinAddr: 0x10001758C, symSize: 0x14 }
  - { offsetInCU: 0x186BF, offset: 0x42DCF, size: 0x8, addend: 0x0, symName: '__ZNSt3__116allocator_traitsINS_9allocatorINS_10__function6__funcIZ6filter5ColorE3$_1NS1_IS5_EEFb4CardEEEEEE8max_sizeB7v160006ISA_vEEmRKSA_', symObjAddr: 0x7824, symBinAddr: 0x1000175A0, symSize: 0x24 }
  - { offsetInCU: 0x186ED, offset: 0x42DFD, size: 0x8, addend: 0x0, symName: '__ZNKSt3__19allocatorINS_10__function6__funcIZ6filter5ColorE3$_1NS0_IS4_EEFb4CardEEEE8max_sizeB7v160006Ev', symObjAddr: 0x7848, symBinAddr: 0x1000175C4, symSize: 0x14 }
  - { offsetInCU: 0x18713, offset: 0x42E23, size: 0x8, addend: 0x0, symName: '__ZNSt3__122__allocator_destructorINS_9allocatorINS_10__function6__funcIZ6filter5ColorE3$_1NS1_IS5_EEFb4CardEEEEEEC2B7v160006ERSA_m', symObjAddr: 0x785C, symBinAddr: 0x1000175D8, symSize: 0x2C }
  - { offsetInCU: 0x18759, offset: 0x42E69, size: 0x8, addend: 0x0, symName: '__ZNSt3__110unique_ptrINS_10__function6__funcIZ6filter5ColorE3$_1NS_9allocatorIS4_EEFb4CardEEENS_22__allocator_destructorINS5_IS9_EEEEEC2B7v160006ILb1EvEEPS9_NS_16__dependent_typeINS_27__unique_ptr_deleter_sfinaeISC_EEXT_EE20__good_rval_ref_typeE', symObjAddr: 0x7888, symBinAddr: 0x100017604, symSize: 0x48 }
  - { offsetInCU: 0x187AA, offset: 0x42EBA, size: 0x8, addend: 0x0, symName: '__ZNSt3__117__compressed_pairIPNS_10__function6__funcIZ6filter5ColorE3$_1NS_9allocatorIS4_EEFb4CardEEENS_22__allocator_destructorINS5_IS9_EEEEEC1B7v160006IRSA_SD_EEOT_OT0_', symObjAddr: 0x78D0, symBinAddr: 0x10001764C, symSize: 0x3C }
  - { offsetInCU: 0x18802, offset: 0x42F12, size: 0x8, addend: 0x0, symName: '__ZNSt3__117__compressed_pairIPNS_10__function6__funcIZ6filter5ColorE3$_1NS_9allocatorIS4_EEFb4CardEEENS_22__allocator_destructorINS5_IS9_EEEEEC2B7v160006IRSA_SD_EEOT_OT0_', symObjAddr: 0x790C, symBinAddr: 0x100017688, symSize: 0x48 }
  - { offsetInCU: 0x1885A, offset: 0x42F6A, size: 0x8, addend: 0x0, symName: '__ZNSt3__122__compressed_pair_elemIPNS_10__function6__funcIZ6filter5ColorE3$_1NS_9allocatorIS4_EEFb4CardEEELi0ELb0EEC2B7v160006IRSA_vEEOT_', symObjAddr: 0x7954, symBinAddr: 0x1000176D0, symSize: 0x24 }
  - { offsetInCU: 0x1889C, offset: 0x42FAC, size: 0x8, addend: 0x0, symName: '__ZNSt3__122__compressed_pair_elemINS_22__allocator_destructorINS_9allocatorINS_10__function6__funcIZ6filter5ColorE3$_1NS2_IS6_EEFb4CardEEEEEEELi1ELb0EEC2B7v160006ISC_vEEOT_', symObjAddr: 0x7978, symBinAddr: 0x1000176F4, symSize: 0x24 }
  - { offsetInCU: 0x188DE, offset: 0x42FEE, size: 0x8, addend: 0x0, symName: '__ZNKSt3__117__compressed_pairIPNS_10__function6__funcIZ6filter5ColorE3$_1NS_9allocatorIS4_EEFb4CardEEENS_22__allocator_destructorINS5_IS9_EEEEE5firstB7v160006Ev', symObjAddr: 0x799C, symBinAddr: 0x100017718, symSize: 0x24 }
  - { offsetInCU: 0x18904, offset: 0x43014, size: 0x8, addend: 0x0, symName: '__ZNKSt3__122__compressed_pair_elemIPNS_10__function6__funcIZ6filter5ColorE3$_1NS_9allocatorIS4_EEFb4CardEEELi0ELb0EE5__getB7v160006Ev', symObjAddr: 0x79C0, symBinAddr: 0x10001773C, symSize: 0x14 }
  - { offsetInCU: 0x1892A, offset: 0x4303A, size: 0x8, addend: 0x0, symName: '__ZNKSt3__117__compressed_pairIZ6filter5ColorE3$_1NS_9allocatorIS2_EEE5firstB7v160006Ev', symObjAddr: 0x79D4, symBinAddr: 0x100017750, symSize: 0x24 }
  - { offsetInCU: 0x18950, offset: 0x43060, size: 0x8, addend: 0x0, symName: '__ZNKSt3__122__compressed_pair_elemIZ6filter5ColorE3$_1Li0ELb0EE5__getB7v160006Ev', symObjAddr: 0x79F8, symBinAddr: 0x100017774, symSize: 0x14 }
  - { offsetInCU: 0x18976, offset: 0x43086, size: 0x8, addend: 0x0, symName: '__ZNSt3__110__function6__funcIZ6filter5ColorE3$_1NS_9allocatorIS3_EEFb4CardEEC2B7v160006ERKS3_OS5_', symObjAddr: 0x7A0C, symBinAddr: 0x100017788, symSize: 0x88 }
  - { offsetInCU: 0x189BE, offset: 0x430CE, size: 0x8, addend: 0x0, symName: '__ZNSt3__110__function12__alloc_funcIZ6filter5ColorE3$_1NS_9allocatorIS3_EEFb4CardEEC1B7v160006ERKS3_OS5_', symObjAddr: 0x7A94, symBinAddr: 0x100017810, symSize: 0x3C }
  - { offsetInCU: 0x18A04, offset: 0x43114, size: 0x8, addend: 0x0, symName: '__ZNSt3__110__function12__alloc_funcIZ6filter5ColorE3$_1NS_9allocatorIS3_EEFb4CardEEC2B7v160006ERKS3_OS5_', symObjAddr: 0x7AD0, symBinAddr: 0x10001784C, symSize: 0x5C }
  - { offsetInCU: 0x18A4A, offset: 0x4315A, size: 0x8, addend: 0x0, symName: '__ZNSt3__117__compressed_pairIZ6filter5ColorE3$_1NS_9allocatorIS2_EEEC1B7v160006IJRKS2_EJOS4_EEENS_21piecewise_construct_tENS_5tupleIJDpT_EEENSB_IJDpT0_EEE', symObjAddr: 0x7B58, symBinAddr: 0x1000178D4, symSize: 0x3C }
  - { offsetInCU: 0x18AB4, offset: 0x431C4, size: 0x8, addend: 0x0, symName: '__ZNSt3__15tupleIJRKZ6filter5ColorE3$_1EEC1B7v160006INS_4_AndELi0EEES4_', symObjAddr: 0x7B94, symBinAddr: 0x100017910, symSize: 0x34 }
  - { offsetInCU: 0x18AFD, offset: 0x4320D, size: 0x8, addend: 0x0, symName: '__ZNSt3__15tupleIJRKZ6filter5ColorE3$_1EEC2B7v160006INS_4_AndELi0EEES4_', symObjAddr: 0x7BC8, symBinAddr: 0x100017944, symSize: 0x34 }
  - { offsetInCU: 0x18B46, offset: 0x43256, size: 0x8, addend: 0x0, symName: '__ZNSt3__112__tuple_implINS_15__tuple_indicesIJLm0EEEEJRKZ6filter5ColorE3$_1EEC1B7v160006IJLm0EEJS6_EJEJEJS6_EEENS1_IJXspT_EEEENS_13__tuple_typesIJDpT0_EEENS1_IJXspT1_EEEENSA_IJDpT2_EEEDpOT3_', symObjAddr: 0x7BFC, symBinAddr: 0x100017978, symSize: 0x34 }
  - { offsetInCU: 0x18BD7, offset: 0x432E7, size: 0x8, addend: 0x0, symName: '__ZNSt3__112__tuple_implINS_15__tuple_indicesIJLm0EEEEJRKZ6filter5ColorE3$_1EEC2B7v160006IJLm0EEJS6_EJEJEJS6_EEENS1_IJXspT_EEEENS_13__tuple_typesIJDpT0_EEENS1_IJXspT1_EEEENSA_IJDpT2_EEEDpOT3_', symObjAddr: 0x7C30, symBinAddr: 0x1000179AC, symSize: 0x34 }
  - { offsetInCU: 0x18C68, offset: 0x43378, size: 0x8, addend: 0x0, symName: '__ZNSt3__112__tuple_leafILm0ERKZ6filter5ColorE3$_1Lb0EEC2B7v160006IS4_vEEOT_', symObjAddr: 0x7C64, symBinAddr: 0x1000179E0, symSize: 0x20 }
  - { offsetInCU: 0x18CAB, offset: 0x433BB, size: 0x8, addend: 0x0, symName: '__ZNSt3__117__compressed_pairIZ6filter5ColorE3$_1NS_9allocatorIS2_EEEC2B7v160006IJRKS2_EJOS4_EEENS_21piecewise_construct_tENS_5tupleIJDpT_EEENSB_IJDpT0_EEE', symObjAddr: 0x7C84, symBinAddr: 0x100017A00, symSize: 0x54 }
  - { offsetInCU: 0x18D15, offset: 0x43425, size: 0x8, addend: 0x0, symName: '__ZNSt3__122__compressed_pair_elemIZ6filter5ColorE3$_1Li0ELb0EEC2B7v160006IJRKS2_EJLm0EEEENS_21piecewise_construct_tENS_5tupleIJDpT_EEENS_15__tuple_indicesIJXspT0_EEEE', symObjAddr: 0x7CD8, symBinAddr: 0x100017A54, symSize: 0x44 }
  - { offsetInCU: 0x18D7A, offset: 0x4348A, size: 0x8, addend: 0x0, symName: '__ZNSt3__112__tuple_leafILm0ERKZ6filter5ColorE3$_1Lb0EE3getB7v160006Ev', symObjAddr: 0x7D40, symBinAddr: 0x100017ABC, symSize: 0x18 }
  - { offsetInCU: 0x18DA0, offset: 0x434B0, size: 0x8, addend: 0x0, symName: '__ZNSt3__117__compressed_pairIPNS_10__function6__funcIZ6filter5ColorE3$_1NS_9allocatorIS4_EEFb4CardEEENS_22__allocator_destructorINS5_IS9_EEEEE5firstB7v160006Ev', symObjAddr: 0x7D58, symBinAddr: 0x100017AD4, symSize: 0x24 }
  - { offsetInCU: 0x18DC6, offset: 0x434D6, size: 0x8, addend: 0x0, symName: '__ZNSt3__122__compressed_pair_elemIPNS_10__function6__funcIZ6filter5ColorE3$_1NS_9allocatorIS4_EEFb4CardEEELi0ELb0EE5__getB7v160006Ev', symObjAddr: 0x7D7C, symBinAddr: 0x100017AF8, symSize: 0x14 }
  - { offsetInCU: 0x18DEC, offset: 0x434FC, size: 0x8, addend: 0x0, symName: '__ZNSt3__110unique_ptrINS_10__function6__funcIZ6filter5ColorE3$_1NS_9allocatorIS4_EEFb4CardEEENS_22__allocator_destructorINS5_IS9_EEEEED2B7v160006Ev', symObjAddr: 0x7D90, symBinAddr: 0x100017B0C, symSize: 0x30 }
  - { offsetInCU: 0x18E16, offset: 0x43526, size: 0x8, addend: 0x0, symName: '__ZNSt3__110unique_ptrINS_10__function6__funcIZ6filter5ColorE3$_1NS_9allocatorIS4_EEFb4CardEEENS_22__allocator_destructorINS5_IS9_EEEEE5resetB7v160006EPS9_', symObjAddr: 0x7DC0, symBinAddr: 0x100017B3C, symSize: 0x78 }
  - { offsetInCU: 0x18E5A, offset: 0x4356A, size: 0x8, addend: 0x0, symName: '__ZNSt3__117__compressed_pairIPNS_10__function6__funcIZ6filter5ColorE3$_1NS_9allocatorIS4_EEFb4CardEEENS_22__allocator_destructorINS5_IS9_EEEEE6secondB7v160006Ev', symObjAddr: 0x7E38, symBinAddr: 0x100017BB4, symSize: 0x28 }
  - { offsetInCU: 0x18E80, offset: 0x43590, size: 0x8, addend: 0x0, symName: '__ZNSt3__122__allocator_destructorINS_9allocatorINS_10__function6__funcIZ6filter5ColorE3$_1NS1_IS5_EEFb4CardEEEEEEclB7v160006EPS9_', symObjAddr: 0x7E60, symBinAddr: 0x100017BDC, symSize: 0x34 }
  - { offsetInCU: 0x18EB4, offset: 0x435C4, size: 0x8, addend: 0x0, symName: '__ZNSt3__122__compressed_pair_elemINS_22__allocator_destructorINS_9allocatorINS_10__function6__funcIZ6filter5ColorE3$_1NS2_IS6_EEFb4CardEEEEEEELi1ELb0EE5__getB7v160006Ev', symObjAddr: 0x7E94, symBinAddr: 0x100017C10, symSize: 0x14 }
  - { offsetInCU: 0x18EDA, offset: 0x435EA, size: 0x8, addend: 0x0, symName: '__ZNSt3__116allocator_traitsINS_9allocatorINS_10__function6__funcIZ6filter5ColorE3$_1NS1_IS5_EEFb4CardEEEEEE10deallocateB7v160006ERSA_PS9_m', symObjAddr: 0x7EA8, symBinAddr: 0x100017C24, symSize: 0x34 }
  - { offsetInCU: 0x18F1C, offset: 0x4362C, size: 0x8, addend: 0x0, symName: '__ZNSt3__19allocatorINS_10__function6__funcIZ6filter5ColorE3$_1NS0_IS4_EEFb4CardEEEE10deallocateB7v160006EPS8_m', symObjAddr: 0x7EDC, symBinAddr: 0x100017C58, symSize: 0x40 }
  - { offsetInCU: 0x18F5E, offset: 0x4366E, size: 0x8, addend: 0x0, symName: '__ZNSt3__110__function6__funcIZ6filter5ColorE3$_1NS_9allocatorIS3_EEFb4CardEEC1B7v160006ERKS3_RKS5_', symObjAddr: 0x7F1C, symBinAddr: 0x100017C98, symSize: 0x3C }
  - { offsetInCU: 0x18FA6, offset: 0x436B6, size: 0x8, addend: 0x0, symName: '__ZNSt3__110__function6__funcIZ6filter5ColorE3$_1NS_9allocatorIS3_EEFb4CardEEC2B7v160006ERKS3_RKS5_', symObjAddr: 0x7F58, symBinAddr: 0x100017CD4, symSize: 0x88 }
  - { offsetInCU: 0x18FEE, offset: 0x436FE, size: 0x8, addend: 0x0, symName: '__ZNSt3__110__function12__alloc_funcIZ6filter5ColorE3$_1NS_9allocatorIS3_EEFb4CardEEC1B7v160006ERKS3_RKS5_', symObjAddr: 0x7FE0, symBinAddr: 0x100017D5C, symSize: 0x3C }
  - { offsetInCU: 0x19034, offset: 0x43744, size: 0x8, addend: 0x0, symName: '__ZNSt3__110__function12__alloc_funcIZ6filter5ColorE3$_1NS_9allocatorIS3_EEFb4CardEEC2B7v160006ERKS3_RKS5_', symObjAddr: 0x801C, symBinAddr: 0x100017D98, symSize: 0x5C }
  - { offsetInCU: 0x1907A, offset: 0x4378A, size: 0x8, addend: 0x0, symName: '__ZNSt3__117__compressed_pairIZ6filter5ColorE3$_1NS_9allocatorIS2_EEEC1B7v160006IJRKS2_EJRKS4_EEENS_21piecewise_construct_tENS_5tupleIJDpT_EEENSC_IJDpT0_EEE', symObjAddr: 0x80A4, symBinAddr: 0x100017E20, symSize: 0x3C }
  - { offsetInCU: 0x190E4, offset: 0x437F4, size: 0x8, addend: 0x0, symName: '__ZNSt3__15tupleIJRKNS_9allocatorIZ6filter5ColorE3$_1EEEEC1B7v160006INS_4_AndELi0EEES6_', symObjAddr: 0x80E0, symBinAddr: 0x100017E5C, symSize: 0x34 }
  - { offsetInCU: 0x1912D, offset: 0x4383D, size: 0x8, addend: 0x0, symName: '__ZNSt3__15tupleIJRKNS_9allocatorIZ6filter5ColorE3$_1EEEEC2B7v160006INS_4_AndELi0EEES6_', symObjAddr: 0x8114, symBinAddr: 0x100017E90, symSize: 0x34 }
  - { offsetInCU: 0x19176, offset: 0x43886, size: 0x8, addend: 0x0, symName: '__ZNSt3__112__tuple_implINS_15__tuple_indicesIJLm0EEEEJRKNS_9allocatorIZ6filter5ColorE3$_1EEEEC1B7v160006IJLm0EEJS8_EJEJEJS8_EEENS1_IJXspT_EEEENS_13__tuple_typesIJDpT0_EEENS1_IJXspT1_EEEENSC_IJDpT2_EEEDpOT3_', symObjAddr: 0x8148, symBinAddr: 0x100017EC4, symSize: 0x34 }
  - { offsetInCU: 0x19207, offset: 0x43917, size: 0x8, addend: 0x0, symName: '__ZNSt3__112__tuple_implINS_15__tuple_indicesIJLm0EEEEJRKNS_9allocatorIZ6filter5ColorE3$_1EEEEC2B7v160006IJLm0EEJS8_EJEJEJS8_EEENS1_IJXspT_EEEENS_13__tuple_typesIJDpT0_EEENS1_IJXspT1_EEEENSC_IJDpT2_EEEDpOT3_', symObjAddr: 0x817C, symBinAddr: 0x100017EF8, symSize: 0x34 }
  - { offsetInCU: 0x19298, offset: 0x439A8, size: 0x8, addend: 0x0, symName: '__ZNSt3__112__tuple_leafILm0ERKNS_9allocatorIZ6filter5ColorE3$_1EELb0EEC2B7v160006IS6_vEEOT_', symObjAddr: 0x81B0, symBinAddr: 0x100017F2C, symSize: 0x20 }
  - { offsetInCU: 0x192DB, offset: 0x439EB, size: 0x8, addend: 0x0, symName: '__ZNSt3__117__compressed_pairIZ6filter5ColorE3$_1NS_9allocatorIS2_EEEC2B7v160006IJRKS2_EJRKS4_EEENS_21piecewise_construct_tENS_5tupleIJDpT_EEENSC_IJDpT0_EEE', symObjAddr: 0x81D0, symBinAddr: 0x100017F4C, symSize: 0x54 }
  - { offsetInCU: 0x19345, offset: 0x43A55, size: 0x8, addend: 0x0, symName: '__ZNSt3__122__compressed_pair_elemINS_9allocatorIZ6filter5ColorE3$_1EELi1ELb1EEC2B7v160006IJRKS4_EJLm0EEEENS_21piecewise_construct_tENS_5tupleIJDpT_EEENS_15__tuple_indicesIJXspT0_EEEE', symObjAddr: 0x8224, symBinAddr: 0x100017FA0, symSize: 0x38 }
  - { offsetInCU: 0x193AA, offset: 0x43ABA, size: 0x8, addend: 0x0, symName: '__ZNSt3__112__tuple_leafILm0ERKNS_9allocatorIZ6filter5ColorE3$_1EELb0EE3getB7v160006Ev', symObjAddr: 0x8280, symBinAddr: 0x100017FFC, symSize: 0x18 }
  - { offsetInCU: 0x193D0, offset: 0x43AE0, size: 0x8, addend: 0x0, symName: '__ZNSt3__110__function12__alloc_funcIZ6filter5ColorE3$_1NS_9allocatorIS3_EEFb4CardEE7destroyB7v160006Ev', symObjAddr: 0x8298, symBinAddr: 0x100018014, symSize: 0x10 }
  - { offsetInCU: 0x193F6, offset: 0x43B06, size: 0x8, addend: 0x0, symName: '__ZNSt3__110__function12__alloc_funcIZ6filter5ColorE3$_1NS_9allocatorIS3_EEFb4CardEEclB7v160006EOS6_', symObjAddr: 0x82A8, symBinAddr: 0x100018024, symSize: 0x34 }
  - { offsetInCU: 0x1942A, offset: 0x43B3A, size: 0x8, addend: 0x0, symName: '__ZNSt3__128__invoke_void_return_wrapperIbLb0EE6__callIJRZ6filter5ColorE3$_14CardEEEbDpOT_', symObjAddr: 0x82DC, symBinAddr: 0x100018058, symSize: 0x30 }
  - { offsetInCU: 0x1946D, offset: 0x43B7D, size: 0x8, addend: 0x0, symName: '__ZNSt3__117__compressed_pairIZ6filter5ColorE3$_1NS_9allocatorIS2_EEE5firstB7v160006Ev', symObjAddr: 0x830C, symBinAddr: 0x100018088, symSize: 0x24 }
  - { offsetInCU: 0x19498, offset: 0x43BA8, size: 0x8, addend: 0x0, symName: '__ZZ6filter5ColorENK3$_1clE4Card', symObjAddr: 0x83C4, symBinAddr: 0x100018140, symSize: 0x9C }
  - { offsetInCU: 0x194D0, offset: 0x43BE0, size: 0x8, addend: 0x0, symName: '__ZNSt3__122__compressed_pair_elemIZ6filter5ColorE3$_1Li0ELb0EE5__getB7v160006Ev', symObjAddr: 0x8460, symBinAddr: 0x1000181DC, symSize: 0x14 }
  - { offsetInCU: 0x194F6, offset: 0x43C06, size: 0x8, addend: 0x0, symName: __ZNSt3__113unordered_mapI4Suit5ColorNS_4hashIS1_EENS_8equal_toIS1_EENS_9allocatorINS_4pairIKS1_S2_EEEEEC2ESt16initializer_listISA_E, symObjAddr: 0x8474, symBinAddr: 0x1000181F0, symSize: 0x94 }
  - { offsetInCU: 0x19531, offset: 0x43C41, size: 0x8, addend: 0x0, symName: __ZNSt3__112__hash_tableINS_17__hash_value_typeI4Suit5ColorEENS_22__unordered_map_hasherIS2_S4_NS_4hashIS2_EENS_8equal_toIS2_EELb1EEENS_21__unordered_map_equalIS2_S4_S9_S7_Lb1EEENS_9allocatorIS4_EEEC1Ev, symObjAddr: 0x8508, symBinAddr: 0x100018284, symSize: 0x2C }
  - { offsetInCU: 0x1955D, offset: 0x43C6D, size: 0x8, addend: 0x0, symName: __ZNSt3__113unordered_mapI4Suit5ColorNS_4hashIS1_EENS_8equal_toIS1_EENS_9allocatorINS_4pairIKS1_S2_EEEEE6insertIPKSA_EEvT_SG_, symObjAddr: 0x8544, symBinAddr: 0x1000182C0, symSize: 0x70 }
  - { offsetInCU: 0x195AC, offset: 0x43CBC, size: 0x8, addend: 0x0, symName: __ZNKSt16initializer_listINSt3__14pairIK4Suit5ColorEEE5beginB7v160006Ev, symObjAddr: 0x85B4, symBinAddr: 0x100018330, symSize: 0x18 }
  - { offsetInCU: 0x195D2, offset: 0x43CE2, size: 0x8, addend: 0x0, symName: __ZNKSt16initializer_listINSt3__14pairIK4Suit5ColorEEE3endB7v160006Ev, symObjAddr: 0x85CC, symBinAddr: 0x100018348, symSize: 0x20 }
  - { offsetInCU: 0x195F8, offset: 0x43D08, size: 0x8, addend: 0x0, symName: __ZNSt3__112__hash_tableINS_17__hash_value_typeI4Suit5ColorEENS_22__unordered_map_hasherIS2_S4_NS_4hashIS2_EENS_8equal_toIS2_EELb1EEENS_21__unordered_map_equalIS2_S4_S9_S7_Lb1EEENS_9allocatorIS4_EEED1Ev, symObjAddr: 0x85EC, symBinAddr: 0x100018368, symSize: 0x2C }
  - { offsetInCU: 0x19624, offset: 0x43D34, size: 0x8, addend: 0x0, symName: __ZNSt3__112__hash_tableINS_17__hash_value_typeI4Suit5ColorEENS_22__unordered_map_hasherIS2_S4_NS_4hashIS2_EENS_8equal_toIS2_EELb1EEENS_21__unordered_map_equalIS2_S4_S9_S7_Lb1EEENS_9allocatorIS4_EEEC2Ev, symObjAddr: 0x8618, symBinAddr: 0x100018394, symSize: 0x7C }
  - { offsetInCU: 0x19650, offset: 0x43D60, size: 0x8, addend: 0x0, symName: __ZNSt3__110unique_ptrIA_PNS_16__hash_node_baseIPNS_11__hash_nodeINS_17__hash_value_typeI4Suit5ColorEEPvEEEENS_25__bucket_list_deallocatorINS_9allocatorISB_EEEEEC1B7v160006ILb1EvEEv, symObjAddr: 0x8694, symBinAddr: 0x100018410, symSize: 0x2C }
  - { offsetInCU: 0x19685, offset: 0x43D95, size: 0x8, addend: 0x0, symName: __ZNSt3__117__compressed_pairINS_16__hash_node_baseIPNS_11__hash_nodeINS_17__hash_value_typeI4Suit5ColorEEPvEEEENS_9allocatorIS8_EEEC1B7v160006ILb1EvEEv, symObjAddr: 0x86C0, symBinAddr: 0x10001843C, symSize: 0x2C }
  - { offsetInCU: 0x196BA, offset: 0x43DCA, size: 0x8, addend: 0x0, symName: __ZNSt3__117__compressed_pairImNS_22__unordered_map_hasherI4SuitNS_17__hash_value_typeIS2_5ColorEENS_4hashIS2_EENS_8equal_toIS2_EELb1EEEEC1B7v160006IiNS_18__default_init_tagEEEOT_OT0_, symObjAddr: 0x86EC, symBinAddr: 0x100018468, symSize: 0x3C }
  - { offsetInCU: 0x19717, offset: 0x43E27, size: 0x8, addend: 0x0, symName: __ZNSt3__117__compressed_pairIfNS_21__unordered_map_equalI4SuitNS_17__hash_value_typeIS2_5ColorEENS_8equal_toIS2_EENS_4hashIS2_EELb1EEEEC1B7v160006IfNS_18__default_init_tagEEEOT_OT0_, symObjAddr: 0x8728, symBinAddr: 0x1000184A4, symSize: 0x3C }
  - { offsetInCU: 0x1976F, offset: 0x43E7F, size: 0x8, addend: 0x0, symName: __ZNSt3__110unique_ptrIA_PNS_16__hash_node_baseIPNS_11__hash_nodeINS_17__hash_value_typeI4Suit5ColorEEPvEEEENS_25__bucket_list_deallocatorINS_9allocatorISB_EEEEEC2B7v160006ILb1EvEEv, symObjAddr: 0x8764, symBinAddr: 0x1000184E0, symSize: 0x3C }
  - { offsetInCU: 0x197A9, offset: 0x43EB9, size: 0x8, addend: 0x0, symName: __ZNSt3__117__compressed_pairIPPNS_16__hash_node_baseIPNS_11__hash_nodeINS_17__hash_value_typeI4Suit5ColorEEPvEEEENS_25__bucket_list_deallocatorINS_9allocatorISB_EEEEEC1B7v160006INS_16__value_init_tagESJ_EEOT_OT0_, symObjAddr: 0x87A0, symBinAddr: 0x10001851C, symSize: 0x3C }
  - { offsetInCU: 0x19801, offset: 0x43F11, size: 0x8, addend: 0x0, symName: __ZNSt3__117__compressed_pairIPPNS_16__hash_node_baseIPNS_11__hash_nodeINS_17__hash_value_typeI4Suit5ColorEEPvEEEENS_25__bucket_list_deallocatorINS_9allocatorISB_EEEEEC2B7v160006INS_16__value_init_tagESJ_EEOT_OT0_, symObjAddr: 0x87DC, symBinAddr: 0x100018558, symSize: 0x40 }
  - { offsetInCU: 0x19859, offset: 0x43F69, size: 0x8, addend: 0x0, symName: __ZNSt3__122__compressed_pair_elemIPPNS_16__hash_node_baseIPNS_11__hash_nodeINS_17__hash_value_typeI4Suit5ColorEEPvEEEELi0ELb0EEC2B7v160006ENS_16__value_init_tagE, symObjAddr: 0x881C, symBinAddr: 0x100018598, symSize: 0x18 }
  - { offsetInCU: 0x1988E, offset: 0x43F9E, size: 0x8, addend: 0x0, symName: __ZNSt3__122__compressed_pair_elemINS_25__bucket_list_deallocatorINS_9allocatorIPNS_16__hash_node_baseIPNS_11__hash_nodeINS_17__hash_value_typeI4Suit5ColorEEPvEEEEEEEELi1ELb0EEC2B7v160006ENS_16__value_init_tagE, symObjAddr: 0x8834, symBinAddr: 0x1000185B0, symSize: 0x2C }
  - { offsetInCU: 0x198C3, offset: 0x43FD3, size: 0x8, addend: 0x0, symName: __ZNSt3__125__bucket_list_deallocatorINS_9allocatorIPNS_16__hash_node_baseIPNS_11__hash_nodeINS_17__hash_value_typeI4Suit5ColorEEPvEEEEEEEC1B7v160006Ev, symObjAddr: 0x8860, symBinAddr: 0x1000185DC, symSize: 0x2C }
  - { offsetInCU: 0x198ED, offset: 0x43FFD, size: 0x8, addend: 0x0, symName: __ZNSt3__125__bucket_list_deallocatorINS_9allocatorIPNS_16__hash_node_baseIPNS_11__hash_nodeINS_17__hash_value_typeI4Suit5ColorEEPvEEEEEEEC2B7v160006Ev, symObjAddr: 0x888C, symBinAddr: 0x100018608, symSize: 0x40 }
  - { offsetInCU: 0x19917, offset: 0x44027, size: 0x8, addend: 0x0, symName: __ZNSt3__117__compressed_pairImNS_9allocatorIPNS_16__hash_node_baseIPNS_11__hash_nodeINS_17__hash_value_typeI4Suit5ColorEEPvEEEEEEEC1B7v160006IiNS_18__default_init_tagEEEOT_OT0_, symObjAddr: 0x88CC, symBinAddr: 0x100018648, symSize: 0x3C }
  - { offsetInCU: 0x1996F, offset: 0x4407F, size: 0x8, addend: 0x0, symName: __ZNSt3__117__compressed_pairImNS_9allocatorIPNS_16__hash_node_baseIPNS_11__hash_nodeINS_17__hash_value_typeI4Suit5ColorEEPvEEEEEEEC2B7v160006IiNS_18__default_init_tagEEEOT_OT0_, symObjAddr: 0x8908, symBinAddr: 0x100018684, symSize: 0x40 }
  - { offsetInCU: 0x199C7, offset: 0x440D7, size: 0x8, addend: 0x0, symName: __ZNSt3__122__compressed_pair_elemINS_9allocatorIPNS_16__hash_node_baseIPNS_11__hash_nodeINS_17__hash_value_typeI4Suit5ColorEEPvEEEEEELi1ELb1EEC2B7v160006ENS_18__default_init_tagE, symObjAddr: 0x8948, symBinAddr: 0x1000186C4, symSize: 0x2C }
  - { offsetInCU: 0x199FC, offset: 0x4410C, size: 0x8, addend: 0x0, symName: __ZNSt3__19allocatorIPNS_16__hash_node_baseIPNS_11__hash_nodeINS_17__hash_value_typeI4Suit5ColorEEPvEEEEEC2B7v160006Ev, symObjAddr: 0x8974, symBinAddr: 0x1000186F0, symSize: 0x2C }
  - { offsetInCU: 0x19A26, offset: 0x44136, size: 0x8, addend: 0x0, symName: __ZNSt3__116__non_trivial_ifILb1ENS_9allocatorIPNS_16__hash_node_baseIPNS_11__hash_nodeINS_17__hash_value_typeI4Suit5ColorEEPvEEEEEEEC2B7v160006Ev, symObjAddr: 0x89A0, symBinAddr: 0x10001871C, symSize: 0x14 }
  - { offsetInCU: 0x19A50, offset: 0x44160, size: 0x8, addend: 0x0, symName: __ZNSt3__117__compressed_pairINS_16__hash_node_baseIPNS_11__hash_nodeINS_17__hash_value_typeI4Suit5ColorEEPvEEEENS_9allocatorIS8_EEEC2B7v160006ILb1EvEEv, symObjAddr: 0x89B4, symBinAddr: 0x100018730, symSize: 0x34 }
  - { offsetInCU: 0x19A85, offset: 0x44195, size: 0x8, addend: 0x0, symName: __ZNSt3__122__compressed_pair_elemINS_16__hash_node_baseIPNS_11__hash_nodeINS_17__hash_value_typeI4Suit5ColorEEPvEEEELi0ELb0EEC2B7v160006ENS_16__value_init_tagE, symObjAddr: 0x89E8, symBinAddr: 0x100018764, symSize: 0x2C }
  - { offsetInCU: 0x19ABA, offset: 0x441CA, size: 0x8, addend: 0x0, symName: __ZNSt3__122__compressed_pair_elemINS_9allocatorINS_11__hash_nodeINS_17__hash_value_typeI4Suit5ColorEEPvEEEELi1ELb1EEC2B7v160006ENS_16__value_init_tagE, symObjAddr: 0x8A14, symBinAddr: 0x100018790, symSize: 0x2C }
  - { offsetInCU: 0x19AEF, offset: 0x441FF, size: 0x8, addend: 0x0, symName: __ZNSt3__116__hash_node_baseIPNS_11__hash_nodeINS_17__hash_value_typeI4Suit5ColorEEPvEEEC1B7v160006Ev, symObjAddr: 0x8A40, symBinAddr: 0x1000187BC, symSize: 0x2C }
  - { offsetInCU: 0x19B19, offset: 0x44229, size: 0x8, addend: 0x0, symName: __ZNSt3__116__hash_node_baseIPNS_11__hash_nodeINS_17__hash_value_typeI4Suit5ColorEEPvEEEC2B7v160006Ev, symObjAddr: 0x8A6C, symBinAddr: 0x1000187E8, symSize: 0x18 }
  - { offsetInCU: 0x19B43, offset: 0x44253, size: 0x8, addend: 0x0, symName: __ZNSt3__19allocatorINS_11__hash_nodeINS_17__hash_value_typeI4Suit5ColorEEPvEEEC2B7v160006Ev, symObjAddr: 0x8A84, symBinAddr: 0x100018800, symSize: 0x2C }
  - { offsetInCU: 0x19B6D, offset: 0x4427D, size: 0x8, addend: 0x0, symName: __ZNSt3__116__non_trivial_ifILb1ENS_9allocatorINS_11__hash_nodeINS_17__hash_value_typeI4Suit5ColorEEPvEEEEEC2B7v160006Ev, symObjAddr: 0x8AB0, symBinAddr: 0x10001882C, symSize: 0x14 }
  - { offsetInCU: 0x19B97, offset: 0x442A7, size: 0x8, addend: 0x0, symName: __ZNSt3__117__compressed_pairImNS_22__unordered_map_hasherI4SuitNS_17__hash_value_typeIS2_5ColorEENS_4hashIS2_EENS_8equal_toIS2_EELb1EEEEC2B7v160006IiNS_18__default_init_tagEEEOT_OT0_, symObjAddr: 0x8AC4, symBinAddr: 0x100018840, symSize: 0x40 }
  - { offsetInCU: 0x19BEF, offset: 0x442FF, size: 0x8, addend: 0x0, symName: __ZNSt3__122__compressed_pair_elemINS_22__unordered_map_hasherI4SuitNS_17__hash_value_typeIS2_5ColorEENS_4hashIS2_EENS_8equal_toIS2_EELb1EEELi1ELb1EEC2B7v160006ENS_18__default_init_tagE, symObjAddr: 0x8B04, symBinAddr: 0x100018880, symSize: 0x2C }
  - { offsetInCU: 0x19C24, offset: 0x44334, size: 0x8, addend: 0x0, symName: __ZNSt3__122__unordered_map_hasherI4SuitNS_17__hash_value_typeIS1_5ColorEENS_4hashIS1_EENS_8equal_toIS1_EELb1EEC2B7v160006Ev, symObjAddr: 0x8B30, symBinAddr: 0x1000188AC, symSize: 0x14 }
  - { offsetInCU: 0x19C4E, offset: 0x4435E, size: 0x8, addend: 0x0, symName: __ZNSt3__117__compressed_pairIfNS_21__unordered_map_equalI4SuitNS_17__hash_value_typeIS2_5ColorEENS_8equal_toIS2_EENS_4hashIS2_EELb1EEEEC2B7v160006IfNS_18__default_init_tagEEEOT_OT0_, symObjAddr: 0x8B44, symBinAddr: 0x1000188C0, symSize: 0x40 }
  - { offsetInCU: 0x19CA6, offset: 0x443B6, size: 0x8, addend: 0x0, symName: __ZNSt3__122__compressed_pair_elemINS_21__unordered_map_equalI4SuitNS_17__hash_value_typeIS2_5ColorEENS_8equal_toIS2_EENS_4hashIS2_EELb1EEELi1ELb1EEC2B7v160006ENS_18__default_init_tagE, symObjAddr: 0x8BA8, symBinAddr: 0x100018900, symSize: 0x2C }
  - { offsetInCU: 0x19CDB, offset: 0x443EB, size: 0x8, addend: 0x0, symName: __ZNSt3__121__unordered_map_equalI4SuitNS_17__hash_value_typeIS1_5ColorEENS_8equal_toIS1_EENS_4hashIS1_EELb1EEC2B7v160006Ev, symObjAddr: 0x8BD4, symBinAddr: 0x10001892C, symSize: 0x14 }
  - { offsetInCU: 0x19D05, offset: 0x44415, size: 0x8, addend: 0x0, symName: __ZNSt3__112__hash_tableINS_17__hash_value_typeI4Suit5ColorEENS_22__unordered_map_hasherIS2_S4_NS_4hashIS2_EENS_8equal_toIS2_EELb1EEENS_21__unordered_map_equalIS2_S4_S9_S7_Lb1EEENS_9allocatorIS4_EEE15__insert_uniqueB7v160006ERKNS_4pairIKS2_S3_EE, symObjAddr: 0x8BE8, symBinAddr: 0x100018940, symSize: 0x50 }
  - { offsetInCU: 0x19D3A, offset: 0x4444A, size: 0x8, addend: 0x0, symName: __ZNSt3__112__hash_tableINS_17__hash_value_typeI4Suit5ColorEENS_22__unordered_map_hasherIS2_S4_NS_4hashIS2_EENS_8equal_toIS2_EELb1EEENS_21__unordered_map_equalIS2_S4_S9_S7_Lb1EEENS_9allocatorIS4_EEE25__emplace_unique_key_argsIS2_JRKNS_4pairIKS2_S3_EEEEENSH_INS_15__hash_iteratorIPNS_11__hash_nodeIS4_PvEEEEbEERKT_DpOT0_, symObjAddr: 0x8C38, symBinAddr: 0x100018990, symSize: 0x4C0 }
  - { offsetInCU: 0x19E1A, offset: 0x4452A, size: 0x8, addend: 0x0, symName: __ZNSt3__122__hash_key_value_typesINS_17__hash_value_typeI4Suit5ColorEEE9__get_keyB7v160006ERKNS_4pairIKS2_S3_EE, symObjAddr: 0x90F8, symBinAddr: 0x100018E50, symSize: 0x14 }
  - { offsetInCU: 0x19E3D, offset: 0x4454D, size: 0x8, addend: 0x0, symName: __ZNSt3__112__hash_tableINS_17__hash_value_typeI4Suit5ColorEENS_22__unordered_map_hasherIS2_S4_NS_4hashIS2_EENS_8equal_toIS2_EELb1EEENS_21__unordered_map_equalIS2_S4_S9_S7_Lb1EEENS_9allocatorIS4_EEE13hash_functionB7v160006Ev, symObjAddr: 0x910C, symBinAddr: 0x100018E64, symSize: 0x28 }
  - { offsetInCU: 0x19E63, offset: 0x44573, size: 0x8, addend: 0x0, symName: __ZNKSt3__122__unordered_map_hasherI4SuitNS_17__hash_value_typeIS1_5ColorEENS_4hashIS1_EENS_8equal_toIS1_EELb1EEclB7v160006ERKS1_, symObjAddr: 0x9134, symBinAddr: 0x100018E8C, symSize: 0x30 }
  - { offsetInCU: 0x19E98, offset: 0x445A8, size: 0x8, addend: 0x0, symName: __ZNKSt3__112__hash_tableINS_17__hash_value_typeI4Suit5ColorEENS_22__unordered_map_hasherIS2_S4_NS_4hashIS2_EENS_8equal_toIS2_EELb1EEENS_21__unordered_map_equalIS2_S4_S9_S7_Lb1EEENS_9allocatorIS4_EEE12bucket_countB7v160006Ev, symObjAddr: 0x9164, symBinAddr: 0x100018EBC, symSize: 0x28 }
  - { offsetInCU: 0x19EBE, offset: 0x445CE, size: 0x8, addend: 0x0, symName: __ZNKSt3__110unique_ptrIA_PNS_16__hash_node_baseIPNS_11__hash_nodeINS_17__hash_value_typeI4Suit5ColorEEPvEEEENS_25__bucket_list_deallocatorINS_9allocatorISB_EEEEEixB7v160006Em, symObjAddr: 0x9224, symBinAddr: 0x100018EE4, symSize: 0x34 }
  - { offsetInCU: 0x19EF3, offset: 0x44603, size: 0x8, addend: 0x0, symName: __ZNKSt3__116__hash_node_baseIPNS_11__hash_nodeINS_17__hash_value_typeI4Suit5ColorEEPvEEE6__hashB7v160006Ev, symObjAddr: 0x9258, symBinAddr: 0x100018F18, symSize: 0x18 }
  - { offsetInCU: 0x19F19, offset: 0x44629, size: 0x8, addend: 0x0, symName: __ZNSt3__112__hash_tableINS_17__hash_value_typeI4Suit5ColorEENS_22__unordered_map_hasherIS2_S4_NS_4hashIS2_EENS_8equal_toIS2_EELb1EEENS_21__unordered_map_equalIS2_S4_S9_S7_Lb1EEENS_9allocatorIS4_EEE6key_eqB7v160006Ev, symObjAddr: 0x9270, symBinAddr: 0x100018F30, symSize: 0x28 }
  - { offsetInCU: 0x19F3F, offset: 0x4464F, size: 0x8, addend: 0x0, symName: __ZNKSt3__121__unordered_map_equalI4SuitNS_17__hash_value_typeIS1_5ColorEENS_8equal_toIS1_EENS_4hashIS1_EELb1EEclB7v160006ERKS4_RKS1_, symObjAddr: 0x9298, symBinAddr: 0x100018F58, symSize: 0x48 }
  - { offsetInCU: 0x19F83, offset: 0x44693, size: 0x8, addend: 0x0, symName: __ZNSt3__116__hash_node_baseIPNS_11__hash_nodeINS_17__hash_value_typeI4Suit5ColorEEPvEEE8__upcastB7v160006Ev, symObjAddr: 0x92E0, symBinAddr: 0x100018FA0, symSize: 0x24 }
  - { offsetInCU: 0x19FA9, offset: 0x446B9, size: 0x8, addend: 0x0, symName: __ZNSt3__112__hash_tableINS_17__hash_value_typeI4Suit5ColorEENS_22__unordered_map_hasherIS2_S4_NS_4hashIS2_EENS_8equal_toIS2_EELb1EEENS_21__unordered_map_equalIS2_S4_S9_S7_Lb1EEENS_9allocatorIS4_EEE21__construct_node_hashIRKNS_4pairIKS2_S3_EEJEEENS_10unique_ptrINS_11__hash_nodeIS4_PvEENS_22__hash_node_destructorINSD_ISP_EEEEEEmOT_DpOT0_, symObjAddr: 0x9304, symBinAddr: 0x100018FC4, symSize: 0x140 }
  - { offsetInCU: 0x1A01C, offset: 0x4472C, size: 0x8, addend: 0x0, symName: __ZNSt3__112__hash_tableINS_17__hash_value_typeI4Suit5ColorEENS_22__unordered_map_hasherIS2_S4_NS_4hashIS2_EENS_8equal_toIS2_EELb1EEENS_21__unordered_map_equalIS2_S4_S9_S7_Lb1EEENS_9allocatorIS4_EEE4sizeB7v160006Ev, symObjAddr: 0x9444, symBinAddr: 0x100019104, symSize: 0x28 }
  - { offsetInCU: 0x1A042, offset: 0x44752, size: 0x8, addend: 0x0, symName: __ZNSt3__112__hash_tableINS_17__hash_value_typeI4Suit5ColorEENS_22__unordered_map_hasherIS2_S4_NS_4hashIS2_EENS_8equal_toIS2_EELb1EEENS_21__unordered_map_equalIS2_S4_S9_S7_Lb1EEENS_9allocatorIS4_EEE15max_load_factorB7v160006Ev, symObjAddr: 0x946C, symBinAddr: 0x10001912C, symSize: 0x28 }
  - { offsetInCU: 0x1A068, offset: 0x44778, size: 0x8, addend: 0x0, symName: __ZNSt3__112__hash_tableINS_17__hash_value_typeI4Suit5ColorEENS_22__unordered_map_hasherIS2_S4_NS_4hashIS2_EENS_8equal_toIS2_EELb1EEENS_21__unordered_map_equalIS2_S4_S9_S7_Lb1EEENS_9allocatorIS4_EEE15__rehash_uniqueB7v160006Em, symObjAddr: 0x9494, symBinAddr: 0x100019154, symSize: 0x2C }
  - { offsetInCU: 0x1A09D, offset: 0x447AD, size: 0x8, addend: 0x0, symName: __ZNSt3__117__compressed_pairINS_16__hash_node_baseIPNS_11__hash_nodeINS_17__hash_value_typeI4Suit5ColorEEPvEEEENS_9allocatorIS8_EEE5firstB7v160006Ev, symObjAddr: 0x9554, symBinAddr: 0x100019180, symSize: 0x24 }
  - { offsetInCU: 0x1A0C3, offset: 0x447D3, size: 0x8, addend: 0x0, symName: __ZNSt3__116__hash_node_baseIPNS_11__hash_nodeINS_17__hash_value_typeI4Suit5ColorEEPvEEE5__ptrB7v160006Ev, symObjAddr: 0x9578, symBinAddr: 0x1000191A4, symSize: 0x24 }
  - { offsetInCU: 0x1A0E9, offset: 0x447F9, size: 0x8, addend: 0x0, symName: __ZNKSt3__110unique_ptrINS_11__hash_nodeINS_17__hash_value_typeI4Suit5ColorEEPvEENS_22__hash_node_destructorINS_9allocatorIS7_EEEEEptB7v160006Ev, symObjAddr: 0x959C, symBinAddr: 0x1000191C8, symSize: 0x28 }
  - { offsetInCU: 0x1A10F, offset: 0x4481F, size: 0x8, addend: 0x0, symName: __ZNKSt3__110unique_ptrINS_11__hash_nodeINS_17__hash_value_typeI4Suit5ColorEEPvEENS_22__hash_node_destructorINS_9allocatorIS7_EEEEE3getB7v160006Ev, symObjAddr: 0x95C4, symBinAddr: 0x1000191F0, symSize: 0x28 }
  - { offsetInCU: 0x1A135, offset: 0x44845, size: 0x8, addend: 0x0, symName: __ZNSt3__110unique_ptrINS_11__hash_nodeINS_17__hash_value_typeI4Suit5ColorEEPvEENS_22__hash_node_destructorINS_9allocatorIS7_EEEEE7releaseB7v160006Ev, symObjAddr: 0x95EC, symBinAddr: 0x100019218, symSize: 0x44 }
  - { offsetInCU: 0x1A16A, offset: 0x4487A, size: 0x8, addend: 0x0, symName: __ZNSt3__110unique_ptrINS_11__hash_nodeINS_17__hash_value_typeI4Suit5ColorEEPvEENS_22__hash_node_destructorINS_9allocatorIS7_EEEEED1B7v160006Ev, symObjAddr: 0x9630, symBinAddr: 0x10001925C, symSize: 0x2C }
  - { offsetInCU: 0x1A194, offset: 0x448A4, size: 0x8, addend: 0x0, symName: __ZNSt3__115__hash_iteratorIPNS_11__hash_nodeINS_17__hash_value_typeI4Suit5ColorEEPvEEEC1B7v160006EPNS_16__hash_node_baseIS8_EEPKv, symObjAddr: 0x965C, symBinAddr: 0x100019288, symSize: 0x3C }
  - { offsetInCU: 0x1A1E1, offset: 0x448F1, size: 0x8, addend: 0x0, symName: __ZNSt3__14pairINS_15__hash_iteratorIPNS_11__hash_nodeINS_17__hash_value_typeI4Suit5ColorEEPvEEEEbEC1B7v160006ISA_RbLS7_0EEEOT_OT0_, symObjAddr: 0x9698, symBinAddr: 0x1000192C4, symSize: 0x3C }
  - { offsetInCU: 0x1A23F, offset: 0x4494F, size: 0x8, addend: 0x0, symName: __ZNSt3__117__compressed_pairImNS_22__unordered_map_hasherI4SuitNS_17__hash_value_typeIS2_5ColorEENS_4hashIS2_EENS_8equal_toIS2_EELb1EEEE6secondB7v160006Ev, symObjAddr: 0x96D4, symBinAddr: 0x100019300, symSize: 0x24 }
  - { offsetInCU: 0x1A265, offset: 0x44975, size: 0x8, addend: 0x0, symName: __ZNSt3__122__compressed_pair_elemINS_22__unordered_map_hasherI4SuitNS_17__hash_value_typeIS2_5ColorEENS_4hashIS2_EENS_8equal_toIS2_EELb1EEELi1ELb1EE5__getB7v160006Ev, symObjAddr: 0x96F8, symBinAddr: 0x100019324, symSize: 0x14 }
  - { offsetInCU: 0x1A295, offset: 0x449A5, size: 0x8, addend: 0x0, symName: __ZNKSt3__14hashIiEclB7v160006Ei, symObjAddr: 0x9738, symBinAddr: 0x100019364, symSize: 0x18 }
  - { offsetInCU: 0x1A2CA, offset: 0x449DA, size: 0x8, addend: 0x0, symName: __ZNKSt3__110unique_ptrIA_PNS_16__hash_node_baseIPNS_11__hash_nodeINS_17__hash_value_typeI4Suit5ColorEEPvEEEENS_25__bucket_list_deallocatorINS_9allocatorISB_EEEEE11get_deleterB7v160006Ev, symObjAddr: 0x9750, symBinAddr: 0x10001937C, symSize: 0x24 }
  - { offsetInCU: 0x1A2F0, offset: 0x44A00, size: 0x8, addend: 0x0, symName: __ZNKSt3__125__bucket_list_deallocatorINS_9allocatorIPNS_16__hash_node_baseIPNS_11__hash_nodeINS_17__hash_value_typeI4Suit5ColorEEPvEEEEEEE4sizeB7v160006Ev, symObjAddr: 0x9774, symBinAddr: 0x1000193A0, symSize: 0x28 }
  - { offsetInCU: 0x1A316, offset: 0x44A26, size: 0x8, addend: 0x0, symName: __ZNKSt3__117__compressed_pairIPPNS_16__hash_node_baseIPNS_11__hash_nodeINS_17__hash_value_typeI4Suit5ColorEEPvEEEENS_25__bucket_list_deallocatorINS_9allocatorISB_EEEEE6secondB7v160006Ev, symObjAddr: 0x979C, symBinAddr: 0x1000193C8, symSize: 0x28 }
  - { offsetInCU: 0x1A33C, offset: 0x44A4C, size: 0x8, addend: 0x0, symName: __ZNKSt3__122__compressed_pair_elemINS_25__bucket_list_deallocatorINS_9allocatorIPNS_16__hash_node_baseIPNS_11__hash_nodeINS_17__hash_value_typeI4Suit5ColorEEPvEEEEEEEELi1ELb0EE5__getB7v160006Ev, symObjAddr: 0x97C4, symBinAddr: 0x1000193F0, symSize: 0x14 }
  - { offsetInCU: 0x1A362, offset: 0x44A72, size: 0x8, addend: 0x0, symName: __ZNKSt3__117__compressed_pairImNS_9allocatorIPNS_16__hash_node_baseIPNS_11__hash_nodeINS_17__hash_value_typeI4Suit5ColorEEPvEEEEEEE5firstB7v160006Ev, symObjAddr: 0x97D8, symBinAddr: 0x100019404, symSize: 0x24 }
  - { offsetInCU: 0x1A388, offset: 0x44A98, size: 0x8, addend: 0x0, symName: __ZNKSt3__117__compressed_pairIPPNS_16__hash_node_baseIPNS_11__hash_nodeINS_17__hash_value_typeI4Suit5ColorEEPvEEEENS_25__bucket_list_deallocatorINS_9allocatorISB_EEEEE5firstB7v160006Ev, symObjAddr: 0x97FC, symBinAddr: 0x100019428, symSize: 0x24 }
  - { offsetInCU: 0x1A3AE, offset: 0x44ABE, size: 0x8, addend: 0x0, symName: __ZNKSt3__122__compressed_pair_elemIPPNS_16__hash_node_baseIPNS_11__hash_nodeINS_17__hash_value_typeI4Suit5ColorEEPvEEEELi0ELb0EE5__getB7v160006Ev, symObjAddr: 0x9820, symBinAddr: 0x10001944C, symSize: 0x14 }
  - { offsetInCU: 0x1A3D4, offset: 0x44AE4, size: 0x8, addend: 0x0, symName: __ZNSt3__117__compressed_pairIfNS_21__unordered_map_equalI4SuitNS_17__hash_value_typeIS2_5ColorEENS_8equal_toIS2_EENS_4hashIS2_EELb1EEEE6secondB7v160006Ev, symObjAddr: 0x9834, symBinAddr: 0x100019460, symSize: 0x24 }
  - { offsetInCU: 0x1A3FA, offset: 0x44B0A, size: 0x8, addend: 0x0, symName: __ZNSt3__122__compressed_pair_elemINS_21__unordered_map_equalI4SuitNS_17__hash_value_typeIS2_5ColorEENS_8equal_toIS2_EENS_4hashIS2_EELb1EEELi1ELb1EE5__getB7v160006Ev, symObjAddr: 0x9858, symBinAddr: 0x100019484, symSize: 0x14 }
  - { offsetInCU: 0x1A420, offset: 0x44B30, size: 0x8, addend: 0x0, symName: __ZNKSt3__18equal_toI4SuitEclB7v160006ERKS1_S4_, symObjAddr: 0x986C, symBinAddr: 0x100019498, symSize: 0x34 }
  - { offsetInCU: 0x1A464, offset: 0x44B74, size: 0x8, addend: 0x0, symName: __ZNKSt3__117__hash_value_typeI4Suit5ColorE11__get_valueB7v160006Ev, symObjAddr: 0x98A0, symBinAddr: 0x1000194CC, symSize: 0x24 }
  - { offsetInCU: 0x1A48A, offset: 0x44B9A, size: 0x8, addend: 0x0, symName: __ZNSt3__114pointer_traitsIPNS_16__hash_node_baseIPNS_11__hash_nodeINS_17__hash_value_typeI4Suit5ColorEEPvEEEEE10pointer_toB7v160006ERSA_, symObjAddr: 0x98FC, symBinAddr: 0x100019528, symSize: 0x14 }
  - { offsetInCU: 0x1A4AD, offset: 0x44BBD, size: 0x8, addend: 0x0, symName: __ZNSt3__112__hash_tableINS_17__hash_value_typeI4Suit5ColorEENS_22__unordered_map_hasherIS2_S4_NS_4hashIS2_EENS_8equal_toIS2_EELb1EEENS_21__unordered_map_equalIS2_S4_S9_S7_Lb1EEENS_9allocatorIS4_EEE12__node_allocB7v160006Ev, symObjAddr: 0x9910, symBinAddr: 0x10001953C, symSize: 0x28 }
  - { offsetInCU: 0x1A4D3, offset: 0x44BE3, size: 0x8, addend: 0x0, symName: __ZNSt3__116allocator_traitsINS_9allocatorINS_11__hash_nodeINS_17__hash_value_typeI4Suit5ColorEEPvEEEEE8allocateB7v160006ERS9_m, symObjAddr: 0x9938, symBinAddr: 0x100019564, symSize: 0x2C }
  - { offsetInCU: 0x1A506, offset: 0x44C16, size: 0x8, addend: 0x0, symName: __ZNSt3__122__hash_node_destructorINS_9allocatorINS_11__hash_nodeINS_17__hash_value_typeI4Suit5ColorEEPvEEEEEC1B7v160006ERS9_b, symObjAddr: 0x9964, symBinAddr: 0x100019590, symSize: 0x48 }
  - { offsetInCU: 0x1A553, offset: 0x44C63, size: 0x8, addend: 0x0, symName: __ZNSt3__110unique_ptrINS_11__hash_nodeINS_17__hash_value_typeI4Suit5ColorEEPvEENS_22__hash_node_destructorINS_9allocatorIS7_EEEEEC1B7v160006ILb1EvEEPS7_NS_16__dependent_typeINS_27__unique_ptr_deleter_sfinaeISB_EEXT_EE20__good_rval_ref_typeE, symObjAddr: 0x99AC, symBinAddr: 0x1000195D8, symSize: 0x3C }
  - { offsetInCU: 0x1A5A4, offset: 0x44CB4, size: 0x8, addend: 0x0, symName: __ZNSt3__116allocator_traitsINS_9allocatorINS_11__hash_nodeINS_17__hash_value_typeI4Suit5ColorEEPvEEEEE9constructB7v160006INS_4pairIKS4_S5_EEJRKSE_EvEEvRS9_PT_DpOT0_, symObjAddr: 0x99E8, symBinAddr: 0x100019614, symSize: 0x34 }
  - { offsetInCU: 0x1A5FB, offset: 0x44D0B, size: 0x8, addend: 0x0, symName: __ZNSt3__122__hash_key_value_typesINS_17__hash_value_typeI4Suit5ColorEEE9__get_ptrB7v160006ERS4_, symObjAddr: 0x9A1C, symBinAddr: 0x100019648, symSize: 0x24 }
  - { offsetInCU: 0x1A61E, offset: 0x44D2E, size: 0x8, addend: 0x0, symName: __ZNSt3__110unique_ptrINS_11__hash_nodeINS_17__hash_value_typeI4Suit5ColorEEPvEENS_22__hash_node_destructorINS_9allocatorIS7_EEEEE11get_deleterB7v160006Ev, symObjAddr: 0x9A40, symBinAddr: 0x10001966C, symSize: 0x24 }
  - { offsetInCU: 0x1A644, offset: 0x44D54, size: 0x8, addend: 0x0, symName: __ZNSt3__117__compressed_pairINS_16__hash_node_baseIPNS_11__hash_nodeINS_17__hash_value_typeI4Suit5ColorEEPvEEEENS_9allocatorIS8_EEE6secondB7v160006Ev, symObjAddr: 0x9A64, symBinAddr: 0x100019690, symSize: 0x24 }
  - { offsetInCU: 0x1A66A, offset: 0x44D7A, size: 0x8, addend: 0x0, symName: __ZNSt3__122__compressed_pair_elemINS_9allocatorINS_11__hash_nodeINS_17__hash_value_typeI4Suit5ColorEEPvEEEELi1ELb1EE5__getB7v160006Ev, symObjAddr: 0x9A88, symBinAddr: 0x1000196B4, symSize: 0x14 }
  - { offsetInCU: 0x1A690, offset: 0x44DA0, size: 0x8, addend: 0x0, symName: __ZNSt3__19allocatorINS_11__hash_nodeINS_17__hash_value_typeI4Suit5ColorEEPvEEE8allocateB7v160006Em, symObjAddr: 0x9A9C, symBinAddr: 0x1000196C8, symSize: 0x5C }
  - { offsetInCU: 0x1A6CE, offset: 0x44DDE, size: 0x8, addend: 0x0, symName: __ZNSt3__116allocator_traitsINS_9allocatorINS_11__hash_nodeINS_17__hash_value_typeI4Suit5ColorEEPvEEEEE8max_sizeB7v160006IS9_vEEmRKS9_, symObjAddr: 0x9AF8, symBinAddr: 0x100019724, symSize: 0x24 }
  - { offsetInCU: 0x1A6FC, offset: 0x44E0C, size: 0x8, addend: 0x0, symName: __ZNKSt3__19allocatorINS_11__hash_nodeINS_17__hash_value_typeI4Suit5ColorEEPvEEE8max_sizeB7v160006Ev, symObjAddr: 0x9B1C, symBinAddr: 0x100019748, symSize: 0x18 }
  - { offsetInCU: 0x1A722, offset: 0x44E32, size: 0x8, addend: 0x0, symName: __ZNSt3__122__hash_node_destructorINS_9allocatorINS_11__hash_nodeINS_17__hash_value_typeI4Suit5ColorEEPvEEEEEC2B7v160006ERS9_b, symObjAddr: 0x9B34, symBinAddr: 0x100019760, symSize: 0x38 }
  - { offsetInCU: 0x1A76A, offset: 0x44E7A, size: 0x8, addend: 0x0, symName: __ZNSt3__110unique_ptrINS_11__hash_nodeINS_17__hash_value_typeI4Suit5ColorEEPvEENS_22__hash_node_destructorINS_9allocatorIS7_EEEEEC2B7v160006ILb1EvEEPS7_NS_16__dependent_typeINS_27__unique_ptr_deleter_sfinaeISB_EEXT_EE20__good_rval_ref_typeE, symObjAddr: 0x9B6C, symBinAddr: 0x100019798, symSize: 0x48 }
  - { offsetInCU: 0x1A7BB, offset: 0x44ECB, size: 0x8, addend: 0x0, symName: __ZNSt3__117__compressed_pairIPNS_11__hash_nodeINS_17__hash_value_typeI4Suit5ColorEEPvEENS_22__hash_node_destructorINS_9allocatorIS7_EEEEEC1B7v160006IRS8_SC_EEOT_OT0_, symObjAddr: 0x9BB4, symBinAddr: 0x1000197E0, symSize: 0x3C }
  - { offsetInCU: 0x1A813, offset: 0x44F23, size: 0x8, addend: 0x0, symName: __ZNSt3__117__compressed_pairIPNS_11__hash_nodeINS_17__hash_value_typeI4Suit5ColorEEPvEENS_22__hash_node_destructorINS_9allocatorIS7_EEEEEC2B7v160006IRS8_SC_EEOT_OT0_, symObjAddr: 0x9BF0, symBinAddr: 0x10001981C, symSize: 0x48 }
  - { offsetInCU: 0x1A86B, offset: 0x44F7B, size: 0x8, addend: 0x0, symName: __ZNSt3__122__compressed_pair_elemIPNS_11__hash_nodeINS_17__hash_value_typeI4Suit5ColorEEPvEELi0ELb0EEC2B7v160006IRS8_vEEOT_, symObjAddr: 0x9C38, symBinAddr: 0x100019864, symSize: 0x24 }
  - { offsetInCU: 0x1A8AD, offset: 0x44FBD, size: 0x8, addend: 0x0, symName: __ZNSt3__122__compressed_pair_elemINS_22__hash_node_destructorINS_9allocatorINS_11__hash_nodeINS_17__hash_value_typeI4Suit5ColorEEPvEEEEEELi1ELb0EEC2B7v160006ISB_vEEOT_, symObjAddr: 0x9C5C, symBinAddr: 0x100019888, symSize: 0x24 }
  - { offsetInCU: 0x1A8EF, offset: 0x44FFF, size: 0x8, addend: 0x0, symName: __ZNSt3__19allocatorINS_11__hash_nodeINS_17__hash_value_typeI4Suit5ColorEEPvEEE9constructB7v160006INS_4pairIKS3_S4_EEJRKSC_EEEvPT_DpOT0_, symObjAddr: 0x9C80, symBinAddr: 0x1000198AC, symSize: 0x28 }
  - { offsetInCU: 0x1A945, offset: 0x45055, size: 0x8, addend: 0x0, symName: __ZNSt3__117__hash_value_typeI4Suit5ColorE11__get_valueB7v160006Ev, symObjAddr: 0x9CA8, symBinAddr: 0x1000198D4, symSize: 0x24 }
  - { offsetInCU: 0x1A96B, offset: 0x4507B, size: 0x8, addend: 0x0, symName: __ZNSt3__117__compressed_pairIPNS_11__hash_nodeINS_17__hash_value_typeI4Suit5ColorEEPvEENS_22__hash_node_destructorINS_9allocatorIS7_EEEEE6secondB7v160006Ev, symObjAddr: 0x9D04, symBinAddr: 0x100019930, symSize: 0x28 }
  - { offsetInCU: 0x1A991, offset: 0x450A1, size: 0x8, addend: 0x0, symName: __ZNSt3__122__compressed_pair_elemINS_22__hash_node_destructorINS_9allocatorINS_11__hash_nodeINS_17__hash_value_typeI4Suit5ColorEEPvEEEEEELi1ELb0EE5__getB7v160006Ev, symObjAddr: 0x9D2C, symBinAddr: 0x100019958, symSize: 0x14 }
  - { offsetInCU: 0x1A9B7, offset: 0x450C7, size: 0x8, addend: 0x0, symName: __ZNSt3__117__compressed_pairImNS_22__unordered_map_hasherI4SuitNS_17__hash_value_typeIS2_5ColorEENS_4hashIS2_EENS_8equal_toIS2_EELb1EEEE5firstB7v160006Ev, symObjAddr: 0x9D40, symBinAddr: 0x10001996C, symSize: 0x24 }
  - { offsetInCU: 0x1A9DD, offset: 0x450ED, size: 0x8, addend: 0x0, symName: __ZNSt3__117__compressed_pairIfNS_21__unordered_map_equalI4SuitNS_17__hash_value_typeIS2_5ColorEENS_8equal_toIS2_EENS_4hashIS2_EELb1EEEE5firstB7v160006Ev, symObjAddr: 0x9D64, symBinAddr: 0x100019990, symSize: 0x24 }
  - { offsetInCU: 0x1AA03, offset: 0x45113, size: 0x8, addend: 0x0, symName: __ZNSt3__112__hash_tableINS_17__hash_value_typeI4Suit5ColorEENS_22__unordered_map_hasherIS2_S4_NS_4hashIS2_EENS_8equal_toIS2_EELb1EEENS_21__unordered_map_equalIS2_S4_S9_S7_Lb1EEENS_9allocatorIS4_EEE8__rehashILb1EEEvm, symObjAddr: 0x9D9C, symBinAddr: 0x1000199B4, symSize: 0x1A8 }
  - { offsetInCU: 0x1AA53, offset: 0x45163, size: 0x8, addend: 0x0, symName: __ZNSt3__112__hash_tableINS_17__hash_value_typeI4Suit5ColorEENS_22__unordered_map_hasherIS2_S4_NS_4hashIS2_EENS_8equal_toIS2_EELb1EEENS_21__unordered_map_equalIS2_S4_S9_S7_Lb1EEENS_9allocatorIS4_EEE11__do_rehashILb1EEEvm, symObjAddr: 0x9F44, symBinAddr: 0x100019B5C, symSize: 0x290 }
  - { offsetInCU: 0x1AB36, offset: 0x45246, size: 0x8, addend: 0x0, symName: __ZNSt3__110unique_ptrIA_PNS_16__hash_node_baseIPNS_11__hash_nodeINS_17__hash_value_typeI4Suit5ColorEEPvEEEENS_25__bucket_list_deallocatorINS_9allocatorISB_EEEEE11get_deleterB7v160006Ev, symObjAddr: 0xA250, symBinAddr: 0x100019DFC, symSize: 0x24 }
  - { offsetInCU: 0x1AB5C, offset: 0x4526C, size: 0x8, addend: 0x0, symName: __ZNSt3__125__bucket_list_deallocatorINS_9allocatorIPNS_16__hash_node_baseIPNS_11__hash_nodeINS_17__hash_value_typeI4Suit5ColorEEPvEEEEEEE7__allocB7v160006Ev, symObjAddr: 0xA274, symBinAddr: 0x100019E20, symSize: 0x24 }
  - { offsetInCU: 0x1AB82, offset: 0x45292, size: 0x8, addend: 0x0, symName: __ZNSt3__110unique_ptrIA_PNS_16__hash_node_baseIPNS_11__hash_nodeINS_17__hash_value_typeI4Suit5ColorEEPvEEEENS_25__bucket_list_deallocatorINS_9allocatorISB_EEEEE5resetB7v160006IPSB_EENS_9enable_ifIXsr28_CheckArrayPointerConversionIT_EE5valueEvE4typeESL_, symObjAddr: 0xA298, symBinAddr: 0x100019E44, symSize: 0x78 }
  - { offsetInCU: 0x1ABCF, offset: 0x452DF, size: 0x8, addend: 0x0, symName: __ZNSt3__116allocator_traitsINS_9allocatorIPNS_16__hash_node_baseIPNS_11__hash_nodeINS_17__hash_value_typeI4Suit5ColorEEPvEEEEEEE8allocateB7v160006ERSD_m, symObjAddr: 0xA310, symBinAddr: 0x100019EBC, symSize: 0x2C }
  - { offsetInCU: 0x1AC02, offset: 0x45312, size: 0x8, addend: 0x0, symName: __ZNSt3__125__bucket_list_deallocatorINS_9allocatorIPNS_16__hash_node_baseIPNS_11__hash_nodeINS_17__hash_value_typeI4Suit5ColorEEPvEEEEEEE4sizeB7v160006Ev, symObjAddr: 0xA33C, symBinAddr: 0x100019EE8, symSize: 0x24 }
  - { offsetInCU: 0x1AC28, offset: 0x45338, size: 0x8, addend: 0x0, symName: __ZNSt3__117__compressed_pairIPPNS_16__hash_node_baseIPNS_11__hash_nodeINS_17__hash_value_typeI4Suit5ColorEEPvEEEENS_25__bucket_list_deallocatorINS_9allocatorISB_EEEEE6secondB7v160006Ev, symObjAddr: 0xA360, symBinAddr: 0x100019F0C, symSize: 0x28 }
  - { offsetInCU: 0x1AC4E, offset: 0x4535E, size: 0x8, addend: 0x0, symName: __ZNSt3__122__compressed_pair_elemINS_25__bucket_list_deallocatorINS_9allocatorIPNS_16__hash_node_baseIPNS_11__hash_nodeINS_17__hash_value_typeI4Suit5ColorEEPvEEEEEEEELi1ELb0EE5__getB7v160006Ev, symObjAddr: 0xA388, symBinAddr: 0x100019F34, symSize: 0x14 }
  - { offsetInCU: 0x1AC74, offset: 0x45384, size: 0x8, addend: 0x0, symName: __ZNSt3__117__compressed_pairImNS_9allocatorIPNS_16__hash_node_baseIPNS_11__hash_nodeINS_17__hash_value_typeI4Suit5ColorEEPvEEEEEEE6secondB7v160006Ev, symObjAddr: 0xA39C, symBinAddr: 0x100019F48, symSize: 0x24 }
  - { offsetInCU: 0x1AC9A, offset: 0x453AA, size: 0x8, addend: 0x0, symName: __ZNSt3__122__compressed_pair_elemINS_9allocatorIPNS_16__hash_node_baseIPNS_11__hash_nodeINS_17__hash_value_typeI4Suit5ColorEEPvEEEEEELi1ELb1EE5__getB7v160006Ev, symObjAddr: 0xA3C0, symBinAddr: 0x100019F6C, symSize: 0x14 }
  - { offsetInCU: 0x1ACC0, offset: 0x453D0, size: 0x8, addend: 0x0, symName: __ZNSt3__117__compressed_pairIPPNS_16__hash_node_baseIPNS_11__hash_nodeINS_17__hash_value_typeI4Suit5ColorEEPvEEEENS_25__bucket_list_deallocatorINS_9allocatorISB_EEEEE5firstB7v160006Ev, symObjAddr: 0xA3D4, symBinAddr: 0x100019F80, symSize: 0x24 }
  - { offsetInCU: 0x1ACE6, offset: 0x453F6, size: 0x8, addend: 0x0, symName: __ZNSt3__125__bucket_list_deallocatorINS_9allocatorIPNS_16__hash_node_baseIPNS_11__hash_nodeINS_17__hash_value_typeI4Suit5ColorEEPvEEEEEEEclB7v160006EPSC_, symObjAddr: 0xA3F8, symBinAddr: 0x100019FA4, symSize: 0x58 }
  - { offsetInCU: 0x1AD1B, offset: 0x4542B, size: 0x8, addend: 0x0, symName: __ZNSt3__122__compressed_pair_elemIPPNS_16__hash_node_baseIPNS_11__hash_nodeINS_17__hash_value_typeI4Suit5ColorEEPvEEEELi0ELb0EE5__getB7v160006Ev, symObjAddr: 0xA450, symBinAddr: 0x100019FFC, symSize: 0x14 }
  - { offsetInCU: 0x1AD41, offset: 0x45451, size: 0x8, addend: 0x0, symName: __ZNSt3__116allocator_traitsINS_9allocatorIPNS_16__hash_node_baseIPNS_11__hash_nodeINS_17__hash_value_typeI4Suit5ColorEEPvEEEEEEE10deallocateB7v160006ERSD_PSC_m, symObjAddr: 0xA464, symBinAddr: 0x10001A010, symSize: 0x34 }
  - { offsetInCU: 0x1AD83, offset: 0x45493, size: 0x8, addend: 0x0, symName: __ZNSt3__19allocatorIPNS_16__hash_node_baseIPNS_11__hash_nodeINS_17__hash_value_typeI4Suit5ColorEEPvEEEEE10deallocateB7v160006EPSB_m, symObjAddr: 0xA498, symBinAddr: 0x10001A044, symSize: 0x40 }
  - { offsetInCU: 0x1ADC5, offset: 0x454D5, size: 0x8, addend: 0x0, symName: __ZNSt3__19allocatorIPNS_16__hash_node_baseIPNS_11__hash_nodeINS_17__hash_value_typeI4Suit5ColorEEPvEEEEE8allocateB7v160006Em, symObjAddr: 0xA4D8, symBinAddr: 0x10001A084, symSize: 0x58 }
  - { offsetInCU: 0x1AE03, offset: 0x45513, size: 0x8, addend: 0x0, symName: __ZNSt3__116allocator_traitsINS_9allocatorIPNS_16__hash_node_baseIPNS_11__hash_nodeINS_17__hash_value_typeI4Suit5ColorEEPvEEEEEEE8max_sizeB7v160006ISD_vEEmRKSD_, symObjAddr: 0xA530, symBinAddr: 0x10001A0DC, symSize: 0x24 }
  - { offsetInCU: 0x1AE31, offset: 0x45541, size: 0x8, addend: 0x0, symName: __ZNKSt3__19allocatorIPNS_16__hash_node_baseIPNS_11__hash_nodeINS_17__hash_value_typeI4Suit5ColorEEPvEEEEE8max_sizeB7v160006Ev, symObjAddr: 0xA554, symBinAddr: 0x10001A100, symSize: 0x14 }
  - { offsetInCU: 0x1AE57, offset: 0x45567, size: 0x8, addend: 0x0, symName: __ZNSt3__117__compressed_pairImNS_9allocatorIPNS_16__hash_node_baseIPNS_11__hash_nodeINS_17__hash_value_typeI4Suit5ColorEEPvEEEEEEE5firstB7v160006Ev, symObjAddr: 0xA568, symBinAddr: 0x10001A114, symSize: 0x24 }
  - { offsetInCU: 0x1AE7D, offset: 0x4558D, size: 0x8, addend: 0x0, symName: __ZNSt3__122__compressed_pair_elemINS_16__hash_node_baseIPNS_11__hash_nodeINS_17__hash_value_typeI4Suit5ColorEEPvEEEELi0ELb0EE5__getB7v160006Ev, symObjAddr: 0xA630, symBinAddr: 0x10001A138, symSize: 0x14 }
  - { offsetInCU: 0x1AEA3, offset: 0x455B3, size: 0x8, addend: 0x0, symName: __ZNKSt3__117__compressed_pairIPNS_11__hash_nodeINS_17__hash_value_typeI4Suit5ColorEEPvEENS_22__hash_node_destructorINS_9allocatorIS7_EEEEE5firstB7v160006Ev, symObjAddr: 0xA644, symBinAddr: 0x10001A14C, symSize: 0x24 }
  - { offsetInCU: 0x1AEC9, offset: 0x455D9, size: 0x8, addend: 0x0, symName: __ZNKSt3__122__compressed_pair_elemIPNS_11__hash_nodeINS_17__hash_value_typeI4Suit5ColorEEPvEELi0ELb0EE5__getB7v160006Ev, symObjAddr: 0xA668, symBinAddr: 0x10001A170, symSize: 0x14 }
  - { offsetInCU: 0x1AEEF, offset: 0x455FF, size: 0x8, addend: 0x0, symName: __ZNSt3__117__compressed_pairIPNS_11__hash_nodeINS_17__hash_value_typeI4Suit5ColorEEPvEENS_22__hash_node_destructorINS_9allocatorIS7_EEEEE5firstB7v160006Ev, symObjAddr: 0xA67C, symBinAddr: 0x10001A184, symSize: 0x24 }
  - { offsetInCU: 0x1AF15, offset: 0x45625, size: 0x8, addend: 0x0, symName: __ZNSt3__122__compressed_pair_elemIPNS_11__hash_nodeINS_17__hash_value_typeI4Suit5ColorEEPvEELi0ELb0EE5__getB7v160006Ev, symObjAddr: 0xA6A0, symBinAddr: 0x10001A1A8, symSize: 0x14 }
  - { offsetInCU: 0x1AF3B, offset: 0x4564B, size: 0x8, addend: 0x0, symName: __ZNSt3__110unique_ptrINS_11__hash_nodeINS_17__hash_value_typeI4Suit5ColorEEPvEENS_22__hash_node_destructorINS_9allocatorIS7_EEEEED2B7v160006Ev, symObjAddr: 0xA6B4, symBinAddr: 0x10001A1BC, symSize: 0x30 }
  - { offsetInCU: 0x1AF65, offset: 0x45675, size: 0x8, addend: 0x0, symName: __ZNSt3__110unique_ptrINS_11__hash_nodeINS_17__hash_value_typeI4Suit5ColorEEPvEENS_22__hash_node_destructorINS_9allocatorIS7_EEEEE5resetB7v160006EPS7_, symObjAddr: 0xA6E4, symBinAddr: 0x10001A1EC, symSize: 0x78 }
  - { offsetInCU: 0x1AFA9, offset: 0x456B9, size: 0x8, addend: 0x0, symName: __ZNSt3__122__hash_node_destructorINS_9allocatorINS_11__hash_nodeINS_17__hash_value_typeI4Suit5ColorEEPvEEEEEclB7v160006EPS8_, symObjAddr: 0xA75C, symBinAddr: 0x10001A264, symSize: 0x98 }
  - { offsetInCU: 0x1AFDE, offset: 0x456EE, size: 0x8, addend: 0x0, symName: __ZNSt3__116allocator_traitsINS_9allocatorINS_11__hash_nodeINS_17__hash_value_typeI4Suit5ColorEEPvEEEEE7destroyB7v160006INS_4pairIKS4_S5_EEvvEEvRS9_PT_, symObjAddr: 0xA7F4, symBinAddr: 0x10001A2FC, symSize: 0x14 }
  - { offsetInCU: 0x1B018, offset: 0x45728, size: 0x8, addend: 0x0, symName: __ZNSt3__116allocator_traitsINS_9allocatorINS_11__hash_nodeINS_17__hash_value_typeI4Suit5ColorEEPvEEEEE10deallocateB7v160006ERS9_PS8_m, symObjAddr: 0xA808, symBinAddr: 0x10001A310, symSize: 0x34 }
  - { offsetInCU: 0x1B05A, offset: 0x4576A, size: 0x8, addend: 0x0, symName: __ZNSt3__19allocatorINS_11__hash_nodeINS_17__hash_value_typeI4Suit5ColorEEPvEEE10deallocateB7v160006EPS7_m, symObjAddr: 0xA83C, symBinAddr: 0x10001A344, symSize: 0x44 }
  - { offsetInCU: 0x1B09C, offset: 0x457AC, size: 0x8, addend: 0x0, symName: __ZNSt3__115__hash_iteratorIPNS_11__hash_nodeINS_17__hash_value_typeI4Suit5ColorEEPvEEEC2B7v160006EPNS_16__hash_node_baseIS8_EEPKv, symObjAddr: 0xA880, symBinAddr: 0x10001A388, symSize: 0x24 }
  - { offsetInCU: 0x1B0E4, offset: 0x457F4, size: 0x8, addend: 0x0, symName: __ZNSt3__14pairINS_15__hash_iteratorIPNS_11__hash_nodeINS_17__hash_value_typeI4Suit5ColorEEPvEEEEbEC2B7v160006ISA_RbLS7_0EEEOT_OT0_, symObjAddr: 0xA8A4, symBinAddr: 0x10001A3AC, symSize: 0x38 }
  - { offsetInCU: 0x1B142, offset: 0x45852, size: 0x8, addend: 0x0, symName: __ZNSt3__112__hash_tableINS_17__hash_value_typeI4Suit5ColorEENS_22__unordered_map_hasherIS2_S4_NS_4hashIS2_EENS_8equal_toIS2_EELb1EEENS_21__unordered_map_equalIS2_S4_S9_S7_Lb1EEENS_9allocatorIS4_EEED2Ev, symObjAddr: 0xA8DC, symBinAddr: 0x10001A3E4, symSize: 0x58 }
  - { offsetInCU: 0x1B16E, offset: 0x4587E, size: 0x8, addend: 0x0, symName: __ZNSt3__112__hash_tableINS_17__hash_value_typeI4Suit5ColorEENS_22__unordered_map_hasherIS2_S4_NS_4hashIS2_EENS_8equal_toIS2_EELb1EEENS_21__unordered_map_equalIS2_S4_S9_S7_Lb1EEENS_9allocatorIS4_EEE17__deallocate_nodeEPNS_16__hash_node_baseIPNS_11__hash_nodeIS4_PvEEEE, symObjAddr: 0xA934, symBinAddr: 0x10001A43C, symSize: 0xA4 }
  - { offsetInCU: 0x1B1D8, offset: 0x458E8, size: 0x8, addend: 0x0, symName: __ZNSt3__110unique_ptrIA_PNS_16__hash_node_baseIPNS_11__hash_nodeINS_17__hash_value_typeI4Suit5ColorEEPvEEEENS_25__bucket_list_deallocatorINS_9allocatorISB_EEEEED1B7v160006Ev, symObjAddr: 0xA9E8, symBinAddr: 0x10001A4F0, symSize: 0x2C }
  - { offsetInCU: 0x1B202, offset: 0x45912, size: 0x8, addend: 0x0, symName: __ZNSt3__110unique_ptrIA_PNS_16__hash_node_baseIPNS_11__hash_nodeINS_17__hash_value_typeI4Suit5ColorEEPvEEEENS_25__bucket_list_deallocatorINS_9allocatorISB_EEEEED2B7v160006Ev, symObjAddr: 0xAA14, symBinAddr: 0x10001A51C, symSize: 0x30 }
  - { offsetInCU: 0x1B22C, offset: 0x4593C, size: 0x8, addend: 0x0, symName: __ZNSt3__110unique_ptrIA_PNS_16__hash_node_baseIPNS_11__hash_nodeINS_17__hash_value_typeI4Suit5ColorEEPvEEEENS_25__bucket_list_deallocatorINS_9allocatorISB_EEEEE5resetB7v160006EDn, symObjAddr: 0xAA44, symBinAddr: 0x10001A54C, symSize: 0x6C }
  - { offsetInCU: 0x1B26C, offset: 0x4597C, size: 0x8, addend: 0x0, symName: __ZNSt3__113unordered_mapI4Suit5ColorNS_4hashIS1_EENS_8equal_toIS1_EENS_9allocatorINS_4pairIKS1_S2_EEEEED2B7v160006Ev, symObjAddr: 0xAAB0, symBinAddr: 0x10001A5B8, symSize: 0x2C }
  - { offsetInCU: 0x1B296, offset: 0x459A6, size: 0x8, addend: 0x0, symName: __ZNSt3__14listINS_7variantIJ4Suit5ColorEEENS_9allocatorIS4_EEEC2ESt16initializer_listIS4_E, symObjAddr: 0xAADC, symBinAddr: 0x10001A5E4, symSize: 0xC8 }
  - { offsetInCU: 0x1B2FD, offset: 0x45A0D, size: 0x8, addend: 0x0, symName: __ZNSt3__110__list_impINS_7variantIJ4Suit5ColorEEENS_9allocatorIS4_EEEC2Ev, symObjAddr: 0xABA4, symBinAddr: 0x10001A6AC, symSize: 0x50 }
  - { offsetInCU: 0x1B329, offset: 0x45A39, size: 0x8, addend: 0x0, symName: __ZNKSt16initializer_listINSt3__17variantIJ4Suit5ColorEEEE5beginB7v160006Ev, symObjAddr: 0xAC04, symBinAddr: 0x10001A70C, symSize: 0x18 }
  - { offsetInCU: 0x1B34F, offset: 0x45A5F, size: 0x8, addend: 0x0, symName: __ZNKSt16initializer_listINSt3__17variantIJ4Suit5ColorEEEE3endB7v160006Ev, symObjAddr: 0xAC1C, symBinAddr: 0x10001A724, symSize: 0x20 }
  - { offsetInCU: 0x1B375, offset: 0x45A85, size: 0x8, addend: 0x0, symName: __ZNSt3__14listINS_7variantIJ4Suit5ColorEEENS_9allocatorIS4_EEE9push_backERKS4_, symObjAddr: 0xAC3C, symBinAddr: 0x10001A744, symSize: 0xF4 }
  - { offsetInCU: 0x1B3CA, offset: 0x45ADA, size: 0x8, addend: 0x0, symName: __ZNSt3__116__list_node_baseINS_7variantIJ4Suit5ColorEEEPvEC1B7v160006Ev, symObjAddr: 0xAD30, symBinAddr: 0x10001A838, symSize: 0x2C }
  - { offsetInCU: 0x1B3F4, offset: 0x45B04, size: 0x8, addend: 0x0, symName: __ZNSt3__117__compressed_pairImNS_9allocatorINS_11__list_nodeINS_7variantIJ4Suit5ColorEEEPvEEEEEC1B7v160006IiNS_18__default_init_tagEEEOT_OT0_, symObjAddr: 0xAD5C, symBinAddr: 0x10001A864, symSize: 0x3C }
  - { offsetInCU: 0x1B44C, offset: 0x45B5C, size: 0x8, addend: 0x0, symName: __ZNSt3__116__list_node_baseINS_7variantIJ4Suit5ColorEEEPvEC2B7v160006Ev, symObjAddr: 0xAD98, symBinAddr: 0x10001A8A0, symSize: 0x4C }
  - { offsetInCU: 0x1B476, offset: 0x45B86, size: 0x8, addend: 0x0, symName: __ZNSt3__117__compressed_pairImNS_9allocatorINS_11__list_nodeINS_7variantIJ4Suit5ColorEEEPvEEEEEC2B7v160006IiNS_18__default_init_tagEEEOT_OT0_, symObjAddr: 0xADE4, symBinAddr: 0x10001A8EC, symSize: 0x40 }
  - { offsetInCU: 0x1B4CE, offset: 0x45BDE, size: 0x8, addend: 0x0, symName: __ZNSt3__122__compressed_pair_elemINS_9allocatorINS_11__list_nodeINS_7variantIJ4Suit5ColorEEEPvEEEELi1ELb1EEC2B7v160006ENS_18__default_init_tagE, symObjAddr: 0xAE24, symBinAddr: 0x10001A92C, symSize: 0x2C }
  - { offsetInCU: 0x1B503, offset: 0x45C13, size: 0x8, addend: 0x0, symName: __ZNSt3__19allocatorINS_11__list_nodeINS_7variantIJ4Suit5ColorEEEPvEEEC2B7v160006Ev, symObjAddr: 0xAE50, symBinAddr: 0x10001A958, symSize: 0x2C }
  - { offsetInCU: 0x1B52D, offset: 0x45C3D, size: 0x8, addend: 0x0, symName: __ZNSt3__116__non_trivial_ifILb1ENS_9allocatorINS_11__list_nodeINS_7variantIJ4Suit5ColorEEEPvEEEEEC2B7v160006Ev, symObjAddr: 0xAE7C, symBinAddr: 0x10001A984, symSize: 0x14 }
  - { offsetInCU: 0x1B557, offset: 0x45C67, size: 0x8, addend: 0x0, symName: __ZNSt3__14listINS_7variantIJ4Suit5ColorEEENS_9allocatorIS4_EEE15__allocate_nodeB7v160006ERNS5_INS_11__list_nodeIS4_PvEEEE, symObjAddr: 0xAE90, symBinAddr: 0x10001A998, symSize: 0x70 }
  - { offsetInCU: 0x1B59B, offset: 0x45CAB, size: 0x8, addend: 0x0, symName: __ZNSt3__116allocator_traitsINS_9allocatorINS_11__list_nodeINS_7variantIJ4Suit5ColorEEEPvEEEEE9constructB7v160006IS6_JRKS6_EvEEvRS9_PT_DpOT0_, symObjAddr: 0xAF00, symBinAddr: 0x10001AA08, symSize: 0x34 }
  - { offsetInCU: 0x1B5F2, offset: 0x45D02, size: 0x8, addend: 0x0, symName: __ZNKSt3__110unique_ptrINS_11__list_nodeINS_7variantIJ4Suit5ColorEEEPvEENS_22__allocator_destructorINS_9allocatorIS7_EEEEEptB7v160006Ev, symObjAddr: 0xAF34, symBinAddr: 0x10001AA3C, symSize: 0x28 }
  - { offsetInCU: 0x1B618, offset: 0x45D28, size: 0x8, addend: 0x0, symName: __ZNSt3__14listINS_7variantIJ4Suit5ColorEEENS_9allocatorIS4_EEE20__link_nodes_at_backEPNS_16__list_node_baseIS4_PvEESB_, symObjAddr: 0xAF5C, symBinAddr: 0x10001AA64, symSize: 0x60 }
  - { offsetInCU: 0x1B65E, offset: 0x45D6E, size: 0x8, addend: 0x0, symName: __ZNKSt3__110unique_ptrINS_11__list_nodeINS_7variantIJ4Suit5ColorEEEPvEENS_22__allocator_destructorINS_9allocatorIS7_EEEEE3getB7v160006Ev, symObjAddr: 0xAFBC, symBinAddr: 0x10001AAC4, symSize: 0x28 }
  - { offsetInCU: 0x1B684, offset: 0x45D94, size: 0x8, addend: 0x0, symName: __ZNSt3__111__list_nodeINS_7variantIJ4Suit5ColorEEEPvE9__as_linkB7v160006Ev, symObjAddr: 0xAFE4, symBinAddr: 0x10001AAEC, symSize: 0x24 }
  - { offsetInCU: 0x1B6AA, offset: 0x45DBA, size: 0x8, addend: 0x0, symName: __ZNSt3__110unique_ptrINS_11__list_nodeINS_7variantIJ4Suit5ColorEEEPvEENS_22__allocator_destructorINS_9allocatorIS7_EEEEE7releaseB7v160006Ev, symObjAddr: 0xB008, symBinAddr: 0x10001AB10, symSize: 0x44 }
  - { offsetInCU: 0x1B6DF, offset: 0x45DEF, size: 0x8, addend: 0x0, symName: __ZNSt3__110unique_ptrINS_11__list_nodeINS_7variantIJ4Suit5ColorEEEPvEENS_22__allocator_destructorINS_9allocatorIS7_EEEEED1B7v160006Ev, symObjAddr: 0xB04C, symBinAddr: 0x10001AB54, symSize: 0x2C }
  - { offsetInCU: 0x1B709, offset: 0x45E19, size: 0x8, addend: 0x0, symName: __ZNSt3__116allocator_traitsINS_9allocatorINS_11__list_nodeINS_7variantIJ4Suit5ColorEEEPvEEEEE8allocateB7v160006ERS9_m, symObjAddr: 0xB078, symBinAddr: 0x10001AB80, symSize: 0x2C }
  - { offsetInCU: 0x1B73C, offset: 0x45E4C, size: 0x8, addend: 0x0, symName: __ZNSt3__122__allocator_destructorINS_9allocatorINS_11__list_nodeINS_7variantIJ4Suit5ColorEEEPvEEEEEC1B7v160006ERS9_m, symObjAddr: 0xB0A4, symBinAddr: 0x10001ABAC, symSize: 0x3C }
  - { offsetInCU: 0x1B787, offset: 0x45E97, size: 0x8, addend: 0x0, symName: __ZNSt3__110unique_ptrINS_11__list_nodeINS_7variantIJ4Suit5ColorEEEPvEENS_22__allocator_destructorINS_9allocatorIS7_EEEEEC1B7v160006ILb1EvEEPS7_NS_16__dependent_typeINS_27__unique_ptr_deleter_sfinaeISB_EEXT_EE20__good_rval_ref_typeE, symObjAddr: 0xB0E0, symBinAddr: 0x10001ABE8, symSize: 0x3C }
  - { offsetInCU: 0x1B7D8, offset: 0x45EE8, size: 0x8, addend: 0x0, symName: __ZNSt3__19allocatorINS_11__list_nodeINS_7variantIJ4Suit5ColorEEEPvEEE8allocateB7v160006Em, symObjAddr: 0xB11C, symBinAddr: 0x10001AC24, symSize: 0x5C }
  - { offsetInCU: 0x1B816, offset: 0x45F26, size: 0x8, addend: 0x0, symName: __ZNSt3__116allocator_traitsINS_9allocatorINS_11__list_nodeINS_7variantIJ4Suit5ColorEEEPvEEEEE8max_sizeB7v160006IS9_vEEmRKS9_, symObjAddr: 0xB178, symBinAddr: 0x10001AC80, symSize: 0x24 }
  - { offsetInCU: 0x1B844, offset: 0x45F54, size: 0x8, addend: 0x0, symName: __ZNKSt3__19allocatorINS_11__list_nodeINS_7variantIJ4Suit5ColorEEEPvEEE8max_sizeB7v160006Ev, symObjAddr: 0xB19C, symBinAddr: 0x10001ACA4, symSize: 0x18 }
  - { offsetInCU: 0x1B86A, offset: 0x45F7A, size: 0x8, addend: 0x0, symName: __ZNSt3__122__allocator_destructorINS_9allocatorINS_11__list_nodeINS_7variantIJ4Suit5ColorEEEPvEEEEEC2B7v160006ERS9_m, symObjAddr: 0xB1B4, symBinAddr: 0x10001ACBC, symSize: 0x2C }
  - { offsetInCU: 0x1B8B0, offset: 0x45FC0, size: 0x8, addend: 0x0, symName: __ZNSt3__110unique_ptrINS_11__list_nodeINS_7variantIJ4Suit5ColorEEEPvEENS_22__allocator_destructorINS_9allocatorIS7_EEEEEC2B7v160006ILb1EvEEPS7_NS_16__dependent_typeINS_27__unique_ptr_deleter_sfinaeISB_EEXT_EE20__good_rval_ref_typeE, symObjAddr: 0xB1E0, symBinAddr: 0x10001ACE8, symSize: 0x48 }
  - { offsetInCU: 0x1B901, offset: 0x46011, size: 0x8, addend: 0x0, symName: __ZNSt3__117__compressed_pairIPNS_11__list_nodeINS_7variantIJ4Suit5ColorEEEPvEENS_22__allocator_destructorINS_9allocatorIS7_EEEEEC1B7v160006IRS8_SC_EEOT_OT0_, symObjAddr: 0xB228, symBinAddr: 0x10001AD30, symSize: 0x3C }
  - { offsetInCU: 0x1B959, offset: 0x46069, size: 0x8, addend: 0x0, symName: __ZNSt3__117__compressed_pairIPNS_11__list_nodeINS_7variantIJ4Suit5ColorEEEPvEENS_22__allocator_destructorINS_9allocatorIS7_EEEEEC2B7v160006IRS8_SC_EEOT_OT0_, symObjAddr: 0xB264, symBinAddr: 0x10001AD6C, symSize: 0x48 }
  - { offsetInCU: 0x1B9B1, offset: 0x460C1, size: 0x8, addend: 0x0, symName: __ZNSt3__122__compressed_pair_elemIPNS_11__list_nodeINS_7variantIJ4Suit5ColorEEEPvEELi0ELb0EEC2B7v160006IRS8_vEEOT_, symObjAddr: 0xB2AC, symBinAddr: 0x10001ADB4, symSize: 0x24 }
  - { offsetInCU: 0x1B9F3, offset: 0x46103, size: 0x8, addend: 0x0, symName: __ZNSt3__122__compressed_pair_elemINS_22__allocator_destructorINS_9allocatorINS_11__list_nodeINS_7variantIJ4Suit5ColorEEEPvEEEEEELi1ELb0EEC2B7v160006ISB_vEEOT_, symObjAddr: 0xB2D0, symBinAddr: 0x10001ADD8, symSize: 0x24 }
  - { offsetInCU: 0x1BA35, offset: 0x46145, size: 0x8, addend: 0x0, symName: __ZNSt3__19allocatorINS_11__list_nodeINS_7variantIJ4Suit5ColorEEEPvEEE9constructB7v160006IS5_JRKS5_EEEvPT_DpOT0_, symObjAddr: 0xB2F4, symBinAddr: 0x10001ADFC, symSize: 0x28 }
  - { offsetInCU: 0x1BA8B, offset: 0x4619B, size: 0x8, addend: 0x0, symName: __ZNKSt3__117__compressed_pairIPNS_11__list_nodeINS_7variantIJ4Suit5ColorEEEPvEENS_22__allocator_destructorINS_9allocatorIS7_EEEEE5firstB7v160006Ev, symObjAddr: 0xB31C, symBinAddr: 0x10001AE24, symSize: 0x24 }
  - { offsetInCU: 0x1BAB1, offset: 0x461C1, size: 0x8, addend: 0x0, symName: __ZNKSt3__122__compressed_pair_elemIPNS_11__list_nodeINS_7variantIJ4Suit5ColorEEEPvEELi0ELb0EE5__getB7v160006Ev, symObjAddr: 0xB340, symBinAddr: 0x10001AE48, symSize: 0x14 }
  - { offsetInCU: 0x1BAD7, offset: 0x461E7, size: 0x8, addend: 0x0, symName: __ZNSt3__117__compressed_pairIPNS_11__list_nodeINS_7variantIJ4Suit5ColorEEEPvEENS_22__allocator_destructorINS_9allocatorIS7_EEEEE5firstB7v160006Ev, symObjAddr: 0xB354, symBinAddr: 0x10001AE5C, symSize: 0x24 }
  - { offsetInCU: 0x1BAFD, offset: 0x4620D, size: 0x8, addend: 0x0, symName: __ZNSt3__122__compressed_pair_elemIPNS_11__list_nodeINS_7variantIJ4Suit5ColorEEEPvEELi0ELb0EE5__getB7v160006Ev, symObjAddr: 0xB378, symBinAddr: 0x10001AE80, symSize: 0x14 }
  - { offsetInCU: 0x1BB23, offset: 0x46233, size: 0x8, addend: 0x0, symName: __ZNSt3__110unique_ptrINS_11__list_nodeINS_7variantIJ4Suit5ColorEEEPvEENS_22__allocator_destructorINS_9allocatorIS7_EEEEED2B7v160006Ev, symObjAddr: 0xB38C, symBinAddr: 0x10001AE94, symSize: 0x30 }
  - { offsetInCU: 0x1BB4D, offset: 0x4625D, size: 0x8, addend: 0x0, symName: __ZNSt3__110unique_ptrINS_11__list_nodeINS_7variantIJ4Suit5ColorEEEPvEENS_22__allocator_destructorINS_9allocatorIS7_EEEEE5resetB7v160006EPS7_, symObjAddr: 0xB3BC, symBinAddr: 0x10001AEC4, symSize: 0x78 }
  - { offsetInCU: 0x1BB91, offset: 0x462A1, size: 0x8, addend: 0x0, symName: __ZNSt3__117__compressed_pairIPNS_11__list_nodeINS_7variantIJ4Suit5ColorEEEPvEENS_22__allocator_destructorINS_9allocatorIS7_EEEEE6secondB7v160006Ev, symObjAddr: 0xB434, symBinAddr: 0x10001AF3C, symSize: 0x28 }
  - { offsetInCU: 0x1BBB7, offset: 0x462C7, size: 0x8, addend: 0x0, symName: __ZNSt3__122__allocator_destructorINS_9allocatorINS_11__list_nodeINS_7variantIJ4Suit5ColorEEEPvEEEEEclB7v160006EPS8_, symObjAddr: 0xB45C, symBinAddr: 0x10001AF64, symSize: 0x34 }
  - { offsetInCU: 0x1BBEB, offset: 0x462FB, size: 0x8, addend: 0x0, symName: __ZNSt3__122__compressed_pair_elemINS_22__allocator_destructorINS_9allocatorINS_11__list_nodeINS_7variantIJ4Suit5ColorEEEPvEEEEEELi1ELb0EE5__getB7v160006Ev, symObjAddr: 0xB490, symBinAddr: 0x10001AF98, symSize: 0x14 }
  - { offsetInCU: 0x1BC11, offset: 0x46321, size: 0x8, addend: 0x0, symName: __ZNSt3__16vectorIiNS_9allocatorIiEEEC2B7v160006Ev, symObjAddr: 0xB4A4, symBinAddr: 0x10001AFAC, symSize: 0x58 }
  - { offsetInCU: 0x1BC40, offset: 0x46350, size: 0x8, addend: 0x0, symName: __ZNSt3__16vectorIiNS_9allocatorIiEEE22__construct_one_at_endB7v160006IJiEEEvDpOT_, symObjAddr: 0xBB20, symBinAddr: 0x10001B004, symSize: 0x90 }
  - { offsetInCU: 0x1BC8F, offset: 0x4639F, size: 0x8, addend: 0x0, symName: __ZNSt3__16vectorIiNS_9allocatorIiEEE21__push_back_slow_pathIiEEvOT_, symObjAddr: 0xBBB0, symBinAddr: 0x10001B094, symSize: 0xD8 }
  - { offsetInCU: 0x1BD06, offset: 0x46416, size: 0x8, addend: 0x0, symName: __ZNSt3__116allocator_traitsINS_9allocatorIiEEE9constructB7v160006IiJiEvEEvRS2_PT_DpOT0_, symObjAddr: 0xBCFC, symBinAddr: 0x10001B16C, symSize: 0x34 }
  - { offsetInCU: 0x1BD5D, offset: 0x4646D, size: 0x8, addend: 0x0, symName: __ZNSt3__19allocatorIiE9constructB7v160006IiJiEEEvPT_DpOT0_, symObjAddr: 0xBDA0, symBinAddr: 0x10001B1A0, symSize: 0x28 }
  - { offsetInCU: 0x1BDB3, offset: 0x464C3, size: 0x8, addend: 0x0, symName: __ZNKSt3__16vectorIiNS_9allocatorIiEEE11__recommendB7v160006Em, symObjAddr: 0xBDE8, symBinAddr: 0x10001B1C8, symSize: 0xB4 }
  - { offsetInCU: 0x1BE08, offset: 0x46518, size: 0x8, addend: 0x0, symName: __ZNSt3__114__split_bufferIiRNS_9allocatorIiEEEC1EmmS3_, symObjAddr: 0xBE9C, symBinAddr: 0x10001B27C, symSize: 0x44 }
  - { offsetInCU: 0x1BE5E, offset: 0x4656E, size: 0x8, addend: 0x0, symName: __ZNSt3__114__split_bufferIiRNS_9allocatorIiEEED1Ev, symObjAddr: 0xBFF8, symBinAddr: 0x10001B3D8, symSize: 0x2C }
  - { offsetInCU: 0x1BE94, offset: 0x465A4, size: 0x8, addend: 0x0, symName: __ZNSt3__114__split_bufferIiRNS_9allocatorIiEEEC2EmmS3_, symObjAddr: 0xC2B8, symBinAddr: 0x10001B404, symSize: 0xD4 }
  - { offsetInCU: 0x1BF07, offset: 0x46617, size: 0x8, addend: 0x0, symName: __ZNSt3__117__compressed_pairIPiRNS_9allocatorIiEEEC1B7v160006IDnS4_EEOT_OT0_, symObjAddr: 0xC38C, symBinAddr: 0x10001B4D8, symSize: 0x3C }
  - { offsetInCU: 0x1BF5F, offset: 0x4666F, size: 0x8, addend: 0x0, symName: __ZNSt3__114__split_bufferIiRNS_9allocatorIiEEE7__allocB7v160006Ev, symObjAddr: 0xC408, symBinAddr: 0x10001B514, symSize: 0x28 }
  - { offsetInCU: 0x1BF85, offset: 0x46695, size: 0x8, addend: 0x0, symName: __ZNSt3__114__split_bufferIiRNS_9allocatorIiEEE9__end_capB7v160006Ev, symObjAddr: 0xC430, symBinAddr: 0x10001B53C, symSize: 0x28 }
  - { offsetInCU: 0x1BFAB, offset: 0x466BB, size: 0x8, addend: 0x0, symName: __ZNSt3__117__compressed_pairIPiRNS_9allocatorIiEEEC2B7v160006IDnS4_EEOT_OT0_, symObjAddr: 0xC458, symBinAddr: 0x10001B564, symSize: 0x48 }
  - { offsetInCU: 0x1C003, offset: 0x46713, size: 0x8, addend: 0x0, symName: __ZNSt3__122__compressed_pair_elemIRNS_9allocatorIiEELi1ELb0EEC2B7v160006IS3_vEEOT_, symObjAddr: 0xC4A0, symBinAddr: 0x10001B5AC, symSize: 0x20 }
  - { offsetInCU: 0x1C045, offset: 0x46755, size: 0x8, addend: 0x0, symName: __ZNSt3__117__compressed_pairIPiRNS_9allocatorIiEEE6secondB7v160006Ev, symObjAddr: 0xC518, symBinAddr: 0x10001B5CC, symSize: 0x28 }
  - { offsetInCU: 0x1C06B, offset: 0x4677B, size: 0x8, addend: 0x0, symName: __ZNSt3__122__compressed_pair_elemIRNS_9allocatorIiEELi1ELb0EE5__getB7v160006Ev, symObjAddr: 0xC540, symBinAddr: 0x10001B5F4, symSize: 0x18 }
  - { offsetInCU: 0x1C091, offset: 0x467A1, size: 0x8, addend: 0x0, symName: __ZNSt3__117__compressed_pairIPiRNS_9allocatorIiEEE5firstB7v160006Ev, symObjAddr: 0xC558, symBinAddr: 0x10001B60C, symSize: 0x24 }
  - { offsetInCU: 0x1C0B7, offset: 0x467C7, size: 0x8, addend: 0x0, symName: __ZNSt3__116reverse_iteratorIPiEC1B7v160006ES1_, symObjAddr: 0xC5F4, symBinAddr: 0x10001B6A8, symSize: 0x34 }
  - { offsetInCU: 0x1C0EF, offset: 0x467FF, size: 0x8, addend: 0x0, symName: __ZNKSt3__116reverse_iteratorIPiE4baseB7v160006Ev, symObjAddr: 0xC628, symBinAddr: 0x10001B6DC, symSize: 0x18 }
  - { offsetInCU: 0x1C138, offset: 0x46848, size: 0x8, addend: 0x0, symName: __ZNKSt3__111__move_loopINS_17_ClassicAlgPolicyEEclB7v160006INS_16reverse_iteratorIPiEES6_S6_EENS_4pairIT_T1_EES8_T0_S9_, symObjAddr: 0xCA28, symBinAddr: 0x10001BA30, symSize: 0xA0 }
  - { offsetInCU: 0x1C1A3, offset: 0x468B3, size: 0x8, addend: 0x0, symName: __ZNSt3__18_IterOpsINS_17_ClassicAlgPolicyEE11__iter_moveB7v160006IRNS_16reverse_iteratorIPiEEEENS_9enable_ifIXsr12is_referenceIDTdeclsr3stdE7declvalIRT_EEEEE5valueEDTclsr3stdE4movedeclsr3stdE7declvalISA_EEEEE4typeEOS9_, symObjAddr: 0xCC5C, symBinAddr: 0x10001BC64, symSize: 0x28 }
  - { offsetInCU: 0x1C1CF, offset: 0x468DF, size: 0x8, addend: 0x0, symName: __ZNKSt3__116reverse_iteratorIPiEdeB7v160006Ev, symObjAddr: 0xCC84, symBinAddr: 0x10001BC8C, symSize: 0x28 }
  - { offsetInCU: 0x1C203, offset: 0x46913, size: 0x8, addend: 0x0, symName: __ZNSt3__116reverse_iteratorIPiEppB7v160006Ev, symObjAddr: 0xCCAC, symBinAddr: 0x10001BCB4, symSize: 0x20 }
  - { offsetInCU: 0x1C229, offset: 0x46939, size: 0x8, addend: 0x0, symName: __ZNSt3__18_IterOpsINS_17_ClassicAlgPolicyEE25__validate_iter_referenceB7v160006IRNS_16reverse_iteratorIPiEEEEvv, symObjAddr: 0xCCCC, symBinAddr: 0x10001BCD4, symSize: 0x4 }
  - { offsetInCU: 0x1C247, offset: 0x46957, size: 0x8, addend: 0x0, symName: __ZNSt3__118__unwrap_iter_implINS_16reverse_iteratorIPiEELb0EE8__unwrapB7v160006ES3_, symObjAddr: 0xCCD0, symBinAddr: 0x10001BCD8, symSize: 0x24 }
  - { offsetInCU: 0x1C26F, offset: 0x4697F, size: 0x8, addend: 0x0, symName: __ZNSt3__14pairINS_16reverse_iteratorIPiEES3_EC1B7v160006IS3_S3_LPv0EEEOT_OT0_, symObjAddr: 0xCCF4, symBinAddr: 0x10001BCFC, symSize: 0x3C }
  - { offsetInCU: 0x1C2CD, offset: 0x469DD, size: 0x8, addend: 0x0, symName: __ZNSt3__14pairINS_16reverse_iteratorIPiEES3_EC2B7v160006IS3_S3_LPv0EEEOT_OT0_, symObjAddr: 0xCD30, symBinAddr: 0x10001BD38, symSize: 0x34 }
  - { offsetInCU: 0x1C32B, offset: 0x46A3B, size: 0x8, addend: 0x0, symName: __ZNSt3__118__unwrap_iter_implINS_16reverse_iteratorIPiEELb0EE8__rewrapB7v160006ES3_S3_, symObjAddr: 0xCD64, symBinAddr: 0x10001BD6C, symSize: 0x2C }
  - { offsetInCU: 0x1C359, offset: 0x46A69, size: 0x8, addend: 0x0, symName: __ZNSt3__116reverse_iteratorIPiEC2B7v160006ES1_, symObjAddr: 0xCD90, symBinAddr: 0x10001BD98, symSize: 0x28 }
  - { offsetInCU: 0x1C391, offset: 0x46AA1, size: 0x8, addend: 0x0, symName: __ZNSt3__114__split_bufferIiRNS_9allocatorIiEEED2Ev, symObjAddr: 0xCDB8, symBinAddr: 0x10001BDC0, symSize: 0x8C }
  - { offsetInCU: 0x1C3BD, offset: 0x46ACD, size: 0x8, addend: 0x0, symName: __ZNSt3__114__split_bufferIiRNS_9allocatorIiEEE5clearB7v160006Ev, symObjAddr: 0xCE44, symBinAddr: 0x10001BE4C, symSize: 0x28 }
  - { offsetInCU: 0x1C3E3, offset: 0x46AF3, size: 0x8, addend: 0x0, symName: __ZNKSt3__114__split_bufferIiRNS_9allocatorIiEEE8capacityB7v160006Ev, symObjAddr: 0xCE6C, symBinAddr: 0x10001BE74, symSize: 0x40 }
  - { offsetInCU: 0x1C409, offset: 0x46B19, size: 0x8, addend: 0x0, symName: __ZNSt3__114__split_bufferIiRNS_9allocatorIiEEE17__destruct_at_endB7v160006EPi, symObjAddr: 0xCEAC, symBinAddr: 0x10001BEB4, symSize: 0x2C }
  - { offsetInCU: 0x1C43D, offset: 0x46B4D, size: 0x8, addend: 0x0, symName: __ZNSt3__114__split_bufferIiRNS_9allocatorIiEEE17__destruct_at_endB7v160006EPiNS_17integral_constantIbLb0EEE, symObjAddr: 0xCED8, symBinAddr: 0x10001BEE0, symSize: 0x80 }
  - { offsetInCU: 0x1C47E, offset: 0x46B8E, size: 0x8, addend: 0x0, symName: __ZNKSt3__114__split_bufferIiRNS_9allocatorIiEEE9__end_capB7v160006Ev, symObjAddr: 0xCF58, symBinAddr: 0x10001BF60, symSize: 0x28 }
  - { offsetInCU: 0x1C4A4, offset: 0x46BB4, size: 0x8, addend: 0x0, symName: __ZNKSt3__117__compressed_pairIPiRNS_9allocatorIiEEE5firstB7v160006Ev, symObjAddr: 0xCF80, symBinAddr: 0x10001BF88, symSize: 0x24 }
  - { offsetInCU: 0x1C4CA, offset: 0x46BDA, size: 0x8, addend: 0x0, symName: __ZNSt3__110__list_impI4CardNS_9allocatorIS1_EEE5beginB7v160006Ev, symObjAddr: 0xCFA4, symBinAddr: 0x10001BFAC, symSize: 0x30 }
  - { offsetInCU: 0x1C4F0, offset: 0x46C00, size: 0x8, addend: 0x0, symName: __ZNKSt3__14listI4CardNS_9allocatorIS1_EEE13get_allocatorEv, symObjAddr: 0xD0A0, symBinAddr: 0x10001C00C, symSize: 0x30 }
  - { offsetInCU: 0x1C518, offset: 0x46C28, size: 0x8, addend: 0x0, symName: __ZNSt3__14listI4CardNS_9allocatorIS1_EEEC1B7v160006ERKS3_, symObjAddr: 0xD0D0, symBinAddr: 0x10001C03C, symSize: 0x34 }
  - { offsetInCU: 0x1C55B, offset: 0x46C6B, size: 0x8, addend: 0x0, symName: '__ZZ15remove_sandwich8CardDeckS_ENK3$_2clERK4Card', symObjAddr: 0xD104, symBinAddr: 0x10001C070, symSize: 0x84 }
  - { offsetInCU: 0x1C593, offset: 0x46CA3, size: 0x8, addend: 0x0, symName: __ZNSt3__14listI4CardNS_9allocatorIS1_EEE6spliceENS_21__list_const_iteratorIS1_PvEERS4_S7_S7_, symObjAddr: 0xD188, symBinAddr: 0x10001C0F4, symSize: 0x108 }
  - { offsetInCU: 0x1C640, offset: 0x46D50, size: 0x8, addend: 0x0, symName: __ZNSt3__14listI4CardNS_9allocatorIS1_EEED1Ev, symObjAddr: 0xD290, symBinAddr: 0x10001C1FC, symSize: 0x2C }
  - { offsetInCU: 0x1C66D, offset: 0x46D7D, size: 0x8, addend: 0x0, symName: __ZNSt3__19allocatorI4CardEC1B7v160006INS_11__list_nodeIS1_PvEEEERKNS0_IT_EE, symObjAddr: 0xD2BC, symBinAddr: 0x10001C228, symSize: 0x34 }
  - { offsetInCU: 0x1C6AB, offset: 0x46DBB, size: 0x8, addend: 0x0, symName: __ZNSt3__19allocatorI4CardEC2B7v160006INS_11__list_nodeIS1_PvEEEERKNS0_IT_EE, symObjAddr: 0xD2F0, symBinAddr: 0x10001C25C, symSize: 0x30 }
  - { offsetInCU: 0x1C6E9, offset: 0x46DF9, size: 0x8, addend: 0x0, symName: __ZNSt3__14listI4CardNS_9allocatorIS1_EEEC2B7v160006ERKS3_, symObjAddr: 0xD334, symBinAddr: 0x10001C28C, symSize: 0x3C }
  - { offsetInCU: 0x1C722, offset: 0x46E32, size: 0x8, addend: 0x0, symName: __ZNSt3__110__list_impI4CardNS_9allocatorIS1_EEEC2ERKS3_, symObjAddr: 0xD370, symBinAddr: 0x10001C2C8, symSize: 0x60 }
  - { offsetInCU: 0x1C762, offset: 0x46E72, size: 0x8, addend: 0x0, symName: __ZNSt3__19allocatorINS_11__list_nodeI4CardPvEEEC1B7v160006IS2_EERKNS0_IT_EE, symObjAddr: 0xD3D0, symBinAddr: 0x10001C328, symSize: 0x34 }
  - { offsetInCU: 0x1C7A0, offset: 0x46EB0, size: 0x8, addend: 0x0, symName: __ZNSt3__19allocatorINS_11__list_nodeI4CardPvEEEC2B7v160006IS2_EERKNS0_IT_EE, symObjAddr: 0xD404, symBinAddr: 0x10001C35C, symSize: 0x30 }
  - { offsetInCU: 0x1C7DE, offset: 0x46EEE, size: 0x8, addend: 0x0, symName: __ZNSt3__121__list_const_iteratorI4CardPvEmmB7v160006Ev, symObjAddr: 0xD4A8, symBinAddr: 0x10001C400, symSize: 0x20 }
  - { offsetInCU: 0x1C804, offset: 0x46F14, size: 0x8, addend: 0x0, symName: __ZNSt3__14listI4CardNS_9allocatorIS1_EEE21__link_nodes_at_frontEPNS_16__list_node_baseIS1_PvEES8_, symObjAddr: 0xD650, symBinAddr: 0x10001C4B8, symSize: 0x60 }
  - { offsetInCU: 0x1C84A, offset: 0x46F5A, size: 0x8, addend: 0x0, symName: __ZNSt3__14listIiNS_9allocatorIiEEEC2B7v160006Ev, symObjAddr: 0xDB4C, symBinAddr: 0x10001C518, symSize: 0x3C }
  - { offsetInCU: 0x1C874, offset: 0x46F84, size: 0x8, addend: 0x0, symName: __ZNSt3__110__list_impIiNS_9allocatorIiEEEC2Ev, symObjAddr: 0xDB88, symBinAddr: 0x10001C554, symSize: 0x50 }
  - { offsetInCU: 0x1C8A0, offset: 0x46FB0, size: 0x8, addend: 0x0, symName: __ZNSt3__116__list_node_baseIiPvEC1B7v160006Ev, symObjAddr: 0xDBE8, symBinAddr: 0x10001C5B4, symSize: 0x2C }
  - { offsetInCU: 0x1C8CA, offset: 0x46FDA, size: 0x8, addend: 0x0, symName: __ZNSt3__117__compressed_pairImNS_9allocatorINS_11__list_nodeIiPvEEEEEC1B7v160006IiNS_18__default_init_tagEEEOT_OT0_, symObjAddr: 0xDC14, symBinAddr: 0x10001C5E0, symSize: 0x3C }
  - { offsetInCU: 0x1C922, offset: 0x47032, size: 0x8, addend: 0x0, symName: __ZNSt3__116__list_node_baseIiPvEC2B7v160006Ev, symObjAddr: 0xDC50, symBinAddr: 0x10001C61C, symSize: 0x4C }
  - { offsetInCU: 0x1C94C, offset: 0x4705C, size: 0x8, addend: 0x0, symName: __ZNSt3__117__compressed_pairImNS_9allocatorINS_11__list_nodeIiPvEEEEEC2B7v160006IiNS_18__default_init_tagEEEOT_OT0_, symObjAddr: 0xDC9C, symBinAddr: 0x10001C668, symSize: 0x40 }
  - { offsetInCU: 0x1C9A4, offset: 0x470B4, size: 0x8, addend: 0x0, symName: __ZNSt3__122__compressed_pair_elemINS_9allocatorINS_11__list_nodeIiPvEEEELi1ELb1EEC2B7v160006ENS_18__default_init_tagE, symObjAddr: 0xDCDC, symBinAddr: 0x10001C6A8, symSize: 0x2C }
  - { offsetInCU: 0x1C9D9, offset: 0x470E9, size: 0x8, addend: 0x0, symName: __ZNSt3__19allocatorINS_11__list_nodeIiPvEEEC2B7v160006Ev, symObjAddr: 0xDD08, symBinAddr: 0x10001C6D4, symSize: 0x2C }
  - { offsetInCU: 0x1CA03, offset: 0x47113, size: 0x8, addend: 0x0, symName: __ZNSt3__116__non_trivial_ifILb1ENS_9allocatorINS_11__list_nodeIiPvEEEEEC2B7v160006Ev, symObjAddr: 0xDD34, symBinAddr: 0x10001C700, symSize: 0x14 }
  - { offsetInCU: 0x1CA2D, offset: 0x4713D, size: 0x8, addend: 0x0, symName: __ZNSt3__120back_insert_iteratorINS_4listIiNS_9allocatorIiEEEEEC1B7v160006ERS4_, symObjAddr: 0xDE14, symBinAddr: 0x10001C714, symSize: 0x34 }
  - { offsetInCU: 0x1CA65, offset: 0x47175, size: 0x8, addend: 0x0, symName: __ZNSt3__120back_insert_iteratorINS_4listIiNS_9allocatorIiEEEEEC2B7v160006ERS4_, symObjAddr: 0xDE48, symBinAddr: 0x10001C748, symSize: 0x20 }
  - { offsetInCU: 0x1CA9D, offset: 0x471AD, size: 0x8, addend: 0x0, symName: __ZNSt3__120back_insert_iteratorINS_4listIiNS_9allocatorIiEEEEEdeB7v160006Ev, symObjAddr: 0xDE68, symBinAddr: 0x10001C768, symSize: 0x14 }
  - { offsetInCU: 0x1CAC3, offset: 0x471D3, size: 0x8, addend: 0x0, symName: __ZNSt3__120back_insert_iteratorINS_4listIiNS_9allocatorIiEEEEEaSB7v160006EOi, symObjAddr: 0xDE7C, symBinAddr: 0x10001C77C, symSize: 0x38 }
  - { offsetInCU: 0x1CAF7, offset: 0x47207, size: 0x8, addend: 0x0, symName: __ZNSt3__120back_insert_iteratorINS_4listIiNS_9allocatorIiEEEEEppB7v160006Ev, symObjAddr: 0xDEB4, symBinAddr: 0x10001C7B4, symSize: 0x14 }
  - { offsetInCU: 0x1CB1D, offset: 0x4722D, size: 0x8, addend: 0x0, symName: __ZNSt3__14listIiNS_9allocatorIiEEE9push_backEOi, symObjAddr: 0xDEC8, symBinAddr: 0x10001C7C8, symSize: 0xF4 }
  - { offsetInCU: 0x1CB72, offset: 0x47282, size: 0x8, addend: 0x0, symName: __ZNSt3__14listIiNS_9allocatorIiEEE15__allocate_nodeB7v160006ERNS1_INS_11__list_nodeIiPvEEEE, symObjAddr: 0xDFBC, symBinAddr: 0x10001C8BC, symSize: 0x70 }
  - { offsetInCU: 0x1CBB6, offset: 0x472C6, size: 0x8, addend: 0x0, symName: __ZNSt3__116allocator_traitsINS_9allocatorINS_11__list_nodeIiPvEEEEE9constructB7v160006IiJiEvEEvRS5_PT_DpOT0_, symObjAddr: 0xE02C, symBinAddr: 0x10001C92C, symSize: 0x34 }
  - { offsetInCU: 0x1CC0D, offset: 0x4731D, size: 0x8, addend: 0x0, symName: __ZNKSt3__110unique_ptrINS_11__list_nodeIiPvEENS_22__allocator_destructorINS_9allocatorIS3_EEEEEptB7v160006Ev, symObjAddr: 0xE060, symBinAddr: 0x10001C960, symSize: 0x28 }
  - { offsetInCU: 0x1CC33, offset: 0x47343, size: 0x8, addend: 0x0, symName: __ZNSt3__14listIiNS_9allocatorIiEEE20__link_nodes_at_backEPNS_16__list_node_baseIiPvEES7_, symObjAddr: 0xE088, symBinAddr: 0x10001C988, symSize: 0x60 }
  - { offsetInCU: 0x1CC79, offset: 0x47389, size: 0x8, addend: 0x0, symName: __ZNKSt3__110unique_ptrINS_11__list_nodeIiPvEENS_22__allocator_destructorINS_9allocatorIS3_EEEEE3getB7v160006Ev, symObjAddr: 0xE0E8, symBinAddr: 0x10001C9E8, symSize: 0x28 }
  - { offsetInCU: 0x1CC9F, offset: 0x473AF, size: 0x8, addend: 0x0, symName: __ZNSt3__111__list_nodeIiPvE9__as_linkB7v160006Ev, symObjAddr: 0xE110, symBinAddr: 0x10001CA10, symSize: 0x24 }
  - { offsetInCU: 0x1CCC5, offset: 0x473D5, size: 0x8, addend: 0x0, symName: __ZNSt3__110unique_ptrINS_11__list_nodeIiPvEENS_22__allocator_destructorINS_9allocatorIS3_EEEEE7releaseB7v160006Ev, symObjAddr: 0xE134, symBinAddr: 0x10001CA34, symSize: 0x44 }
  - { offsetInCU: 0x1CCFA, offset: 0x4740A, size: 0x8, addend: 0x0, symName: __ZNSt3__110unique_ptrINS_11__list_nodeIiPvEENS_22__allocator_destructorINS_9allocatorIS3_EEEEED1B7v160006Ev, symObjAddr: 0xE178, symBinAddr: 0x10001CA78, symSize: 0x2C }
  - { offsetInCU: 0x1CD24, offset: 0x47434, size: 0x8, addend: 0x0, symName: __ZNSt3__116allocator_traitsINS_9allocatorINS_11__list_nodeIiPvEEEEE8allocateB7v160006ERS5_m, symObjAddr: 0xE1A4, symBinAddr: 0x10001CAA4, symSize: 0x2C }
  - { offsetInCU: 0x1CD57, offset: 0x47467, size: 0x8, addend: 0x0, symName: __ZNSt3__122__allocator_destructorINS_9allocatorINS_11__list_nodeIiPvEEEEEC1B7v160006ERS5_m, symObjAddr: 0xE1D0, symBinAddr: 0x10001CAD0, symSize: 0x3C }
  - { offsetInCU: 0x1CDA2, offset: 0x474B2, size: 0x8, addend: 0x0, symName: __ZNSt3__110unique_ptrINS_11__list_nodeIiPvEENS_22__allocator_destructorINS_9allocatorIS3_EEEEEC1B7v160006ILb1EvEEPS3_NS_16__dependent_typeINS_27__unique_ptr_deleter_sfinaeIS7_EEXT_EE20__good_rval_ref_typeE, symObjAddr: 0xE20C, symBinAddr: 0x10001CB0C, symSize: 0x3C }
  - { offsetInCU: 0x1CDF3, offset: 0x47503, size: 0x8, addend: 0x0, symName: __ZNSt3__19allocatorINS_11__list_nodeIiPvEEE8allocateB7v160006Em, symObjAddr: 0xE248, symBinAddr: 0x10001CB48, symSize: 0x5C }
  - { offsetInCU: 0x1CE31, offset: 0x47541, size: 0x8, addend: 0x0, symName: __ZNSt3__116allocator_traitsINS_9allocatorINS_11__list_nodeIiPvEEEEE8max_sizeB7v160006IS5_vEEmRKS5_, symObjAddr: 0xE2A4, symBinAddr: 0x10001CBA4, symSize: 0x24 }
  - { offsetInCU: 0x1CE5F, offset: 0x4756F, size: 0x8, addend: 0x0, symName: __ZNKSt3__19allocatorINS_11__list_nodeIiPvEEE8max_sizeB7v160006Ev, symObjAddr: 0xE2C8, symBinAddr: 0x10001CBC8, symSize: 0x18 }
  - { offsetInCU: 0x1CE85, offset: 0x47595, size: 0x8, addend: 0x0, symName: __ZNSt3__122__allocator_destructorINS_9allocatorINS_11__list_nodeIiPvEEEEEC2B7v160006ERS5_m, symObjAddr: 0xE2E0, symBinAddr: 0x10001CBE0, symSize: 0x2C }
  - { offsetInCU: 0x1CECB, offset: 0x475DB, size: 0x8, addend: 0x0, symName: __ZNSt3__110unique_ptrINS_11__list_nodeIiPvEENS_22__allocator_destructorINS_9allocatorIS3_EEEEEC2B7v160006ILb1EvEEPS3_NS_16__dependent_typeINS_27__unique_ptr_deleter_sfinaeIS7_EEXT_EE20__good_rval_ref_typeE, symObjAddr: 0xE30C, symBinAddr: 0x10001CC0C, symSize: 0x48 }
  - { offsetInCU: 0x1CF1C, offset: 0x4762C, size: 0x8, addend: 0x0, symName: __ZNSt3__117__compressed_pairIPNS_11__list_nodeIiPvEENS_22__allocator_destructorINS_9allocatorIS3_EEEEEC1B7v160006IRS4_S8_EEOT_OT0_, symObjAddr: 0xE354, symBinAddr: 0x10001CC54, symSize: 0x3C }
  - { offsetInCU: 0x1CF74, offset: 0x47684, size: 0x8, addend: 0x0, symName: __ZNSt3__117__compressed_pairIPNS_11__list_nodeIiPvEENS_22__allocator_destructorINS_9allocatorIS3_EEEEEC2B7v160006IRS4_S8_EEOT_OT0_, symObjAddr: 0xE390, symBinAddr: 0x10001CC90, symSize: 0x48 }
  - { offsetInCU: 0x1CFCC, offset: 0x476DC, size: 0x8, addend: 0x0, symName: __ZNSt3__122__compressed_pair_elemIPNS_11__list_nodeIiPvEELi0ELb0EEC2B7v160006IRS4_vEEOT_, symObjAddr: 0xE3D8, symBinAddr: 0x10001CCD8, symSize: 0x24 }
  - { offsetInCU: 0x1D00E, offset: 0x4771E, size: 0x8, addend: 0x0, symName: __ZNSt3__122__compressed_pair_elemINS_22__allocator_destructorINS_9allocatorINS_11__list_nodeIiPvEEEEEELi1ELb0EEC2B7v160006IS7_vEEOT_, symObjAddr: 0xE3FC, symBinAddr: 0x10001CCFC, symSize: 0x24 }
  - { offsetInCU: 0x1D050, offset: 0x47760, size: 0x8, addend: 0x0, symName: __ZNSt3__19allocatorINS_11__list_nodeIiPvEEE9constructB7v160006IiJiEEEvPT_DpOT0_, symObjAddr: 0xE420, symBinAddr: 0x10001CD20, symSize: 0x28 }
  - { offsetInCU: 0x1D0A6, offset: 0x477B6, size: 0x8, addend: 0x0, symName: __ZNKSt3__117__compressed_pairIPNS_11__list_nodeIiPvEENS_22__allocator_destructorINS_9allocatorIS3_EEEEE5firstB7v160006Ev, symObjAddr: 0xE448, symBinAddr: 0x10001CD48, symSize: 0x24 }
  - { offsetInCU: 0x1D0CC, offset: 0x477DC, size: 0x8, addend: 0x0, symName: __ZNKSt3__122__compressed_pair_elemIPNS_11__list_nodeIiPvEELi0ELb0EE5__getB7v160006Ev, symObjAddr: 0xE46C, symBinAddr: 0x10001CD6C, symSize: 0x14 }
  - { offsetInCU: 0x1D0F2, offset: 0x47802, size: 0x8, addend: 0x0, symName: __ZNSt3__117__compressed_pairIPNS_11__list_nodeIiPvEENS_22__allocator_destructorINS_9allocatorIS3_EEEEE5firstB7v160006Ev, symObjAddr: 0xE480, symBinAddr: 0x10001CD80, symSize: 0x24 }
  - { offsetInCU: 0x1D118, offset: 0x47828, size: 0x8, addend: 0x0, symName: __ZNSt3__122__compressed_pair_elemIPNS_11__list_nodeIiPvEELi0ELb0EE5__getB7v160006Ev, symObjAddr: 0xE4A4, symBinAddr: 0x10001CDA4, symSize: 0x14 }
  - { offsetInCU: 0x1D13E, offset: 0x4784E, size: 0x8, addend: 0x0, symName: __ZNSt3__110unique_ptrINS_11__list_nodeIiPvEENS_22__allocator_destructorINS_9allocatorIS3_EEEEED2B7v160006Ev, symObjAddr: 0xE4B8, symBinAddr: 0x10001CDB8, symSize: 0x30 }
  - { offsetInCU: 0x1D168, offset: 0x47878, size: 0x8, addend: 0x0, symName: __ZNSt3__110unique_ptrINS_11__list_nodeIiPvEENS_22__allocator_destructorINS_9allocatorIS3_EEEEE5resetB7v160006EPS3_, symObjAddr: 0xE4E8, symBinAddr: 0x10001CDE8, symSize: 0x78 }
  - { offsetInCU: 0x1D1AC, offset: 0x478BC, size: 0x8, addend: 0x0, symName: __ZNSt3__117__compressed_pairIPNS_11__list_nodeIiPvEENS_22__allocator_destructorINS_9allocatorIS3_EEEEE6secondB7v160006Ev, symObjAddr: 0xE560, symBinAddr: 0x10001CE60, symSize: 0x28 }
  - { offsetInCU: 0x1D1D2, offset: 0x478E2, size: 0x8, addend: 0x0, symName: __ZNSt3__122__allocator_destructorINS_9allocatorINS_11__list_nodeIiPvEEEEEclB7v160006EPS4_, symObjAddr: 0xE588, symBinAddr: 0x10001CE88, symSize: 0x34 }
  - { offsetInCU: 0x1D206, offset: 0x47916, size: 0x8, addend: 0x0, symName: __ZNSt3__122__compressed_pair_elemINS_22__allocator_destructorINS_9allocatorINS_11__list_nodeIiPvEEEEEELi1ELb0EE5__getB7v160006Ev, symObjAddr: 0xE5BC, symBinAddr: 0x10001CEBC, symSize: 0x14 }
  - { offsetInCU: 0x1D22C, offset: 0x4793C, size: 0x8, addend: 0x0, symName: __ZNSt3__110__list_impIiNS_9allocatorIiEEE5beginB7v160006Ev, symObjAddr: 0xE5D0, symBinAddr: 0x10001CED0, symSize: 0x30 }
  - { offsetInCU: 0x1D252, offset: 0x47962, size: 0x8, addend: 0x0, symName: __ZNSt3__115__list_iteratorIiPvEC1B7v160006EPNS_16__list_node_baseIiS1_EEPKv, symObjAddr: 0xE600, symBinAddr: 0x10001CF00, symSize: 0x3C }
  - { offsetInCU: 0x1D29A, offset: 0x479AA, size: 0x8, addend: 0x0, symName: __ZNSt3__115__list_iteratorIiPvEC2B7v160006EPNS_16__list_node_baseIiS1_EEPKv, symObjAddr: 0xE63C, symBinAddr: 0x10001CF3C, symSize: 0x24 }
  - { offsetInCU: 0x1D2E2, offset: 0x479F2, size: 0x8, addend: 0x0, symName: __ZNSt3__110__list_impIiNS_9allocatorIiEEE3endB7v160006Ev, symObjAddr: 0xE660, symBinAddr: 0x10001CF60, symSize: 0x3C }
  - { offsetInCU: 0x1D308, offset: 0x47A18, size: 0x8, addend: 0x0, symName: __ZNKSt3__115__list_iteratorIiPvEdeB7v160006Ev, symObjAddr: 0xE6D0, symBinAddr: 0x10001CFD0, symSize: 0x2C }
  - { offsetInCU: 0x1D32E, offset: 0x47A3E, size: 0x8, addend: 0x0, symName: __ZNSt3__120back_insert_iteratorINS_4listIiNS_9allocatorIiEEEEEaSB7v160006ERKi, symObjAddr: 0xE6FC, symBinAddr: 0x10001CFFC, symSize: 0x38 }
  - { offsetInCU: 0x1D362, offset: 0x47A72, size: 0x8, addend: 0x0, symName: __ZNSt3__115__list_iteratorIiPvEppB7v160006Ev, symObjAddr: 0xE734, symBinAddr: 0x10001D034, symSize: 0x20 }
  - { offsetInCU: 0x1D392, offset: 0x47AA2, size: 0x8, addend: 0x0, symName: __ZNKSt3__112not_equal_toIvEclB7v160006IRiS3_EEDTneclsr3stdE7forwardIT_Efp_Eclsr3stdE7forwardIT0_Efp0_EEOS4_OS5_, symObjAddr: 0xE820, symBinAddr: 0x10001D120, symSize: 0x34 }
  - { offsetInCU: 0x1D3E8, offset: 0x47AF8, size: 0x8, addend: 0x0, symName: __ZNSt3__116allocator_traitsINS_9allocatorINS_11__list_nodeIiPvEEEEE9constructB7v160006IiJRKiEvEEvRS5_PT_DpOT0_, symObjAddr: 0xE854, symBinAddr: 0x10001D154, symSize: 0x34 }
  - { offsetInCU: 0x1D43F, offset: 0x47B4F, size: 0x8, addend: 0x0, symName: __ZNSt3__19allocatorINS_11__list_nodeIiPvEEE9constructB7v160006IiJRKiEEEvPT_DpOT0_, symObjAddr: 0xE888, symBinAddr: 0x10001D188, symSize: 0x28 }
  - { offsetInCU: 0x1D495, offset: 0x47BA5, size: 0x8, addend: 0x0, symName: __ZNSt3__112__hash_tableINS_17__hash_value_typeI4Suit5ColorEENS_22__unordered_map_hasherIS2_S4_NS_4hashIS2_EENS_8equal_toIS2_EELb1EEENS_21__unordered_map_equalIS2_S4_S9_S7_Lb1EEENS_9allocatorIS4_EEE4findIS2_EENS_15__hash_iteratorIPNS_11__hash_nodeIS4_PvEEEERKT_, symObjAddr: 0xE8B0, symBinAddr: 0x10001D1B0, symSize: 0x1B4 }
  - { offsetInCU: 0x1D51F, offset: 0x47C2F, size: 0x8, addend: 0x0, symName: __ZNSt3__119__hash_map_iteratorINS_15__hash_iteratorIPNS_11__hash_nodeINS_17__hash_value_typeI4Suit5ColorEEPvEEEEEC1B7v160006ESA_, symObjAddr: 0xEA64, symBinAddr: 0x10001D364, symSize: 0x34 }
  - { offsetInCU: 0x1D558, offset: 0x47C68, size: 0x8, addend: 0x0, symName: __ZNSt3__112__hash_tableINS_17__hash_value_typeI4Suit5ColorEENS_22__unordered_map_hasherIS2_S4_NS_4hashIS2_EENS_8equal_toIS2_EELb1EEENS_21__unordered_map_equalIS2_S4_S9_S7_Lb1EEENS_9allocatorIS4_EEE3endEv, symObjAddr: 0xEA98, symBinAddr: 0x10001D398, symSize: 0x30 }
  - { offsetInCU: 0x1D580, offset: 0x47C90, size: 0x8, addend: 0x0, symName: __ZNSt3__119__hash_map_iteratorINS_15__hash_iteratorIPNS_11__hash_nodeINS_17__hash_value_typeI4Suit5ColorEEPvEEEEEC2B7v160006ESA_, symObjAddr: 0xEAC8, symBinAddr: 0x10001D3C8, symSize: 0x20 }
  - { offsetInCU: 0x1D5B9, offset: 0x47CC9, size: 0x8, addend: 0x0, symName: __ZNSt3__114pointer_traitsIPNS_4pairIK4Suit5ColorEEE10pointer_toB7v160006ERS5_, symObjAddr: 0xEAE8, symBinAddr: 0x10001D3E8, symSize: 0x14 }
  - { offsetInCU: 0x1D5DC, offset: 0x47CEC, size: 0x8, addend: 0x0, symName: __ZNKSt3__115__hash_iteratorIPNS_11__hash_nodeINS_17__hash_value_typeI4Suit5ColorEEPvEEEptB7v160006Ev, symObjAddr: 0xEAFC, symBinAddr: 0x10001D3FC, symSize: 0x30 }
  - { offsetInCU: 0x1D602, offset: 0x47D12, size: 0x8, addend: 0x0, symName: __ZNSt3__114pointer_traitsIPNS_17__hash_value_typeI4Suit5ColorEEE10pointer_toB7v160006ERS4_, symObjAddr: 0xEB2C, symBinAddr: 0x10001D42C, symSize: 0x14 }
  - { offsetInCU: 0x1D62A, offset: 0x47D3A, size: 0x8, addend: 0x0, symName: '__ZNSt3__14listI4CardNS_9allocatorIS1_EEE6__sortIZ13find_sandwich8CardDeckE3$_3EENS_15__list_iteratorIS1_PvEESA_SA_mRT_', symObjAddr: 0xED18, symBinAddr: 0x10001D590, symSize: 0x604 }
  - { offsetInCU: 0x1D76E, offset: 0x47E7E, size: 0x8, addend: 0x0, symName: '__ZZ13find_sandwich8CardDeckENK3$_3clE4CardS1_', symObjAddr: 0xF31C, symBinAddr: 0x10001DB94, symSize: 0xC0 }
  - { offsetInCU: 0x1D7B4, offset: 0x47EC4, size: 0x8, addend: 0x0, symName: __ZNSt3__110__list_impINS_7variantIJ4Suit5ColorEEENS_9allocatorIS4_EEE5beginB7v160006Ev, symObjAddr: 0xF400, symBinAddr: 0x10001DC54, symSize: 0x30 }
  - { offsetInCU: 0x1D7DA, offset: 0x47EEA, size: 0x8, addend: 0x0, symName: __ZNSt3__115__list_iteratorINS_7variantIJ4Suit5ColorEEEPvEC1B7v160006EPNS_16__list_node_baseIS4_S5_EEPKv, symObjAddr: 0xF430, symBinAddr: 0x10001DC84, symSize: 0x3C }
  - { offsetInCU: 0x1D822, offset: 0x47F32, size: 0x8, addend: 0x0, symName: __ZNSt3__115__list_iteratorINS_7variantIJ4Suit5ColorEEEPvEC2B7v160006EPNS_16__list_node_baseIS4_S5_EEPKv, symObjAddr: 0xF46C, symBinAddr: 0x10001DCC0, symSize: 0x24 }
  - { offsetInCU: 0x1D86A, offset: 0x47F7A, size: 0x8, addend: 0x0, symName: __ZNSt3__110__list_impINS_7variantIJ4Suit5ColorEEENS_9allocatorIS4_EEE3endB7v160006Ev, symObjAddr: 0xF490, symBinAddr: 0x10001DCE4, symSize: 0x3C }
  - { offsetInCU: 0x404C, offset: 0x4C3B8, size: 0x8, addend: 0x0, symName: '__ZNSt3__111__introsortINS_17_ClassicAlgPolicyERZ5equalRK8CardDeckS4_E3$_0P4CardEEvT1_S9_T0_NS_15iterator_traitsIS9_E15difference_typeE', symObjAddr: 0x32DC, symBinAddr: 0x10001EF3C, symSize: 0x6D0 }
  - { offsetInCU: 0x41A9, offset: 0x4C515, size: 0x8, addend: 0x0, symName: '__ZNSt3__118__insertion_sort_3B7v160006INS_17_ClassicAlgPolicyERZ5equalRK8CardDeckS4_E3$_0P4CardEEvT1_S9_T0_', symObjAddr: 0x3BC0, symBinAddr: 0x10001F804, symSize: 0x15C }
  - { offsetInCU: 0x427D, offset: 0x4C5E9, size: 0x8, addend: 0x0, symName: '__ZNSt3__111__sift_downB7v160006INS_17_ClassicAlgPolicyERZ5equalRK8CardDeckS4_E3$_0P4CardEEvT1_OT0_NS_15iterator_traitsIS9_E15difference_typeES9_', symObjAddr: 0x4614, symBinAddr: 0x100020204, symSize: 0x234 }
  - { offsetInCU: 0x432B, offset: 0x4C697, size: 0x8, addend: 0x0, symName: '__ZNSt3__117__floyd_sift_downB7v160006INS_17_ClassicAlgPolicyERZ5equalRK8CardDeckS4_E3$_0P4CardEET1_S9_OT0_NS_15iterator_traitsIS9_E15difference_typeE', symObjAddr: 0x49EC, symBinAddr: 0x1000205DC, symSize: 0x110 }
  - { offsetInCU: 0x43C4, offset: 0x4C730, size: 0x8, addend: 0x0, symName: '__ZNSt3__127__insertion_sort_incompleteIRZ5equalRK8CardDeckS3_E3$_0P4CardEEbT0_S8_T_', symObjAddr: 0x3F48, symBinAddr: 0x10001FB8C, symSize: 0x328 }
  - { offsetInCU: 0x4FC9, offset: 0x4D335, size: 0x8, addend: 0x0, symName: '__ZNSt3__14sortB7v160006INS_11__wrap_iterIP4CardEEZ5equalRK8CardDeckS7_E3$_0EEvT_S9_T0_', symObjAddr: 0x704, symBinAddr: 0x10001E3FC, symSize: 0x40 }
  - { offsetInCU: 0x5024, offset: 0x4D390, size: 0x8, addend: 0x0, symName: __ZNSt3__122__make_exception_guardB7v160006INS_6vectorI4CardNS_9allocatorIS2_EEE16__destroy_vectorEEENS_28__exception_guard_exceptionsIT_EES8_, symObjAddr: 0x1A10, symBinAddr: 0x10001E700, symSize: 0x40 }
  - { offsetInCU: 0x5059, offset: 0x4D3C5, size: 0x8, addend: 0x0, symName: __ZNSt3__130__uninitialized_allocator_copyB7v160006INS_9allocatorI4CardEENS_21__list_const_iteratorIS2_PvEES6_PS2_EET2_RT_T0_T1_S8_, symObjAddr: 0x25B4, symBinAddr: 0x10001E930, symSize: 0x10C }
  - { offsetInCU: 0x50F7, offset: 0x4D463, size: 0x8, addend: 0x0, symName: __ZNSt3__122__make_exception_guardB7v160006INS_29_AllocatorDestroyRangeReverseINS_9allocatorI4CardEEPS3_EEEENS_28__exception_guard_exceptionsIT_EES8_, symObjAddr: 0x2738, symBinAddr: 0x10001EA3C, symSize: 0x4C }
  - { offsetInCU: 0x512D, offset: 0x4D499, size: 0x8, addend: 0x0, symName: __ZNSt3__119__allocator_destroyB7v160006INS_9allocatorI4CardEENS_16reverse_iteratorIPS2_EES6_EEvRT_T0_T1_, symObjAddr: 0x2A18, symBinAddr: 0x10001EC68, symSize: 0x70 }
  - { offsetInCU: 0x5190, offset: 0x4D4FC, size: 0x8, addend: 0x0, symName: __ZNSt3__112__to_addressB7v160006INS_16reverse_iteratorIP4CardEEvEENS_5decayIDTclsr19__to_address_helperIT_EE6__callclsr3stdE7declvalIRKS6_EEEEE4typeES8_, symObjAddr: 0x2B30, symBinAddr: 0x10001ECD8, symSize: 0x24 }
  - { offsetInCU: 0x51F0, offset: 0x4D55C, size: 0x8, addend: 0x0, symName: '__ZNSt3__111__sort_implB7v160006INS_17_ClassicAlgPolicyENS_11__wrap_iterIP4CardEEZ5equalRK8CardDeckS8_E3$_0EEvT0_SA_RT1_', symObjAddr: 0x3148, symBinAddr: 0x10001EDA8, symSize: 0x84 }
  - { offsetInCU: 0x5298, offset: 0x4D604, size: 0x8, addend: 0x0, symName: __ZNSt3__123__debug_randomize_rangeB7v160006INS_17_ClassicAlgPolicyENS_11__wrap_iterIP4CardEES5_EEvT0_T1_, symObjAddr: 0x31CC, symBinAddr: 0x10001EE2C, symSize: 0x14 }
  - { offsetInCU: 0x52E9, offset: 0x4D655, size: 0x8, addend: 0x0, symName: '__ZNSt3__16__sortIRZ5equalRK8CardDeckS3_E3$_0P4CardEEvT0_S8_T_', symObjAddr: 0x31E0, symBinAddr: 0x10001EE40, symSize: 0x68 }
  - { offsetInCU: 0x537A, offset: 0x4D6E6, size: 0x8, addend: 0x0, symName: __ZNSt3__113__unwrap_iterB7v160006INS_11__wrap_iterIP4CardEENS_18__unwrap_iter_implIS4_Lb1EEELi0EEEDTclsrT0_8__unwrapclsr3stdE7declvalIT_EEEES8_, symObjAddr: 0x3248, symBinAddr: 0x10001EEA8, symSize: 0x2C }
  - { offsetInCU: 0x53BE, offset: 0x4D72A, size: 0x8, addend: 0x0, symName: __ZNSt3__17__log2iB7v160006IlEET_S1_, symObjAddr: 0x3274, symBinAddr: 0x10001EED4, symSize: 0x54 }
  - { offsetInCU: 0x54BA, offset: 0x4D826, size: 0x8, addend: 0x0, symName: '__ZNSt3__124__sort3_maybe_branchlessB7v160006INS_17_ClassicAlgPolicyERZ5equalRK8CardDeckS4_E3$_0P4CardEENS_9enable_ifIXntsr21__use_branchless_sortIT0_T1_EE5valueEvE4typeESB_SB_SB_SA_', symObjAddr: 0x3AF4, symBinAddr: 0x10001F738, symSize: 0x3C }
  - { offsetInCU: 0x552C, offset: 0x4D898, size: 0x8, addend: 0x0, symName: '__ZNSt3__124__sort4_maybe_branchlessB7v160006INS_17_ClassicAlgPolicyERZ5equalRK8CardDeckS4_E3$_0P4CardEENS_9enable_ifIXntsr21__use_branchless_sortIT0_T1_EE5valueEvE4typeESB_SB_SB_SB_SA_', symObjAddr: 0x3B30, symBinAddr: 0x10001F774, symSize: 0x44 }
  - { offsetInCU: 0x55B2, offset: 0x4D91E, size: 0x8, addend: 0x0, symName: '__ZNSt3__124__sort5_maybe_branchlessB7v160006INS_17_ClassicAlgPolicyERZ5equalRK8CardDeckS4_E3$_0P4CardEENS_9enable_ifIXntsr21__use_branchless_sortIT0_T1_EE5valueEvE4typeESB_SB_SB_SB_SB_SA_', symObjAddr: 0x3B74, symBinAddr: 0x10001F7B8, symSize: 0x4C }
  - { offsetInCU: 0x5647, offset: 0x4D9B3, size: 0x8, addend: 0x0, symName: '__ZNSt3__114__partial_sortB7v160006INS_17_ClassicAlgPolicyERZ5equalRK8CardDeckS4_E3$_0P4CardS8_EET1_S9_S9_T2_RT0_', symObjAddr: 0x3D1C, symBinAddr: 0x10001F960, symSize: 0x94 }
  - { offsetInCU: 0x56D0, offset: 0x4DA3C, size: 0x8, addend: 0x0, symName: '__ZNSt3__119__sort5_wrap_policyB7v160006INS_17_ClassicAlgPolicyERZ5equalRK8CardDeckS4_E3$_0P4CardEEjT1_S9_S9_S9_S9_T0_', symObjAddr: 0x3DB0, symBinAddr: 0x10001F9F4, symSize: 0x54 }
  - { offsetInCU: 0x5777, offset: 0x4DAE3, size: 0x8, addend: 0x0, symName: '__ZNSt3__17__sort3B7v160006INS_17_ClassicAlgPolicyERZ5equalRK8CardDeckS4_E3$_0P4CardEEjT1_S9_S9_T0_', symObjAddr: 0x3E04, symBinAddr: 0x10001FA48, symSize: 0x144 }
  - { offsetInCU: 0x57F7, offset: 0x4DB63, size: 0x8, addend: 0x0, symName: __ZNSt3__19iter_swapB7v160006IP4CardS2_EEvT_T0_, symObjAddr: 0x4288, symBinAddr: 0x10001FECC, symSize: 0x2C }
  - { offsetInCU: 0x5840, offset: 0x4DBAC, size: 0x8, addend: 0x0, symName: '__ZNSt3__17__sort4B7v160006INS_17_ClassicAlgPolicyERZ5equalRK8CardDeckS4_E3$_0P4CardEEjT1_S9_S9_S9_T0_', symObjAddr: 0x4308, symBinAddr: 0x10001FEF8, symSize: 0xE4 }
  - { offsetInCU: 0x58CE, offset: 0x4DC3A, size: 0x8, addend: 0x0, symName: __ZNSt3__123__debug_randomize_rangeB7v160006INS_17_ClassicAlgPolicyEP4CardS3_EEvT0_T1_, symObjAddr: 0x4430, symBinAddr: 0x100020020, symSize: 0x14 }
  - { offsetInCU: 0x591F, offset: 0x4DC8B, size: 0x8, addend: 0x0, symName: '__ZNSt3__119__partial_sort_implB7v160006INS_17_ClassicAlgPolicyERZ5equalRK8CardDeckS4_E3$_0P4CardS8_EET1_S9_S9_T2_OT0_', symObjAddr: 0x4444, symBinAddr: 0x100020034, symSize: 0x110 }
  - { offsetInCU: 0x59B6, offset: 0x4DD22, size: 0x8, addend: 0x0, symName: '__ZNSt3__111__make_heapB7v160006INS_17_ClassicAlgPolicyERZ5equalRK8CardDeckS4_E3$_0P4CardEEvT1_S9_OT0_', symObjAddr: 0x4554, symBinAddr: 0x100020144, symSize: 0xC0 }
  - { offsetInCU: 0x5A59, offset: 0x4DDC5, size: 0x8, addend: 0x0, symName: '__ZNSt3__111__sort_heapB7v160006INS_17_ClassicAlgPolicyERZ5equalRK8CardDeckS4_E3$_0P4CardEEvT1_S9_OT0_', symObjAddr: 0x4848, symBinAddr: 0x100020438, symSize: 0x90 }
  - { offsetInCU: 0x5AEE, offset: 0x4DE5A, size: 0x8, addend: 0x0, symName: '__ZNSt3__110__pop_heapB7v160006INS_17_ClassicAlgPolicyEZ5equalRK8CardDeckS4_E3$_0P4CardEEvT1_S8_RT0_NS_15iterator_traitsIS8_E15difference_typeE', symObjAddr: 0x48D8, symBinAddr: 0x1000204C8, symSize: 0x114 }
  - { offsetInCU: 0x5B9F, offset: 0x4DF0B, size: 0x8, addend: 0x0, symName: '__ZNSt3__19__sift_upB7v160006INS_17_ClassicAlgPolicyERZ5equalRK8CardDeckS4_E3$_0P4CardEEvT1_S9_OT0_NS_15iterator_traitsIS9_E15difference_typeE', symObjAddr: 0x4AFC, symBinAddr: 0x1000206EC, symSize: 0x144 }
  - { offsetInCU: 0x5C50, offset: 0x4DFBC, size: 0x8, addend: 0x0, symName: '__ZNSt3__17__sort5IRZ5equalRK8CardDeckS3_E3$_0P4CardEEjT0_S8_S8_S8_S8_T_', symObjAddr: 0x4C40, symBinAddr: 0x100020830, symSize: 0x12C }
  - { offsetInCU: 0x5D4F, offset: 0x4E0BB, size: 0x8, addend: 0x0, symName: __ZNSt3__112__to_addressB7v160006INS_11__wrap_iterIP4CardEEvEENS_5decayIDTclsr19__to_address_helperIT_EE6__callclsr3stdE7declvalIRKS6_EEEEE4typeES8_, symObjAddr: 0x4D94, symBinAddr: 0x100020984, symSize: 0x24 }
  - { offsetInCU: 0x802B, offset: 0x50397, size: 0x8, addend: 0x0, symName: __ZlsRNSt3__113basic_ostreamIcNS_11char_traitsIcEEEE5Color, symObjAddr: 0x0, symBinAddr: 0x10001DEB4, symSize: 0x58 }
  - { offsetInCU: 0x8065, offset: 0x503D1, size: 0x8, addend: 0x0, symName: __ZlsRNSt3__113basic_ostreamIcNS_11char_traitsIcEEEE4Suit, symObjAddr: 0xB0, symBinAddr: 0x10001DF0C, symSize: 0x58 }
  - { offsetInCU: 0x809F, offset: 0x5040B, size: 0x8, addend: 0x0, symName: __ZlsRNSt3__113basic_ostreamIcNS_11char_traitsIcEEEE4Rank, symObjAddr: 0x108, symBinAddr: 0x10001DF64, symSize: 0x58 }
  - { offsetInCU: 0x80D9, offset: 0x50445, size: 0x8, addend: 0x0, symName: __ZlsRNSt3__113basic_ostreamIcNS_11char_traitsIcEEEERKNS_4pairI8CardDeckS6_EE, symObjAddr: 0x160, symBinAddr: 0x10001DFBC, symSize: 0xC8 }
  - { offsetInCU: 0x8113, offset: 0x5047F, size: 0x8, addend: 0x0, symName: __ZlsRNSt3__113basic_ostreamIcNS_11char_traitsIcEEEERKNS_5tupleIJbm8CardDeckS6_EEE, symObjAddr: 0x270, symBinAddr: 0x10001E084, symSize: 0x140 }
  - { offsetInCU: 0x814D, offset: 0x504B9, size: 0x8, addend: 0x0, symName: __Z5equalRK8CardDeckS1_, symObjAddr: 0x44C, symBinAddr: 0x10001E1C4, symSize: 0x1FC }
  - { offsetInCU: 0x81FE, offset: 0x5056A, size: 0x8, addend: 0x0, symName: __ZNSt3__16vectorI4CardNS_9allocatorIS1_EEEC1INS_21__list_const_iteratorIS1_PvEELi0EEET_S9_, symObjAddr: 0x6C8, symBinAddr: 0x10001E3C0, symSize: 0x3C }
  - { offsetInCU: 0x8257, offset: 0x505C3, size: 0x8, addend: 0x0, symName: __ZNSt3__16vectorI4CardNS_9allocatorIS1_EEEixB7v160006Em, symObjAddr: 0x7CC, symBinAddr: 0x10001E43C, symSize: 0x2C }
  - { offsetInCU: 0x828D, offset: 0x505F9, size: 0x8, addend: 0x0, symName: __Z5equalRKNSt3__14pairI8CardDeckS1_EES4_, symObjAddr: 0x824, symBinAddr: 0x10001E468, symSize: 0x60 }
  - { offsetInCU: 0x82C7, offset: 0x50633, size: 0x8, addend: 0x0, symName: __Z5equalRKNSt3__15tupleIJbm8CardDeckS1_EEES4_, symObjAddr: 0x884, symBinAddr: 0x10001E4C8, symSize: 0xE0 }
  - { offsetInCU: 0x8301, offset: 0x5066D, size: 0x8, addend: 0x0, symName: __Z5equalImEbRKT_S2_, symObjAddr: 0x99C, symBinAddr: 0x10001E5A8, symSize: 0x30 }
  - { offsetInCU: 0x836D, offset: 0x506D9, size: 0x8, addend: 0x0, symName: __ZNSt3__16vectorI4CardNS_9allocatorIS1_EEEC2INS_21__list_const_iteratorIS1_PvEELi0EEET_S9_, symObjAddr: 0x18AC, symBinAddr: 0x10001E5D8, symSize: 0x128 }
  - { offsetInCU: 0x83EB, offset: 0x50757, size: 0x8, addend: 0x0, symName: __ZNSt3__16vectorI4CardNS_9allocatorIS1_EEE11__vallocateB7v160006Em, symObjAddr: 0x1AD0, symBinAddr: 0x10001E740, symSize: 0xB4 }
  - { offsetInCU: 0x842F, offset: 0x5079B, size: 0x8, addend: 0x0, symName: __ZNSt3__16vectorI4CardNS_9allocatorIS1_EEE18__construct_at_endINS_21__list_const_iteratorIS1_PvEELi0EEEvT_S9_m, symObjAddr: 0x1B84, symBinAddr: 0x10001E7F4, symSize: 0x9C }
  - { offsetInCU: 0x84A2, offset: 0x5080E, size: 0x8, addend: 0x0, symName: __ZNSt3__128__exception_guard_exceptionsINS_6vectorI4CardNS_9allocatorIS2_EEE16__destroy_vectorEE10__completeB7v160006Ev, symObjAddr: 0x1C20, symBinAddr: 0x10001E890, symSize: 0x1C }
  - { offsetInCU: 0x84C8, offset: 0x50834, size: 0x8, addend: 0x0, symName: __ZNSt3__128__exception_guard_exceptionsINS_6vectorI4CardNS_9allocatorIS2_EEE16__destroy_vectorEED1B7v160006Ev, symObjAddr: 0x1C3C, symBinAddr: 0x10001E8AC, symSize: 0x2C }
  - { offsetInCU: 0x84F2, offset: 0x5085E, size: 0x8, addend: 0x0, symName: __ZNSt3__128__exception_guard_exceptionsINS_6vectorI4CardNS_9allocatorIS2_EEE16__destroy_vectorEEC1B7v160006ES6_, symObjAddr: 0x1D30, symBinAddr: 0x10001E8D8, symSize: 0x34 }
  - { offsetInCU: 0x852A, offset: 0x50896, size: 0x8, addend: 0x0, symName: __ZNSt3__128__exception_guard_exceptionsINS_6vectorI4CardNS_9allocatorIS2_EEE16__destroy_vectorEEC2B7v160006ES6_, symObjAddr: 0x1D64, symBinAddr: 0x10001E90C, symSize: 0x24 }
  - { offsetInCU: 0x857B, offset: 0x508E7, size: 0x8, addend: 0x0, symName: __ZNSt3__129_AllocatorDestroyRangeReverseINS_9allocatorI4CardEEPS2_EC1B7v160006ERS3_RS4_S7_, symObjAddr: 0x2784, symBinAddr: 0x10001EA88, symSize: 0x44 }
  - { offsetInCU: 0x85D2, offset: 0x5093E, size: 0x8, addend: 0x0, symName: __ZNSt3__128__exception_guard_exceptionsINS_29_AllocatorDestroyRangeReverseINS_9allocatorI4CardEEPS3_EEE10__completeB7v160006Ev, symObjAddr: 0x2828, symBinAddr: 0x10001EACC, symSize: 0x1C }
  - { offsetInCU: 0x85F8, offset: 0x50964, size: 0x8, addend: 0x0, symName: __ZNSt3__128__exception_guard_exceptionsINS_29_AllocatorDestroyRangeReverseINS_9allocatorI4CardEEPS3_EEED1B7v160006Ev, symObjAddr: 0x2844, symBinAddr: 0x10001EAE8, symSize: 0x2C }
  - { offsetInCU: 0x8622, offset: 0x5098E, size: 0x8, addend: 0x0, symName: __ZNSt3__128__exception_guard_exceptionsINS_29_AllocatorDestroyRangeReverseINS_9allocatorI4CardEEPS3_EEEC1B7v160006ES6_, symObjAddr: 0x2870, symBinAddr: 0x10001EB14, symSize: 0x34 }
  - { offsetInCU: 0x865B, offset: 0x509C7, size: 0x8, addend: 0x0, symName: __ZNSt3__128__exception_guard_exceptionsINS_29_AllocatorDestroyRangeReverseINS_9allocatorI4CardEEPS3_EEEC2B7v160006ES6_, symObjAddr: 0x28A4, symBinAddr: 0x10001EB48, symSize: 0x30 }
  - { offsetInCU: 0x8694, offset: 0x50A00, size: 0x8, addend: 0x0, symName: __ZNSt3__129_AllocatorDestroyRangeReverseINS_9allocatorI4CardEEPS2_EC2B7v160006ERS3_RS4_S7_, symObjAddr: 0x28D4, symBinAddr: 0x10001EB78, symSize: 0x38 }
  - { offsetInCU: 0x86EB, offset: 0x50A57, size: 0x8, addend: 0x0, symName: __ZNSt3__128__exception_guard_exceptionsINS_29_AllocatorDestroyRangeReverseINS_9allocatorI4CardEEPS3_EEED2B7v160006Ev, symObjAddr: 0x2960, symBinAddr: 0x10001EBB0, symSize: 0x50 }
  - { offsetInCU: 0x8715, offset: 0x50A81, size: 0x8, addend: 0x0, symName: __ZNKSt3__129_AllocatorDestroyRangeReverseINS_9allocatorI4CardEEPS2_EclB7v160006Ev, symObjAddr: 0x29B0, symBinAddr: 0x10001EC00, symSize: 0x68 }
  - { offsetInCU: 0x8740, offset: 0x50AAC, size: 0x8, addend: 0x0, symName: __ZNSt3__119__to_address_helperINS_16reverse_iteratorIP4CardEEvE6__callB7v160006ERKS4_, symObjAddr: 0x2BA0, symBinAddr: 0x10001ECFC, symSize: 0x38 }
  - { offsetInCU: 0x8763, offset: 0x50ACF, size: 0x8, addend: 0x0, symName: __ZNKSt3__116reverse_iteratorIP4CardEptB7v160006Ev, symObjAddr: 0x2BD8, symBinAddr: 0x10001ED34, symSize: 0x24 }
  - { offsetInCU: 0x8789, offset: 0x50AF5, size: 0x8, addend: 0x0, symName: __ZNSt3__128__exception_guard_exceptionsINS_6vectorI4CardNS_9allocatorIS2_EEE16__destroy_vectorEED2B7v160006Ev, symObjAddr: 0x2C6C, symBinAddr: 0x10001ED58, symSize: 0x50 }
  - { offsetInCU: 0x87B8, offset: 0x50B24, size: 0x8, addend: 0x0, symName: '__ZNSt3__116_UnwrapAlgPolicyIRZ5equalRK8CardDeckS3_E3$_0E10__get_compB7v160006ES5_', symObjAddr: 0x32C8, symBinAddr: 0x10001EF28, symSize: 0x14 }
  - { offsetInCU: 0x87E5, offset: 0x50B51, size: 0x8, addend: 0x0, symName: '__ZZ5equalRK8CardDeckS1_ENK3$_0clERK4CardS5_', symObjAddr: 0x39E0, symBinAddr: 0x10001F624, symSize: 0xE0 }
  - { offsetInCU: 0x882B, offset: 0x50B97, size: 0x8, addend: 0x0, symName: __ZNSt3__18_IterOpsINS_17_ClassicAlgPolicyEE9iter_swapB7v160006IRP4CardS6_EEvOT_OT0_, symObjAddr: 0x3AC0, symBinAddr: 0x10001F704, symSize: 0x34 }
  - { offsetInCU: 0x886E, offset: 0x50BDA, size: 0x8, addend: 0x0, symName: __ZNSt3__18_IterOpsINS_17_ClassicAlgPolicyEE11__iter_moveB7v160006IRP4CardEENS_9enable_ifIXsr12is_referenceIDTdeclsr3stdE7declvalIRT_EEEEE5valueEDTclsr3stdE4movedeclsr3stdE7declvalIS9_EEEEE4typeEOS8_, symObjAddr: 0x43EC, symBinAddr: 0x10001FFDC, symSize: 0x28 }
  - { offsetInCU: 0x889A, offset: 0x50C06, size: 0x8, addend: 0x0, symName: __ZNSt3__18_IterOpsINS_17_ClassicAlgPolicyEE25__validate_iter_referenceB7v160006IRP4CardEEvv, symObjAddr: 0x4414, symBinAddr: 0x100020004, symSize: 0x4 }
  - { offsetInCU: 0x88B8, offset: 0x50C24, size: 0x8, addend: 0x0, symName: __ZNSt3__18_IterOpsINS_17_ClassicAlgPolicyEE4nextB7v160006IP4CardEET_S6_S6_, symObjAddr: 0x4418, symBinAddr: 0x100020008, symSize: 0x18 }
  - { offsetInCU: 0x88EF, offset: 0x50C5B, size: 0x8, addend: 0x0, symName: __ZNSt3__118__unwrap_iter_implINS_11__wrap_iterIP4CardEELb1EE8__unwrapB7v160006ES4_, symObjAddr: 0x4D6C, symBinAddr: 0x10002095C, symSize: 0x28 }
  - { offsetInCU: 0x891C, offset: 0x50C88, size: 0x8, addend: 0x0, symName: __ZNSt3__119__to_address_helperINS_11__wrap_iterIP4CardEEvE6__callB7v160006ERKS4_, symObjAddr: 0x4DB8, symBinAddr: 0x1000209A8, symSize: 0x30 }
  - { offsetInCU: 0x893F, offset: 0x50CAB, size: 0x8, addend: 0x0, symName: __ZNSt3__114pointer_traitsINS_11__wrap_iterIP4CardEEE10to_addressB7v160006ES4_, symObjAddr: 0x4DE8, symBinAddr: 0x1000209D8, symSize: 0x2C }
  - { offsetInCU: 0x4D, offset: 0x50D61, size: 0x8, addend: 0x0, symName: __ZppR4Suit, symObjAddr: 0xDC, symBinAddr: 0x100020AD4, symSize: 0xA4 }
  - { offsetInCU: 0x2C03, offset: 0x53917, size: 0x8, addend: 0x0, symName: __ZmmR4Suit, symObjAddr: 0x1F0, symBinAddr: 0x100020BE8, symSize: 0xA4 }
  - { offsetInCU: 0x2C3A, offset: 0x5394E, size: 0x8, addend: 0x0, symName: __ZppR4Rank, symObjAddr: 0x3E8, symBinAddr: 0x100020DE0, symSize: 0xA4 }
  - { offsetInCU: 0x2C71, offset: 0x53985, size: 0x8, addend: 0x0, symName: __ZmmR4Rank, symObjAddr: 0x4C4, symBinAddr: 0x100020EBC, symSize: 0xA4 }
  - { offsetInCU: 0x4B65, offset: 0x55879, size: 0x8, addend: 0x0, symName: __Z9to_string5Color, symObjAddr: 0x0, symBinAddr: 0x100020A04, symSize: 0x9C }
  - { offsetInCU: 0x4C55, offset: 0x55969, size: 0x8, addend: 0x0, symName: __ZNSt3__112basic_stringIcNS_11char_traitsIcEENS_9allocatorIcEEEC1B7v160006IDnEEPKc, symObjAddr: 0x9C, symBinAddr: 0x100020AA0, symSize: 0x34 }
  - { offsetInCU: 0x4CC5, offset: 0x559D9, size: 0x8, addend: 0x0, symName: __ZNSt14overflow_errorC1B7v160006EPKc, symObjAddr: 0x180, symBinAddr: 0x100020B78, symSize: 0x34 }
  - { offsetInCU: 0x4CFD, offset: 0x55A11, size: 0x8, addend: 0x0, symName: __ZppR4Suiti, symObjAddr: 0x1B4, symBinAddr: 0x100020BAC, symSize: 0x3C }
  - { offsetInCU: 0x4D51, offset: 0x55A65, size: 0x8, addend: 0x0, symName: __ZNSt15underflow_errorC1B7v160006EPKc, symObjAddr: 0x294, symBinAddr: 0x100020C8C, symSize: 0x34 }
  - { offsetInCU: 0x4D89, offset: 0x55A9D, size: 0x8, addend: 0x0, symName: __ZmmR4Suiti, symObjAddr: 0x2C8, symBinAddr: 0x100020CC0, symSize: 0x3C }
  - { offsetInCU: 0x4DCE, offset: 0x55AE2, size: 0x8, addend: 0x0, symName: __Z9to_string4Suit, symObjAddr: 0x304, symBinAddr: 0x100020CFC, symSize: 0xD4 }
  - { offsetInCU: 0x4DFA, offset: 0x55B0E, size: 0x8, addend: 0x0, symName: __ZppR4Ranki, symObjAddr: 0x48C, symBinAddr: 0x100020E84, symSize: 0x38 }
  - { offsetInCU: 0x4E3F, offset: 0x55B53, size: 0x8, addend: 0x0, symName: __ZmmR4Ranki, symObjAddr: 0x568, symBinAddr: 0x100020F60, symSize: 0x38 }
  - { offsetInCU: 0x4E84, offset: 0x55B98, size: 0x8, addend: 0x0, symName: __Z9to_string4Rank, symObjAddr: 0x5A0, symBinAddr: 0x100020F98, symSize: 0x1AC }
  - { offsetInCU: 0x4EB0, offset: 0x55BC4, size: 0x8, addend: 0x0, symName: __ZNSt14overflow_errorC2B7v160006EPKc, symObjAddr: 0x780, symBinAddr: 0x100021178, symSize: 0x4C }
  - { offsetInCU: 0x4EE8, offset: 0x55BFC, size: 0x8, addend: 0x0, symName: __ZNSt15underflow_errorC2B7v160006EPKc, symObjAddr: 0x7CC, symBinAddr: 0x1000211C4, symSize: 0x4C }
  - { offsetInCU: 0x4F20, offset: 0x55C34, size: 0x8, addend: 0x0, symName: __ZNSt3__112basic_stringIcNS_11char_traitsIcEENS_9allocatorIcEEEC2B7v160006IDnEEPKc, symObjAddr: 0x818, symBinAddr: 0x100021210, symSize: 0x60 }
...
